ARM GAS  /var/folders/lg/77ksxqjx0n7gwph6nqpzcmcw0000gn/T//ccBZeZB7.s 			page 1


   1              		.cpu cortex-m7
   2              		.eabi_attribute 28, 1
   3              		.eabi_attribute 20, 1
   4              		.eabi_attribute 21, 1
   5              		.eabi_attribute 23, 3
   6              		.eabi_attribute 24, 1
   7              		.eabi_attribute 25, 1
   8              		.eabi_attribute 26, 1
   9              		.eabi_attribute 30, 2
  10              		.eabi_attribute 34, 1
  11              		.eabi_attribute 18, 4
  12              		.file	"ccsbcs.c"
  13              		.text
  14              		.section	.text.ff_convert,"ax",%progbits
  15              		.align	1
  16              		.p2align 2,,3
  17              		.global	ff_convert
  18              		.arch armv7e-m
  19              		.syntax unified
  20              		.thumb
  21              		.thumb_func
  22              		.fpu fpv5-d16
  24              	ff_convert:
  25              		@ args = 0, pretend = 0, frame = 0
  26              		@ frame_needed = 0, uses_anonymous_args = 0
  27              		@ link register save eliminated.
  28 0000 7F28     		cmp	r0, #127
  29 0002 13D9     		bls	.L11
  30 0004 99B9     		cbnz	r1, .L3
  31 0006 0F4A     		ldr	r2, .L16
  32 0008 C723     		movs	r3, #199
  33 000a 10B4     		push	{r4}
  34 000c 03E0     		b	.L4
  35              	.L15:
  36 000e 8029     		cmp	r1, #128
  37 0010 16D0     		beq	.L8
  38 0012 32F8023F 		ldrh	r3, [r2, #2]!
  39              	.L4:
  40 0016 9842     		cmp	r0, r3
  41 0018 8CB2     		uxth	r4, r1
  42 001a 01F10101 		add	r1, r1, #1
  43 001e F6D1     		bne	.L15
  44 0020 04F18000 		add	r0, r4, #128
  45 0024 80B2     		uxth	r0, r0
  46              	.L2:
  47 0026 5DF8044B 		ldr	r4, [sp], #4
  48 002a 7047     		bx	lr
  49              	.L11:
  50 002c 7047     		bx	lr
  51              	.L3:
  52 002e FF28     		cmp	r0, #255
  53 0030 04D8     		bhi	.L7
  54 0032 044B     		ldr	r3, .L16
  55 0034 8038     		subs	r0, r0, #128
  56 0036 33F81000 		ldrh	r0, [r3, r0, lsl #1]
  57 003a 7047     		bx	lr
  58              	.L7:
ARM GAS  /var/folders/lg/77ksxqjx0n7gwph6nqpzcmcw0000gn/T//ccBZeZB7.s 			page 2


  59 003c 0020     		movs	r0, #0
  60 003e 7047     		bx	lr
  61              	.L8:
  62 0040 0020     		movs	r0, #0
  63 0042 F0E7     		b	.L2
  64              	.L17:
  65              		.align	2
  66              	.L16:
  67 0044 00000000 		.word	.LANCHOR0
  69              		.section	.text.ff_wtoupper,"ax",%progbits
  70              		.align	1
  71              		.p2align 2,,3
  72              		.global	ff_wtoupper
  73              		.syntax unified
  74              		.thumb
  75              		.thumb_func
  76              		.fpu fpv5-d16
  78              	ff_wtoupper:
  79              		@ args = 0, pretend = 0, frame = 0
  80              		@ frame_needed = 0, uses_anonymous_args = 0
  81              		@ link register save eliminated.
  82 0000 B0F5805F 		cmp	r0, #4096
  83 0004 234A     		ldr	r2, .L37
  84 0006 244B     		ldr	r3, .L37+4
  85 0008 41F67D51 		movw	r1, #7549
  86 000c 2CBF     		ite	cs
  87 000e 1346     		movcs	r3, r2
  88 0010 6121     		movcc	r1, #97
  89 0012 70B4     		push	{r4, r5, r6}
  90              	.L34:
  91 0014 0433     		adds	r3, r3, #4
  92 0016 03E0     		b	.L33
  93              	.L21:
  94 0018 0433     		adds	r3, r3, #4
  95 001a D2B1     		cbz	r2, .L32
  96 001c 33F8041C 		ldrh	r1, [r3, #-4]
  97              	.L33:
  98 0020 1E46     		mov	r6, r3
  99 0022 A1B1     		cbz	r1, .L20
 100 0024 8842     		cmp	r0, r1
 101 0026 12D3     		bcc	.L20
 102 0028 33F8022C 		ldrh	r2, [r3, #-2]
 103 002c D4B2     		uxtb	r4, r2
 104 002e 120A     		lsrs	r2, r2, #8
 105 0030 6518     		adds	r5, r4, r1
 106 0032 A842     		cmp	r0, r5
 107 0034 F0DA     		bge	.L21
 108 0036 082A     		cmp	r2, #8
 109 0038 09D8     		bhi	.L20
 110 003a DFE802F0 		tbb	[pc, r2]
 111              	.L23:
 112 003e 05       		.byte	(.L31-.L23)/2
 113 003f 13       		.byte	(.L30-.L23)/2
 114 0040 19       		.byte	(.L29-.L23)/2
 115 0041 1C       		.byte	(.L28-.L23)/2
 116 0042 1F       		.byte	(.L27-.L23)/2
 117 0043 22       		.byte	(.L26-.L23)/2
ARM GAS  /var/folders/lg/77ksxqjx0n7gwph6nqpzcmcw0000gn/T//ccBZeZB7.s 			page 3


 118 0044 25       		.byte	(.L25-.L23)/2
 119 0045 28       		.byte	(.L24-.L23)/2
 120 0046 0F       		.byte	(.L22-.L23)/2
 121 0047 00       		.p2align 1
 122              	.L31:
 123 0048 411A     		subs	r1, r0, r1
 124 004a 33F81100 		ldrh	r0, [r3, r1, lsl #1]
 125              	.L20:
 126 004e 70BC     		pop	{r4, r5, r6}
 127 0050 7047     		bx	lr
 128              	.L32:
 129 0052 06EB4403 		add	r3, r6, r4, lsl #1
 130 0056 36F81410 		ldrh	r1, [r6, r4, lsl #1]
 131 005a DBE7     		b	.L34
 132              	.L22:
 133 005c A0F5E350 		sub	r0, r0, #7264
 134 0060 80B2     		uxth	r0, r0
 135 0062 F4E7     		b	.L20
 136              	.L30:
 137 0064 411A     		subs	r1, r0, r1
 138 0066 01F00103 		and	r3, r1, #1
 139 006a C01A     		subs	r0, r0, r3
 140 006c 80B2     		uxth	r0, r0
 141 006e EEE7     		b	.L20
 142              	.L29:
 143 0070 1038     		subs	r0, r0, #16
 144 0072 80B2     		uxth	r0, r0
 145 0074 EBE7     		b	.L20
 146              	.L28:
 147 0076 2038     		subs	r0, r0, #32
 148 0078 80B2     		uxth	r0, r0
 149 007a E8E7     		b	.L20
 150              	.L27:
 151 007c 3038     		subs	r0, r0, #48
 152 007e 80B2     		uxth	r0, r0
 153 0080 E5E7     		b	.L20
 154              	.L26:
 155 0082 1A38     		subs	r0, r0, #26
 156 0084 80B2     		uxth	r0, r0
 157 0086 E2E7     		b	.L20
 158              	.L25:
 159 0088 0830     		adds	r0, r0, #8
 160 008a 80B2     		uxth	r0, r0
 161 008c DFE7     		b	.L20
 162              	.L24:
 163 008e 5038     		subs	r0, r0, #80
 164 0090 80B2     		uxth	r0, r0
 165 0092 DCE7     		b	.L20
 166              	.L38:
 167              		.align	2
 168              	.L37:
 169 0094 00000000 		.word	.LANCHOR2
 170 0098 00000000 		.word	.LANCHOR1
 172              		.section	.rodata.Tbl,"a"
 173              		.align	2
 174              		.set	.LANCHOR0,. + 0
 177              	Tbl:
ARM GAS  /var/folders/lg/77ksxqjx0n7gwph6nqpzcmcw0000gn/T//ccBZeZB7.s 			page 4


 178 0000 C700     		.short	199
 179 0002 FC00     		.short	252
 180 0004 E900     		.short	233
 181 0006 E200     		.short	226
 182 0008 E400     		.short	228
 183 000a E000     		.short	224
 184 000c E500     		.short	229
 185 000e E700     		.short	231
 186 0010 EA00     		.short	234
 187 0012 EB00     		.short	235
 188 0014 E800     		.short	232
 189 0016 EF00     		.short	239
 190 0018 EE00     		.short	238
 191 001a EC00     		.short	236
 192 001c C400     		.short	196
 193 001e C500     		.short	197
 194 0020 C900     		.short	201
 195 0022 E600     		.short	230
 196 0024 C600     		.short	198
 197 0026 F400     		.short	244
 198 0028 F600     		.short	246
 199 002a F200     		.short	242
 200 002c FB00     		.short	251
 201 002e F900     		.short	249
 202 0030 FF00     		.short	255
 203 0032 D600     		.short	214
 204 0034 DC00     		.short	220
 205 0036 F800     		.short	248
 206 0038 A300     		.short	163
 207 003a D800     		.short	216
 208 003c D700     		.short	215
 209 003e 9201     		.short	402
 210 0040 E100     		.short	225
 211 0042 ED00     		.short	237
 212 0044 F300     		.short	243
 213 0046 FA00     		.short	250
 214 0048 F100     		.short	241
 215 004a D100     		.short	209
 216 004c AA00     		.short	170
 217 004e BA00     		.short	186
 218 0050 BF00     		.short	191
 219 0052 AE00     		.short	174
 220 0054 AC00     		.short	172
 221 0056 BD00     		.short	189
 222 0058 BC00     		.short	188
 223 005a A100     		.short	161
 224 005c AB00     		.short	171
 225 005e BB00     		.short	187
 226 0060 9125     		.short	9617
 227 0062 9225     		.short	9618
 228 0064 9325     		.short	9619
 229 0066 0225     		.short	9474
 230 0068 2425     		.short	9508
 231 006a C100     		.short	193
 232 006c C200     		.short	194
 233 006e C000     		.short	192
 234 0070 A900     		.short	169
ARM GAS  /var/folders/lg/77ksxqjx0n7gwph6nqpzcmcw0000gn/T//ccBZeZB7.s 			page 5


 235 0072 6325     		.short	9571
 236 0074 5125     		.short	9553
 237 0076 5725     		.short	9559
 238 0078 5D25     		.short	9565
 239 007a A200     		.short	162
 240 007c A500     		.short	165
 241 007e 1025     		.short	9488
 242 0080 1425     		.short	9492
 243 0082 3425     		.short	9524
 244 0084 2C25     		.short	9516
 245 0086 1C25     		.short	9500
 246 0088 0025     		.short	9472
 247 008a 3C25     		.short	9532
 248 008c E300     		.short	227
 249 008e C300     		.short	195
 250 0090 5A25     		.short	9562
 251 0092 5425     		.short	9556
 252 0094 6925     		.short	9577
 253 0096 6625     		.short	9574
 254 0098 6025     		.short	9568
 255 009a 5025     		.short	9552
 256 009c 6C25     		.short	9580
 257 009e A400     		.short	164
 258 00a0 F000     		.short	240
 259 00a2 D000     		.short	208
 260 00a4 CA00     		.short	202
 261 00a6 CB00     		.short	203
 262 00a8 C800     		.short	200
 263 00aa 3101     		.short	305
 264 00ac CD00     		.short	205
 265 00ae CE00     		.short	206
 266 00b0 CF00     		.short	207
 267 00b2 1825     		.short	9496
 268 00b4 0C25     		.short	9484
 269 00b6 8825     		.short	9608
 270 00b8 8425     		.short	9604
 271 00ba A600     		.short	166
 272 00bc CC00     		.short	204
 273 00be 8025     		.short	9600
 274 00c0 D300     		.short	211
 275 00c2 DF00     		.short	223
 276 00c4 D400     		.short	212
 277 00c6 D200     		.short	210
 278 00c8 F500     		.short	245
 279 00ca D500     		.short	213
 280 00cc B500     		.short	181
 281 00ce FE00     		.short	254
 282 00d0 DE00     		.short	222
 283 00d2 DA00     		.short	218
 284 00d4 DB00     		.short	219
 285 00d6 D900     		.short	217
 286 00d8 FD00     		.short	253
 287 00da DD00     		.short	221
 288 00dc AF00     		.short	175
 289 00de B400     		.short	180
 290 00e0 AD00     		.short	173
 291 00e2 B100     		.short	177
ARM GAS  /var/folders/lg/77ksxqjx0n7gwph6nqpzcmcw0000gn/T//ccBZeZB7.s 			page 6


 292 00e4 1720     		.short	8215
 293 00e6 BE00     		.short	190
 294 00e8 B600     		.short	182
 295 00ea A700     		.short	167
 296 00ec F700     		.short	247
 297 00ee B800     		.short	184
 298 00f0 B000     		.short	176
 299 00f2 A800     		.short	168
 300 00f4 B700     		.short	183
 301 00f6 B900     		.short	185
 302 00f8 B300     		.short	179
 303 00fa B200     		.short	178
 304 00fc A025     		.short	9632
 305 00fe A000     		.short	160
 306              		.section	.rodata.cvt1.18435,"a"
 307              		.align	2
 308              		.set	.LANCHOR1,. + 0
 311              	cvt1.18435:
 312 0000 6100     		.short	97
 313 0002 1A03     		.short	794
 314 0004 E000     		.short	224
 315 0006 1703     		.short	791
 316 0008 F800     		.short	248
 317 000a 0703     		.short	775
 318 000c FF00     		.short	255
 319 000e 0100     		.short	1
 320 0010 7801     		.short	376
 321 0012 0001     		.short	256
 322 0014 3001     		.short	304
 323 0016 3201     		.short	306
 324 0018 0601     		.short	262
 325 001a 3901     		.short	313
 326 001c 1001     		.short	272
 327 001e 4A01     		.short	330
 328 0020 2E01     		.short	302
 329 0022 7901     		.short	377
 330 0024 0601     		.short	262
 331 0026 8001     		.short	384
 332 0028 4D00     		.short	77
 333 002a 4302     		.short	579
 334 002c 8101     		.short	385
 335 002e 8201     		.short	386
 336 0030 8201     		.short	386
 337 0032 8401     		.short	388
 338 0034 8401     		.short	388
 339 0036 8601     		.short	390
 340 0038 8701     		.short	391
 341 003a 8701     		.short	391
 342 003c 8901     		.short	393
 343 003e 8A01     		.short	394
 344 0040 8B01     		.short	395
 345 0042 8B01     		.short	395
 346 0044 8D01     		.short	397
 347 0046 8E01     		.short	398
 348 0048 8F01     		.short	399
 349 004a 9001     		.short	400
 350 004c 9101     		.short	401
ARM GAS  /var/folders/lg/77ksxqjx0n7gwph6nqpzcmcw0000gn/T//ccBZeZB7.s 			page 7


 351 004e 9101     		.short	401
 352 0050 9301     		.short	403
 353 0052 9401     		.short	404
 354 0054 F601     		.short	502
 355 0056 9601     		.short	406
 356 0058 9701     		.short	407
 357 005a 9801     		.short	408
 358 005c 9801     		.short	408
 359 005e 3D02     		.short	573
 360 0060 9B01     		.short	411
 361 0062 9C01     		.short	412
 362 0064 9D01     		.short	413
 363 0066 2002     		.short	544
 364 0068 9F01     		.short	415
 365 006a A001     		.short	416
 366 006c A001     		.short	416
 367 006e A201     		.short	418
 368 0070 A201     		.short	418
 369 0072 A401     		.short	420
 370 0074 A401     		.short	420
 371 0076 A601     		.short	422
 372 0078 A701     		.short	423
 373 007a A701     		.short	423
 374 007c A901     		.short	425
 375 007e AA01     		.short	426
 376 0080 AB01     		.short	427
 377 0082 AC01     		.short	428
 378 0084 AC01     		.short	428
 379 0086 AE01     		.short	430
 380 0088 AF01     		.short	431
 381 008a AF01     		.short	431
 382 008c B101     		.short	433
 383 008e B201     		.short	434
 384 0090 B301     		.short	435
 385 0092 B301     		.short	435
 386 0094 B501     		.short	437
 387 0096 B501     		.short	437
 388 0098 B701     		.short	439
 389 009a B801     		.short	440
 390 009c B801     		.short	440
 391 009e BA01     		.short	442
 392 00a0 BB01     		.short	443
 393 00a2 BC01     		.short	444
 394 00a4 BC01     		.short	444
 395 00a6 BE01     		.short	446
 396 00a8 F701     		.short	503
 397 00aa C001     		.short	448
 398 00ac C101     		.short	449
 399 00ae C201     		.short	450
 400 00b0 C301     		.short	451
 401 00b2 C401     		.short	452
 402 00b4 C501     		.short	453
 403 00b6 C401     		.short	452
 404 00b8 C701     		.short	455
 405 00ba C801     		.short	456
 406 00bc C701     		.short	455
 407 00be CA01     		.short	458
ARM GAS  /var/folders/lg/77ksxqjx0n7gwph6nqpzcmcw0000gn/T//ccBZeZB7.s 			page 8


 408 00c0 CB01     		.short	459
 409 00c2 CA01     		.short	458
 410 00c4 CD01     		.short	461
 411 00c6 1001     		.short	272
 412 00c8 DD01     		.short	477
 413 00ca 0100     		.short	1
 414 00cc 8E01     		.short	398
 415 00ce DE01     		.short	478
 416 00d0 1201     		.short	274
 417 00d2 F301     		.short	499
 418 00d4 0300     		.short	3
 419 00d6 F101     		.short	497
 420 00d8 F401     		.short	500
 421 00da F401     		.short	500
 422 00dc F801     		.short	504
 423 00de 2801     		.short	296
 424 00e0 2202     		.short	546
 425 00e2 1201     		.short	274
 426 00e4 3A02     		.short	570
 427 00e6 0900     		.short	9
 428 00e8 652C     		.short	11365
 429 00ea 3B02     		.short	571
 430 00ec 3B02     		.short	571
 431 00ee 3D02     		.short	573
 432 00f0 662C     		.short	11366
 433 00f2 3F02     		.short	575
 434 00f4 4002     		.short	576
 435 00f6 4102     		.short	577
 436 00f8 4102     		.short	577
 437 00fa 4602     		.short	582
 438 00fc 0A01     		.short	266
 439 00fe 5302     		.short	595
 440 0100 4000     		.short	64
 441 0102 8101     		.short	385
 442 0104 8601     		.short	390
 443 0106 5502     		.short	597
 444 0108 8901     		.short	393
 445 010a 8A01     		.short	394
 446 010c 5802     		.short	600
 447 010e 8F01     		.short	399
 448 0110 5A02     		.short	602
 449 0112 9001     		.short	400
 450 0114 5C02     		.short	604
 451 0116 5D02     		.short	605
 452 0118 5E02     		.short	606
 453 011a 5F02     		.short	607
 454 011c 9301     		.short	403
 455 011e 6102     		.short	609
 456 0120 6202     		.short	610
 457 0122 9401     		.short	404
 458 0124 6402     		.short	612
 459 0126 6502     		.short	613
 460 0128 6602     		.short	614
 461 012a 6702     		.short	615
 462 012c 9701     		.short	407
 463 012e 9601     		.short	406
 464 0130 6A02     		.short	618
ARM GAS  /var/folders/lg/77ksxqjx0n7gwph6nqpzcmcw0000gn/T//ccBZeZB7.s 			page 9


 465 0132 622C     		.short	11362
 466 0134 6C02     		.short	620
 467 0136 6D02     		.short	621
 468 0138 6E02     		.short	622
 469 013a 9C01     		.short	412
 470 013c 7002     		.short	624
 471 013e 7102     		.short	625
 472 0140 9D01     		.short	413
 473 0142 7302     		.short	627
 474 0144 7402     		.short	628
 475 0146 9F01     		.short	415
 476 0148 7602     		.short	630
 477 014a 7702     		.short	631
 478 014c 7802     		.short	632
 479 014e 7902     		.short	633
 480 0150 7A02     		.short	634
 481 0152 7B02     		.short	635
 482 0154 7C02     		.short	636
 483 0156 642C     		.short	11364
 484 0158 7E02     		.short	638
 485 015a 7F02     		.short	639
 486 015c A601     		.short	422
 487 015e 8102     		.short	641
 488 0160 8202     		.short	642
 489 0162 A901     		.short	425
 490 0164 8402     		.short	644
 491 0166 8502     		.short	645
 492 0168 8602     		.short	646
 493 016a 8702     		.short	647
 494 016c AE01     		.short	430
 495 016e 4402     		.short	580
 496 0170 B101     		.short	433
 497 0172 B201     		.short	434
 498 0174 4502     		.short	581
 499 0176 8D02     		.short	653
 500 0178 8E02     		.short	654
 501 017a 8F02     		.short	655
 502 017c 9002     		.short	656
 503 017e 9102     		.short	657
 504 0180 B701     		.short	439
 505 0182 7B03     		.short	891
 506 0184 0300     		.short	3
 507 0186 FD03     		.short	1021
 508 0188 FE03     		.short	1022
 509 018a FF03     		.short	1023
 510 018c AC03     		.short	940
 511 018e 0400     		.short	4
 512 0190 8603     		.short	902
 513 0192 8803     		.short	904
 514 0194 8903     		.short	905
 515 0196 8A03     		.short	906
 516 0198 B103     		.short	945
 517 019a 1103     		.short	785
 518 019c C203     		.short	962
 519 019e 0200     		.short	2
 520 01a0 A303     		.short	931
 521 01a2 A303     		.short	931
ARM GAS  /var/folders/lg/77ksxqjx0n7gwph6nqpzcmcw0000gn/T//ccBZeZB7.s 			page 10


 522 01a4 C403     		.short	964
 523 01a6 0803     		.short	776
 524 01a8 CC03     		.short	972
 525 01aa 0300     		.short	3
 526 01ac 8C03     		.short	908
 527 01ae 8E03     		.short	910
 528 01b0 8F03     		.short	911
 529 01b2 D803     		.short	984
 530 01b4 1801     		.short	280
 531 01b6 F203     		.short	1010
 532 01b8 0A00     		.short	10
 533 01ba F903     		.short	1017
 534 01bc F303     		.short	1011
 535 01be F403     		.short	1012
 536 01c0 F503     		.short	1013
 537 01c2 F603     		.short	1014
 538 01c4 F703     		.short	1015
 539 01c6 F703     		.short	1015
 540 01c8 F903     		.short	1017
 541 01ca FA03     		.short	1018
 542 01cc FA03     		.short	1018
 543 01ce 3004     		.short	1072
 544 01d0 2003     		.short	800
 545 01d2 5004     		.short	1104
 546 01d4 1007     		.short	1808
 547 01d6 6004     		.short	1120
 548 01d8 2201     		.short	290
 549 01da 8A04     		.short	1162
 550 01dc 3601     		.short	310
 551 01de C104     		.short	1217
 552 01e0 0E01     		.short	270
 553 01e2 CF04     		.short	1231
 554 01e4 0100     		.short	1
 555 01e6 C004     		.short	1216
 556 01e8 D004     		.short	1232
 557 01ea 4401     		.short	324
 558 01ec 6105     		.short	1377
 559 01ee 2604     		.short	1062
 560 01f0 0000     		.short	0
 561              		.section	.rodata.cvt2.18436,"a"
 562              		.align	2
 563              		.set	.LANCHOR2,. + 0
 566              	cvt2.18436:
 567 0000 7D1D     		.short	7549
 568 0002 0100     		.short	1
 569 0004 632C     		.short	11363
 570 0006 001E     		.short	7680
 571 0008 9601     		.short	406
 572 000a A01E     		.short	7840
 573 000c 5A01     		.short	346
 574 000e 001F     		.short	7936
 575 0010 0806     		.short	1544
 576 0012 101F     		.short	7952
 577 0014 0606     		.short	1542
 578 0016 201F     		.short	7968
 579 0018 0806     		.short	1544
 580 001a 301F     		.short	7984
ARM GAS  /var/folders/lg/77ksxqjx0n7gwph6nqpzcmcw0000gn/T//ccBZeZB7.s 			page 11


 581 001c 0806     		.short	1544
 582 001e 401F     		.short	8000
 583 0020 0606     		.short	1542
 584 0022 511F     		.short	8017
 585 0024 0700     		.short	7
 586 0026 591F     		.short	8025
 587 0028 521F     		.short	8018
 588 002a 5B1F     		.short	8027
 589 002c 541F     		.short	8020
 590 002e 5D1F     		.short	8029
 591 0030 561F     		.short	8022
 592 0032 5F1F     		.short	8031
 593 0034 601F     		.short	8032
 594 0036 0806     		.short	1544
 595 0038 701F     		.short	8048
 596 003a 0E00     		.short	14
 597 003c BA1F     		.short	8122
 598 003e BB1F     		.short	8123
 599 0040 C81F     		.short	8136
 600 0042 C91F     		.short	8137
 601 0044 CA1F     		.short	8138
 602 0046 CB1F     		.short	8139
 603 0048 DA1F     		.short	8154
 604 004a DB1F     		.short	8155
 605 004c F81F     		.short	8184
 606 004e F91F     		.short	8185
 607 0050 EA1F     		.short	8170
 608 0052 EB1F     		.short	8171
 609 0054 FA1F     		.short	8186
 610 0056 FB1F     		.short	8187
 611 0058 801F     		.short	8064
 612 005a 0806     		.short	1544
 613 005c 901F     		.short	8080
 614 005e 0806     		.short	1544
 615 0060 A01F     		.short	8096
 616 0062 0806     		.short	1544
 617 0064 B01F     		.short	8112
 618 0066 0400     		.short	4
 619 0068 B81F     		.short	8120
 620 006a B91F     		.short	8121
 621 006c B21F     		.short	8114
 622 006e BC1F     		.short	8124
 623 0070 CC1F     		.short	8140
 624 0072 0100     		.short	1
 625 0074 C31F     		.short	8131
 626 0076 D01F     		.short	8144
 627 0078 0206     		.short	1538
 628 007a E01F     		.short	8160
 629 007c 0206     		.short	1538
 630 007e E51F     		.short	8165
 631 0080 0100     		.short	1
 632 0082 EC1F     		.short	8172
 633 0084 F21F     		.short	8178
 634 0086 0100     		.short	1
 635 0088 FC1F     		.short	8188
 636 008a 4E21     		.short	8526
 637 008c 0100     		.short	1
ARM GAS  /var/folders/lg/77ksxqjx0n7gwph6nqpzcmcw0000gn/T//ccBZeZB7.s 			page 12


 638 008e 3221     		.short	8498
 639 0090 7021     		.short	8560
 640 0092 1002     		.short	528
 641 0094 8421     		.short	8580
 642 0096 0100     		.short	1
 643 0098 8321     		.short	8579
 644 009a D024     		.short	9424
 645 009c 1A05     		.short	1306
 646 009e 302C     		.short	11312
 647 00a0 2F04     		.short	1071
 648 00a2 602C     		.short	11360
 649 00a4 0201     		.short	258
 650 00a6 672C     		.short	11367
 651 00a8 0601     		.short	262
 652 00aa 752C     		.short	11381
 653 00ac 0201     		.short	258
 654 00ae 802C     		.short	11392
 655 00b0 6401     		.short	356
 656 00b2 002D     		.short	11520
 657 00b4 2608     		.short	2086
 658 00b6 41FF     		.short	-191
 659 00b8 1A03     		.short	794
 660 00ba 0000     		.short	0
 661              		.ident	"GCC: (GNU Arm Embedded Toolchain 9-2020-q2-update) 9.3.1 20200408 (release)"
ARM GAS  /var/folders/lg/77ksxqjx0n7gwph6nqpzcmcw0000gn/T//ccBZeZB7.s 			page 13


DEFINED SYMBOLS
                            *ABS*:0000000000000000 ccsbcs.c
/var/folders/lg/77ksxqjx0n7gwph6nqpzcmcw0000gn/T//ccBZeZB7.s:15     .text.ff_convert:0000000000000000 $t
/var/folders/lg/77ksxqjx0n7gwph6nqpzcmcw0000gn/T//ccBZeZB7.s:24     .text.ff_convert:0000000000000000 ff_convert
/var/folders/lg/77ksxqjx0n7gwph6nqpzcmcw0000gn/T//ccBZeZB7.s:67     .text.ff_convert:0000000000000044 $d
/var/folders/lg/77ksxqjx0n7gwph6nqpzcmcw0000gn/T//ccBZeZB7.s:70     .text.ff_wtoupper:0000000000000000 $t
/var/folders/lg/77ksxqjx0n7gwph6nqpzcmcw0000gn/T//ccBZeZB7.s:78     .text.ff_wtoupper:0000000000000000 ff_wtoupper
/var/folders/lg/77ksxqjx0n7gwph6nqpzcmcw0000gn/T//ccBZeZB7.s:112    .text.ff_wtoupper:000000000000003e $d
/var/folders/lg/77ksxqjx0n7gwph6nqpzcmcw0000gn/T//ccBZeZB7.s:169    .text.ff_wtoupper:0000000000000094 $d
/var/folders/lg/77ksxqjx0n7gwph6nqpzcmcw0000gn/T//ccBZeZB7.s:173    .rodata.Tbl:0000000000000000 $d
/var/folders/lg/77ksxqjx0n7gwph6nqpzcmcw0000gn/T//ccBZeZB7.s:177    .rodata.Tbl:0000000000000000 Tbl
/var/folders/lg/77ksxqjx0n7gwph6nqpzcmcw0000gn/T//ccBZeZB7.s:307    .rodata.cvt1.18435:0000000000000000 $d
/var/folders/lg/77ksxqjx0n7gwph6nqpzcmcw0000gn/T//ccBZeZB7.s:311    .rodata.cvt1.18435:0000000000000000 cvt1.18435
/var/folders/lg/77ksxqjx0n7gwph6nqpzcmcw0000gn/T//ccBZeZB7.s:562    .rodata.cvt2.18436:0000000000000000 $d
/var/folders/lg/77ksxqjx0n7gwph6nqpzcmcw0000gn/T//ccBZeZB7.s:566    .rodata.cvt2.18436:0000000000000000 cvt2.18436
/var/folders/lg/77ksxqjx0n7gwph6nqpzcmcw0000gn/T//ccBZeZB7.s:121    .text.ff_wtoupper:0000000000000047 $d
/var/folders/lg/77ksxqjx0n7gwph6nqpzcmcw0000gn/T//ccBZeZB7.s:121    .text.ff_wtoupper:0000000000000048 $t

NO UNDEFINED SYMBOLS
