ARM GAS  /var/folders/lg/77ksxqjx0n7gwph6nqpzcmcw0000gn/T//ccz0FbIE.s 			page 1


   1              		.cpu cortex-m7
   2              		.eabi_attribute 28, 1
   3              		.eabi_attribute 20, 1
   4              		.eabi_attribute 21, 1
   5              		.eabi_attribute 23, 3
   6              		.eabi_attribute 24, 1
   7              		.eabi_attribute 25, 1
   8              		.eabi_attribute 26, 1
   9              		.eabi_attribute 30, 2
  10              		.eabi_attribute 34, 1
  11              		.eabi_attribute 18, 4
  12              		.file	"ff.c"
  13              		.text
  14              		.section	.text.chk_lock,"ax",%progbits
  15              		.align	1
  16              		.p2align 2,,3
  17              		.arch armv7e-m
  18              		.syntax unified
  19              		.thumb
  20              		.thumb_func
  21              		.fpu fpv5-d16
  23              	chk_lock:
  24              		@ args = 0, pretend = 0, frame = 0
  25              		@ frame_needed = 0, uses_anonymous_args = 0
  26              		@ link register save eliminated.
  27 0000 1C4A     		ldr	r2, .L23
  28 0002 1368     		ldr	r3, [r2]
  29 0004 30B4     		push	{r4, r5}
  30 0006 002B     		cmp	r3, #0
  31 0008 32D0     		beq	.L7
  32 000a 0468     		ldr	r4, [r0]
  33 000c 9C42     		cmp	r4, r3
  34 000e 0ED0     		beq	.L20
  35              	.L9:
  36 0010 0024     		movs	r4, #0
  37              	.L2:
  38 0012 1369     		ldr	r3, [r2, #16]
  39 0014 43B1     		cbz	r3, .L13
  40 0016 0568     		ldr	r5, [r0]
  41 0018 AB42     		cmp	r3, r5
  42 001a 1CD0     		beq	.L21
  43              	.L5:
  44 001c 0229     		cmp	r1, #2
  45 001e 03D0     		beq	.L13
  46 0020 14B9     		cbnz	r4, .L13
  47 0022 1220     		movs	r0, #18
  48 0024 30BC     		pop	{r4, r5}
  49 0026 7047     		bx	lr
  50              	.L13:
  51 0028 0020     		movs	r0, #0
  52              	.L16:
  53 002a 30BC     		pop	{r4, r5}
  54 002c 7047     		bx	lr
  55              	.L20:
  56 002e 5468     		ldr	r4, [r2, #4]
  57 0030 8368     		ldr	r3, [r0, #8]
  58 0032 9C42     		cmp	r4, r3
ARM GAS  /var/folders/lg/77ksxqjx0n7gwph6nqpzcmcw0000gn/T//ccz0FbIE.s 			page 2


  59 0034 ECD1     		bne	.L9
  60 0036 9468     		ldr	r4, [r2, #8]
  61 0038 4369     		ldr	r3, [r0, #20]
  62 003a 9C42     		cmp	r4, r3
  63 003c E8D1     		bne	.L9
  64 003e 0023     		movs	r3, #0
  65 0040 A1B9     		cbnz	r1, .L22
  66              	.L17:
  67 0042 02EB0312 		add	r2, r2, r3, lsl #4
  68 0046 9389     		ldrh	r3, [r2, #12]
  69 0048 B3F5807F 		cmp	r3, #256
  70 004c 30BC     		pop	{r4, r5}
  71 004e 14BF     		ite	ne
  72 0050 0020     		movne	r0, #0
  73 0052 1020     		moveq	r0, #16
  74 0054 7047     		bx	lr
  75              	.L21:
  76 0056 5569     		ldr	r5, [r2, #20]
  77 0058 8368     		ldr	r3, [r0, #8]
  78 005a 9D42     		cmp	r5, r3
  79 005c DED1     		bne	.L5
  80 005e 4369     		ldr	r3, [r0, #20]
  81 0060 9069     		ldr	r0, [r2, #24]
  82 0062 9842     		cmp	r0, r3
  83 0064 DAD1     		bne	.L5
  84 0066 0123     		movs	r3, #1
  85 0068 0029     		cmp	r1, #0
  86 006a EAD0     		beq	.L17
  87              	.L22:
  88 006c 1020     		movs	r0, #16
  89 006e DCE7     		b	.L16
  90              	.L7:
  91 0070 0124     		movs	r4, #1
  92 0072 CEE7     		b	.L2
  93              	.L24:
  94              		.align	2
  95              	.L23:
  96 0074 00000000 		.word	.LANCHOR0
  98              		.section	.text.inc_lock,"ax",%progbits
  99              		.align	1
 100              		.p2align 2,,3
 101              		.syntax unified
 102              		.thumb
 103              		.thumb_func
 104              		.fpu fpv5-d16
 106              	inc_lock:
 107              		@ args = 0, pretend = 0, frame = 0
 108              		@ frame_needed = 0, uses_anonymous_args = 0
 109              		@ link register save eliminated.
 110 0000 284B     		ldr	r3, .L45
 111 0002 F0B4     		push	{r4, r5, r6, r7}
 112 0004 1A68     		ldr	r2, [r3]
 113 0006 0568     		ldr	r5, [r0]
 114 0008 9542     		cmp	r5, r2
 115 000a 1BD0     		beq	.L41
 116              	.L26:
 117 000c 1C69     		ldr	r4, [r3, #16]
ARM GAS  /var/folders/lg/77ksxqjx0n7gwph6nqpzcmcw0000gn/T//ccz0FbIE.s 			page 3


 118 000e AC42     		cmp	r4, r5
 119 0010 06D0     		beq	.L42
 120              	.L28:
 121 0012 62B3     		cbz	r2, .L36
 122 0014 002C     		cmp	r4, #0
 123 0016 41D0     		beq	.L43
 124              	.L39:
 125 0018 0024     		movs	r4, #0
 126 001a 2046     		mov	r0, r4
 127 001c F0BC     		pop	{r4, r5, r6, r7}
 128 001e 7047     		bx	lr
 129              	.L42:
 130 0020 5F69     		ldr	r7, [r3, #20]
 131 0022 8668     		ldr	r6, [r0, #8]
 132 0024 B742     		cmp	r7, r6
 133 0026 F4D1     		bne	.L28
 134 0028 9F69     		ldr	r7, [r3, #24]
 135 002a 4669     		ldr	r6, [r0, #20]
 136 002c B742     		cmp	r7, r6
 137 002e F0D1     		bne	.L28
 138 0030 0122     		movs	r2, #1
 139 0032 91B9     		cbnz	r1, .L33
 140              	.L44:
 141 0034 03EB0211 		add	r1, r3, r2, lsl #4
 142 0038 541C     		adds	r4, r2, #1
 143 003a 1601     		lsls	r6, r2, #4
 144 003c 8989     		ldrh	r1, [r1, #12]
 145 003e 0131     		adds	r1, r1, #1
 146 0040 89B2     		uxth	r1, r1
 147 0042 26E0     		b	.L31
 148              	.L41:
 149 0044 5E68     		ldr	r6, [r3, #4]
 150 0046 8468     		ldr	r4, [r0, #8]
 151 0048 A642     		cmp	r6, r4
 152 004a DFD1     		bne	.L26
 153 004c 4669     		ldr	r6, [r0, #20]
 154 004e 9C68     		ldr	r4, [r3, #8]
 155 0050 A642     		cmp	r6, r4
 156 0052 DBD1     		bne	.L26
 157 0054 0022     		movs	r2, #0
 158 0056 0029     		cmp	r1, #0
 159 0058 ECD0     		beq	.L44
 160              	.L33:
 161 005a 03EB0211 		add	r1, r3, r2, lsl #4
 162 005e 1601     		lsls	r6, r2, #4
 163 0060 8989     		ldrh	r1, [r1, #12]
 164 0062 0029     		cmp	r1, #0
 165 0064 D8D1     		bne	.L39
 166 0066 541C     		adds	r4, r2, #1
 167 0068 4FF48071 		mov	r1, #256
 168 006c 11E0     		b	.L31
 169              	.L36:
 170 006e 0124     		movs	r4, #1
 171              	.L29:
 172 0070 0029     		cmp	r1, #0
 173 0072 4FEA0216 		lsl	r6, r2, #4
 174 0076 4169     		ldr	r1, [r0, #20]
ARM GAS  /var/folders/lg/77ksxqjx0n7gwph6nqpzcmcw0000gn/T//ccz0FbIE.s 			page 4


 175 0078 03EB0212 		add	r2, r3, r2, lsl #4
 176 007c 8768     		ldr	r7, [r0, #8]
 177 007e 4FF00000 		mov	r0, #0
 178 0082 9160     		str	r1, [r2, #8]
 179 0084 14BF     		ite	ne
 180 0086 4FF48071 		movne	r1, #256
 181 008a 0121     		moveq	r1, #1
 182 008c 9D51     		str	r5, [r3, r6]
 183 008e 5760     		str	r7, [r2, #4]
 184 0090 9081     		strh	r0, [r2, #12]	@ movhi
 185              	.L31:
 186 0092 3344     		add	r3, r3, r6
 187 0094 2046     		mov	r0, r4
 188 0096 F0BC     		pop	{r4, r5, r6, r7}
 189 0098 9981     		strh	r1, [r3, #12]	@ movhi
 190 009a 7047     		bx	lr
 191              	.L43:
 192 009c 0224     		movs	r4, #2
 193 009e 0122     		movs	r2, #1
 194 00a0 E6E7     		b	.L29
 195              	.L46:
 196 00a2 00BF     		.align	2
 197              	.L45:
 198 00a4 00000000 		.word	.LANCHOR0
 200              		.section	.text.get_ldnumber,"ax",%progbits
 201              		.align	1
 202              		.p2align 2,,3
 203              		.syntax unified
 204              		.thumb
 205              		.thumb_func
 206              		.fpu fpv5-d16
 208              	get_ldnumber:
 209              		@ args = 0, pretend = 0, frame = 0
 210              		@ frame_needed = 0, uses_anonymous_args = 0
 211              		@ link register save eliminated.
 212 0000 0168     		ldr	r1, [r0]
 213 0002 11B3     		cbz	r1, .L52
 214 0004 0A46     		mov	r2, r1
 215 0006 10B4     		push	{r4}
 216 0008 0446     		mov	r4, r0
 217 000a 0878     		ldrb	r0, [r1]	@ zero_extendqisi2
 218 000c 3A28     		cmp	r0, #58
 219 000e 11D0     		beq	.L53
 220 0010 1F28     		cmp	r0, #31
 221 0012 0FD9     		bls	.L53
 222              	.L50:
 223 0014 12F8013F 		ldrb	r3, [r2, #1]!	@ zero_extendqisi2
 224 0018 1F2B     		cmp	r3, #31
 225 001a 0CD9     		bls	.L49
 226 001c 3A2B     		cmp	r3, #58
 227 001e F9D1     		bne	.L50
 228              	.L72:
 229 0020 0131     		adds	r1, r1, #1
 230 0022 8A42     		cmp	r2, r1
 231 0024 01D1     		bne	.L55
 232 0026 3028     		cmp	r0, #48
 233 0028 0BD0     		beq	.L77
ARM GAS  /var/folders/lg/77ksxqjx0n7gwph6nqpzcmcw0000gn/T//ccz0FbIE.s 			page 5


 234              	.L55:
 235 002a 4FF0FF30 		mov	r0, #-1
 236 002e 5DF8044B 		ldr	r4, [sp], #4
 237 0032 7047     		bx	lr
 238              	.L53:
 239 0034 0346     		mov	r3, r0
 240              	.L49:
 241 0036 3A2B     		cmp	r3, #58
 242 0038 F2D0     		beq	.L72
 243 003a 0020     		movs	r0, #0
 244              	.L47:
 245 003c 5DF8044B 		ldr	r4, [sp], #4
 246 0040 7047     		bx	lr
 247              	.L77:
 248 0042 0132     		adds	r2, r2, #1
 249 0044 0020     		movs	r0, #0
 250 0046 2260     		str	r2, [r4]
 251 0048 F8E7     		b	.L47
 252              	.L52:
 253 004a 4FF0FF30 		mov	r0, #-1
 254 004e 7047     		bx	lr
 256              		.section	.text.validate,"ax",%progbits
 257              		.align	1
 258              		.p2align 2,,3
 259              		.syntax unified
 260              		.thumb
 261              		.thumb_func
 262              		.fpu fpv5-d16
 264              	validate:
 265              		@ args = 0, pretend = 0, frame = 0
 266              		@ frame_needed = 0, uses_anonymous_args = 0
 267 0000 38B5     		push	{r3, r4, r5, lr}
 268 0002 0D46     		mov	r5, r1
 269 0004 40B1     		cbz	r0, .L81
 270 0006 0368     		ldr	r3, [r0]
 271 0008 0446     		mov	r4, r0
 272 000a 2BB1     		cbz	r3, .L81
 273 000c 1A78     		ldrb	r2, [r3]	@ zero_extendqisi2
 274 000e 1AB1     		cbz	r2, .L81
 275 0010 8088     		ldrh	r0, [r0, #4]
 276 0012 DA88     		ldrh	r2, [r3, #6]
 277 0014 9042     		cmp	r0, r2
 278 0016 03D0     		beq	.L89
 279              	.L81:
 280 0018 0920     		movs	r0, #9
 281 001a 0023     		movs	r3, #0
 282              	.L80:
 283 001c 2B60     		str	r3, [r5]
 284 001e 38BD     		pop	{r3, r4, r5, pc}
 285              	.L89:
 286 0020 5878     		ldrb	r0, [r3, #1]	@ zero_extendqisi2
 287 0022 FFF7FEFF 		bl	disk_status
 288 0026 10F00100 		ands	r0, r0, #1
 289 002a F5D1     		bne	.L81
 290 002c 2368     		ldr	r3, [r4]
 291 002e F5E7     		b	.L80
 293              		.section	.text.mem_cpy.part.0,"ax",%progbits
ARM GAS  /var/folders/lg/77ksxqjx0n7gwph6nqpzcmcw0000gn/T//ccz0FbIE.s 			page 6


 294              		.align	1
 295              		.p2align 2,,3
 296              		.syntax unified
 297              		.thumb
 298              		.thumb_func
 299              		.fpu fpv5-d16
 301              	mem_cpy.part.0:
 302              		@ args = 0, pretend = 0, frame = 0
 303              		@ frame_needed = 0, uses_anonymous_args = 0
 304              		@ link register save eliminated.
 305 0000 0138     		subs	r0, r0, #1
 306 0002 0A44     		add	r2, r2, r1
 307              	.L91:
 308 0004 11F8013B 		ldrb	r3, [r1], #1	@ zero_extendqisi2
 309 0008 9142     		cmp	r1, r2
 310 000a 00F8013F 		strb	r3, [r0, #1]!
 311 000e F9D1     		bne	.L91
 312 0010 7047     		bx	lr
 314 0012 00BF     		.section	.text.sync_window.part.0,"ax",%progbits
 315              		.align	1
 316              		.p2align 2,,3
 317              		.syntax unified
 318              		.thumb
 319              		.thumb_func
 320              		.fpu fpv5-d16
 322              	sync_window.part.0:
 323              		@ args = 0, pretend = 0, frame = 0
 324              		@ frame_needed = 0, uses_anonymous_args = 0
 325 0000 2DE9F041 		push	{r4, r5, r6, r7, r8, lr}
 326 0004 056B     		ldr	r5, [r0, #48]
 327 0006 00F13408 		add	r8, r0, #52
 328 000a 0446     		mov	r4, r0
 329 000c 0123     		movs	r3, #1
 330 000e 4078     		ldrb	r0, [r0, #1]	@ zero_extendqisi2
 331 0010 2A46     		mov	r2, r5
 332 0012 4146     		mov	r1, r8
 333 0014 FFF7FEFF 		bl	disk_write
 334 0018 C0B9     		cbnz	r0, .L98
 335 001a 626A     		ldr	r2, [r4, #36]
 336 001c 0746     		mov	r7, r0
 337 001e E369     		ldr	r3, [r4, #28]
 338 0020 AA1A     		subs	r2, r5, r2
 339 0022 E070     		strb	r0, [r4, #3]
 340 0024 9A42     		cmp	r2, r3
 341 0026 0ED2     		bcs	.L94
 342 0028 A678     		ldrb	r6, [r4, #2]	@ zero_extendqisi2
 343 002a 012E     		cmp	r6, #1
 344 002c 01D8     		bhi	.L97
 345 002e 0AE0     		b	.L94
 346              	.L103:
 347 0030 E369     		ldr	r3, [r4, #28]
 348              	.L97:
 349 0032 1D44     		add	r5, r5, r3
 350 0034 013E     		subs	r6, r6, #1
 351 0036 0123     		movs	r3, #1
 352 0038 4146     		mov	r1, r8
 353 003a 2A46     		mov	r2, r5
ARM GAS  /var/folders/lg/77ksxqjx0n7gwph6nqpzcmcw0000gn/T//ccz0FbIE.s 			page 7


 354 003c 6078     		ldrb	r0, [r4, #1]	@ zero_extendqisi2
 355 003e FFF7FEFF 		bl	disk_write
 356 0042 012E     		cmp	r6, #1
 357 0044 F4D1     		bne	.L103
 358              	.L94:
 359 0046 3846     		mov	r0, r7
 360 0048 BDE8F081 		pop	{r4, r5, r6, r7, r8, pc}
 361              	.L98:
 362 004c 0127     		movs	r7, #1
 363 004e 3846     		mov	r0, r7
 364 0050 BDE8F081 		pop	{r4, r5, r6, r7, r8, pc}
 366              		.section	.text.sync_fs,"ax",%progbits
 367              		.align	1
 368              		.p2align 2,,3
 369              		.syntax unified
 370              		.thumb
 371              		.thumb_func
 372              		.fpu fpv5-d16
 374              	sync_fs:
 375              		@ args = 0, pretend = 0, frame = 0
 376              		@ frame_needed = 0, uses_anonymous_args = 0
 377 0000 F8B5     		push	{r3, r4, r5, r6, r7, lr}
 378 0002 C378     		ldrb	r3, [r0, #3]	@ zero_extendqisi2
 379 0004 0446     		mov	r4, r0
 380 0006 5BB9     		cbnz	r3, .L105
 381 0008 2378     		ldrb	r3, [r4]	@ zero_extendqisi2
 382 000a 032B     		cmp	r3, #3
 383 000c 0FD0     		beq	.L117
 384              	.L107:
 385 000e 0022     		movs	r2, #0
 386 0010 6078     		ldrb	r0, [r4, #1]	@ zero_extendqisi2
 387 0012 1146     		mov	r1, r2
 388 0014 FFF7FEFF 		bl	disk_ioctl
 389 0018 0038     		subs	r0, r0, #0
 390 001a 18BF     		it	ne
 391 001c 0120     		movne	r0, #1
 392              	.L109:
 393 001e F8BD     		pop	{r3, r4, r5, r6, r7, pc}
 394              	.L105:
 395 0020 FFF7FEFF 		bl	sync_window.part.0
 396 0024 0028     		cmp	r0, #0
 397 0026 FAD1     		bne	.L109
 398 0028 2378     		ldrb	r3, [r4]	@ zero_extendqisi2
 399 002a 032B     		cmp	r3, #3
 400 002c EFD1     		bne	.L107
 401              	.L117:
 402 002e 2379     		ldrb	r3, [r4, #4]	@ zero_extendqisi2
 403 0030 012B     		cmp	r3, #1
 404 0032 ECD1     		bne	.L107
 405 0034 04F13401 		add	r1, r4, #52
 406 0038 04F50D72 		add	r2, r4, #564
 407 003c 0025     		movs	r5, #0
 408 003e 0B46     		mov	r3, r1
 409              	.L110:
 410 0040 03F8015B 		strb	r5, [r3], #1
 411 0044 9A42     		cmp	r2, r3
 412 0046 FBD1     		bne	.L110
ARM GAS  /var/folders/lg/77ksxqjx0n7gwph6nqpzcmcw0000gn/T//ccz0FbIE.s 			page 8


 413 0048 6069     		ldr	r0, [r4, #20]
 414 004a 5526     		movs	r6, #85
 415 004c 2369     		ldr	r3, [r4, #16]
 416 004e 070A     		lsrs	r7, r0, #8
 417 0050 84F81C02 		strb	r0, [r4, #540]
 418 0054 226A     		ldr	r2, [r4, #32]
 419 0056 84F81D72 		strb	r7, [r4, #541]
 420 005a 070C     		lsrs	r7, r0, #16
 421 005c 000E     		lsrs	r0, r0, #24
 422 005e 84F82032 		strb	r3, [r4, #544]
 423 0062 84F81E72 		strb	r7, [r4, #542]
 424 0066 1F0A     		lsrs	r7, r3, #8
 425 0068 84F81F02 		strb	r0, [r4, #543]
 426 006c 180C     		lsrs	r0, r3, #16
 427 006e 1B0E     		lsrs	r3, r3, #24
 428 0070 0132     		adds	r2, r2, #1
 429 0072 84F82202 		strb	r0, [r4, #546]
 430 0076 AA20     		movs	r0, #170
 431 0078 84F82172 		strb	r7, [r4, #545]
 432 007c 6127     		movs	r7, #97
 433 007e 84F82332 		strb	r3, [r4, #547]
 434 0082 5223     		movs	r3, #82
 435 0084 84F83262 		strb	r6, [r4, #562]
 436 0088 4126     		movs	r6, #65
 437 008a 84F83302 		strb	r0, [r4, #563]
 438 008e 7220     		movs	r0, #114
 439 0090 84F83430 		strb	r3, [r4, #52]
 440 0094 84F83530 		strb	r3, [r4, #53]
 441 0098 0123     		movs	r3, #1
 442 009a 84F81802 		strb	r0, [r4, #536]
 443 009e 84F81902 		strb	r0, [r4, #537]
 444 00a2 2263     		str	r2, [r4, #48]
 445 00a4 6078     		ldrb	r0, [r4, #1]	@ zero_extendqisi2
 446 00a6 84F83670 		strb	r7, [r4, #54]
 447 00aa 84F81B72 		strb	r7, [r4, #539]
 448 00ae 84F83760 		strb	r6, [r4, #55]
 449 00b2 84F81A62 		strb	r6, [r4, #538]
 450 00b6 FFF7FEFF 		bl	disk_write
 451 00ba 2571     		strb	r5, [r4, #4]
 452 00bc A7E7     		b	.L107
 454 00be 00BF     		.section	.text.move_window.part.0,"ax",%progbits
 455              		.align	1
 456              		.p2align 2,,3
 457              		.syntax unified
 458              		.thumb
 459              		.thumb_func
 460              		.fpu fpv5-d16
 462              	move_window.part.0:
 463              		@ args = 0, pretend = 0, frame = 0
 464              		@ frame_needed = 0, uses_anonymous_args = 0
 465 0000 38B5     		push	{r3, r4, r5, lr}
 466 0002 C378     		ldrb	r3, [r0, #3]	@ zero_extendqisi2
 467 0004 0446     		mov	r4, r0
 468 0006 0D46     		mov	r5, r1
 469 0008 63B9     		cbnz	r3, .L119
 470              	.L121:
 471 000a 0123     		movs	r3, #1
ARM GAS  /var/folders/lg/77ksxqjx0n7gwph6nqpzcmcw0000gn/T//ccz0FbIE.s 			page 9


 472 000c 2A46     		mov	r2, r5
 473 000e 04F13401 		add	r1, r4, #52
 474 0012 6078     		ldrb	r0, [r4, #1]	@ zero_extendqisi2
 475 0014 FFF7FEFF 		bl	disk_read
 476 0018 10B1     		cbz	r0, .L120
 477 001a 0120     		movs	r0, #1
 478 001c 4FF0FF35 		mov	r5, #-1
 479              	.L120:
 480 0020 2563     		str	r5, [r4, #48]
 481 0022 38BD     		pop	{r3, r4, r5, pc}
 482              	.L119:
 483 0024 FFF7FEFF 		bl	sync_window.part.0
 484 0028 0028     		cmp	r0, #0
 485 002a EED0     		beq	.L121
 486 002c 38BD     		pop	{r3, r4, r5, pc}
 488 002e 00BF     		.section	.text.check_fs,"ax",%progbits
 489              		.align	1
 490              		.p2align 2,,3
 491              		.syntax unified
 492              		.thumb
 493              		.thumb_func
 494              		.fpu fpv5-d16
 496              	check_fs:
 497              		@ args = 0, pretend = 0, frame = 0
 498              		@ frame_needed = 0, uses_anonymous_args = 0
 499 0000 4FF0FF33 		mov	r3, #-1
 500 0004 0022     		movs	r2, #0
 501 0006 9942     		cmp	r1, r3
 502 0008 10B5     		push	{r4, lr}
 503 000a 0446     		mov	r4, r0
 504 000c C270     		strb	r2, [r0, #3]
 505 000e 0363     		str	r3, [r0, #48]
 506 0010 02D0     		beq	.L134
 507 0012 FFF7FEFF 		bl	move_window.part.0
 508 0016 B0BB     		cbnz	r0, .L146
 509              	.L134:
 510 0018 94F83312 		ldrb	r1, [r4, #563]	@ zero_extendqisi2
 511 001c 4AF65522 		movw	r2, #43605
 512 0020 94F83232 		ldrb	r3, [r4, #562]	@ zero_extendqisi2
 513 0024 43EA0123 		orr	r3, r3, r1, lsl #8
 514 0028 9342     		cmp	r3, r2
 515 002a 2AD1     		bne	.L147
 516 002c 94F83430 		ldrb	r3, [r4, #52]	@ zero_extendqisi2
 517 0030 E92B     		cmp	r3, #233
 518 0032 07D0     		beq	.L135
 519 0034 636B     		ldr	r3, [r4, #52]
 520 0036 164A     		ldr	r2, .L148
 521 0038 03F0FF13 		and	r3, r3, #16711935
 522 003c 9342     		cmp	r3, r2
 523 003e 01D0     		beq	.L135
 524 0040 0220     		movs	r0, #2
 525 0042 10BD     		pop	{r4, pc}
 526              	.L135:
 527 0044 B4F86C10 		ldrh	r1, [r4, #108]	@ unaligned
 528 0048 94F86B20 		ldrb	r2, [r4, #107]	@ zero_extendqisi2
 529 004c 94F86A30 		ldrb	r3, [r4, #106]	@ zero_extendqisi2
 530 0050 42EA0122 		orr	r2, r2, r1, lsl #8
ARM GAS  /var/folders/lg/77ksxqjx0n7gwph6nqpzcmcw0000gn/T//ccz0FbIE.s 			page 10


 531 0054 0F49     		ldr	r1, .L148+4
 532 0056 43EA0223 		orr	r3, r3, r2, lsl #8
 533 005a 23F07F43 		bic	r3, r3, #-16777216
 534 005e 8B42     		cmp	r3, r1
 535 0060 13D0     		beq	.L139
 536 0062 B4F88820 		ldrh	r2, [r4, #136]	@ unaligned
 537 0066 94F88730 		ldrb	r3, [r4, #135]	@ zero_extendqisi2
 538 006a 94F88600 		ldrb	r0, [r4, #134]	@ zero_extendqisi2
 539 006e 43EA0223 		orr	r3, r3, r2, lsl #8
 540 0072 094A     		ldr	r2, .L148+8
 541 0074 40EA0320 		orr	r0, r0, r3, lsl #8
 542 0078 9042     		cmp	r0, r2
 543 007a 14BF     		ite	ne
 544 007c 0220     		movne	r0, #2
 545 007e 0020     		moveq	r0, #0
 546 0080 10BD     		pop	{r4, pc}
 547              	.L147:
 548 0082 0320     		movs	r0, #3
 549 0084 10BD     		pop	{r4, pc}
 550              	.L146:
 551 0086 0420     		movs	r0, #4
 552 0088 10BD     		pop	{r4, pc}
 553              	.L139:
 554 008a 0020     		movs	r0, #0
 555 008c 10BD     		pop	{r4, pc}
 556              	.L149:
 557 008e 00BF     		.align	2
 558              	.L148:
 559 0090 EB009000 		.word	9437419
 560 0094 46415400 		.word	5521734
 561 0098 46415433 		.word	861159750
 563              		.section	.text.find_volume,"ax",%progbits
 564              		.align	1
 565              		.p2align 2,,3
 566              		.syntax unified
 567              		.thumb
 568              		.thumb_func
 569              		.fpu fpv5-d16
 571              	find_volume:
 572              		@ args = 0, pretend = 0, frame = 16
 573              		@ frame_needed = 0, uses_anonymous_args = 0
 574 0000 0023     		movs	r3, #0
 575 0002 2DE9F041 		push	{r4, r5, r6, r7, r8, lr}
 576 0006 0B60     		str	r3, [r1]
 577 0008 84B0     		sub	sp, sp, #16
 578 000a 0F46     		mov	r7, r1
 579 000c 1546     		mov	r5, r2
 580 000e FFF7FEFF 		bl	get_ldnumber
 581 0012 061E     		subs	r6, r0, #0
 582 0014 C0F2FA80 		blt	.L181
 583 0018 C74B     		ldr	r3, .L230
 584 001a 53F82640 		ldr	r4, [r3, r6, lsl #2]
 585 001e 002C     		cmp	r4, #0
 586 0020 00F00281 		beq	.L182
 587 0024 3C60     		str	r4, [r7]
 588 0026 05F0FE05 		and	r5, r5, #254
 589 002a 2378     		ldrb	r3, [r4]	@ zero_extendqisi2
ARM GAS  /var/folders/lg/77ksxqjx0n7gwph6nqpzcmcw0000gn/T//ccz0FbIE.s 			page 11


 590 002c 83B1     		cbz	r3, .L152
 591 002e 6078     		ldrb	r0, [r4, #1]	@ zero_extendqisi2
 592 0030 FFF7FEFF 		bl	disk_status
 593 0034 C107     		lsls	r1, r0, #31
 594 0036 0BD4     		bmi	.L152
 595 0038 002D     		cmp	r5, #0
 596 003a 00F0DE80 		beq	.L190
 597 003e 10F00405 		ands	r5, r0, #4
 598 0042 00F0DA80 		beq	.L190
 599              	.L154:
 600 0046 0A25     		movs	r5, #10
 601 0048 2846     		mov	r0, r5
 602 004a 04B0     		add	sp, sp, #16
 603              		@ sp needed
 604 004c BDE8F081 		pop	{r4, r5, r6, r7, r8, pc}
 605              	.L152:
 606 0050 F0B2     		uxtb	r0, r6
 607 0052 0023     		movs	r3, #0
 608 0054 6070     		strb	r0, [r4, #1]
 609 0056 2370     		strb	r3, [r4]
 610 0058 FFF7FEFF 		bl	disk_initialize
 611 005c C207     		lsls	r2, r0, #31
 612 005e 00F1D080 		bmi	.L183
 613 0062 0DB1     		cbz	r5, .L153
 614 0064 4307     		lsls	r3, r0, #29
 615 0066 EED4     		bmi	.L154
 616              	.L153:
 617 0068 0021     		movs	r1, #0
 618 006a 2046     		mov	r0, r4
 619 006c FFF7FEFF 		bl	check_fs
 620 0070 0228     		cmp	r0, #2
 621 0072 00F0A280 		beq	.L226
 622 0076 0428     		cmp	r0, #4
 623 0078 00F0CD80 		beq	.L189
 624 007c 0128     		cmp	r0, #1
 625 007e 00F2BB80 		bhi	.L162
 626 0082 0026     		movs	r6, #0
 627              	.L159:
 628 0084 94F84020 		ldrb	r2, [r4, #64]	@ zero_extendqisi2
 629 0088 94F83F30 		ldrb	r3, [r4, #63]	@ zero_extendqisi2
 630 008c 43EA0223 		orr	r3, r3, r2, lsl #8
 631 0090 B3F5007F 		cmp	r3, #512
 632 0094 40F0B080 		bne	.L162
 633 0098 94F84B20 		ldrb	r2, [r4, #75]	@ zero_extendqisi2
 634 009c 94F84A30 		ldrb	r3, [r4, #74]	@ zero_extendqisi2
 635 00a0 53EA0223 		orrs	r3, r3, r2, lsl #8
 636 00a4 09D1     		bne	.L164
 637 00a6 B4F85A10 		ldrh	r1, [r4, #90]	@ unaligned
 638 00aa 94F85930 		ldrb	r3, [r4, #89]	@ zero_extendqisi2
 639 00ae 94F85820 		ldrb	r2, [r4, #88]	@ zero_extendqisi2
 640 00b2 43EA0123 		orr	r3, r3, r1, lsl #8
 641 00b6 42EA0323 		orr	r3, r2, r3, lsl #8
 642              	.L164:
 643 00ba 94F84420 		ldrb	r2, [r4, #68]	@ zero_extendqisi2
 644 00be E361     		str	r3, [r4, #28]
 645 00c0 511E     		subs	r1, r2, #1
 646 00c2 A270     		strb	r2, [r4, #2]
ARM GAS  /var/folders/lg/77ksxqjx0n7gwph6nqpzcmcw0000gn/T//ccz0FbIE.s 			page 12


 647 00c4 0129     		cmp	r1, #1
 648 00c6 00F29780 		bhi	.L162
 649 00ca 94F84170 		ldrb	r7, [r4, #65]	@ zero_extendqisi2
 650 00ce B9B2     		uxth	r1, r7
 651 00d0 6181     		strh	r1, [r4, #10]	@ movhi
 652 00d2 0029     		cmp	r1, #0
 653 00d4 00F09080 		beq	.L162
 654 00d8 791E     		subs	r1, r7, #1
 655 00da 3942     		tst	r1, r7
 656 00dc 40F08C80 		bne	.L162
 657 00e0 94F84600 		ldrb	r0, [r4, #70]	@ zero_extendqisi2
 658 00e4 94F84510 		ldrb	r1, [r4, #69]	@ zero_extendqisi2
 659 00e8 41EA0021 		orr	r1, r1, r0, lsl #8
 660 00ec 11F00F0F 		tst	r1, #15
 661 00f0 8C46     		mov	ip, r1
 662 00f2 0DB2     		sxth	r5, r1
 663 00f4 2181     		strh	r1, [r4, #8]	@ movhi
 664 00f6 7FD1     		bne	.L162
 665 00f8 94F84800 		ldrb	r0, [r4, #72]	@ zero_extendqisi2
 666 00fc 94F84710 		ldrb	r1, [r4, #71]	@ zero_extendqisi2
 667 0100 51EA0021 		orrs	r1, r1, r0, lsl #8
 668 0104 09D1     		bne	.L166
 669 0106 B4F856E0 		ldrh	lr, [r4, #86]	@ unaligned
 670 010a 94F85500 		ldrb	r0, [r4, #85]	@ zero_extendqisi2
 671 010e 94F85410 		ldrb	r1, [r4, #84]	@ zero_extendqisi2
 672 0112 40EA0E20 		orr	r0, r0, lr, lsl #8
 673 0116 41EA0021 		orr	r1, r1, r0, lsl #8
 674              	.L166:
 675 011a 94F843E0 		ldrb	lr, [r4, #67]	@ zero_extendqisi2
 676 011e 94F84200 		ldrb	r0, [r4, #66]	@ zero_extendqisi2
 677 0122 50EA0E20 		orrs	r0, r0, lr, lsl #8
 678 0126 67D0     		beq	.L162
 679 0128 03FB02F2 		mul	r2, r3, r2
 680 012c 00EB1C1E 		add	lr, r0, ip, lsr #4
 681 0130 9644     		add	lr, lr, r2
 682 0132 7145     		cmp	r1, lr
 683 0134 60D3     		bcc	.L162
 684 0136 A1EB0E01 		sub	r1, r1, lr
 685 013a B942     		cmp	r1, r7
 686 013c B1FBF7F8 		udiv	r8, r1, r7
 687 0140 5AD3     		bcc	.L162
 688 0142 4FF6F571 		movw	r1, #65525
 689 0146 8845     		cmp	r8, r1
 690 0148 70D8     		bhi	.L167
 691 014a 40F6F571 		movw	r1, #4085
 692 014e 3044     		add	r0, r0, r6
 693 0150 0EEB0605 		add	r5, lr, r6
 694 0154 2662     		str	r6, [r4, #32]
 695 0156 8845     		cmp	r8, r1
 696 0158 08F10201 		add	r1, r8, #2
 697 015c 6062     		str	r0, [r4, #36]
 698 015e A161     		str	r1, [r4, #24]
 699 0160 E562     		str	r5, [r4, #44]
 700 0162 00F29B80 		bhi	.L168
 701 0166 BCF1000F 		cmp	ip, #0
 702 016a 45D0     		beq	.L162
 703 016c 1044     		add	r0, r0, r2
ARM GAS  /var/folders/lg/77ksxqjx0n7gwph6nqpzcmcw0000gn/T//ccz0FbIE.s 			page 13


 704 016e 01EB4106 		add	r6, r1, r1, lsl #1
 705 0172 01F00102 		and	r2, r1, #1
 706 0176 0125     		movs	r5, #1
 707 0178 A062     		str	r0, [r4, #40]
 708 017a 02EB5602 		add	r2, r2, r6, lsr #1
 709              	.L180:
 710 017e 02F2FF12 		addw	r2, r2, #511
 711 0182 B3EB522F 		cmp	r3, r2, lsr #9
 712 0186 37D3     		bcc	.L162
 713 0188 4FF0FF33 		mov	r3, #-1
 714 018c 8022     		movs	r2, #128
 715 018e C4E90433 		strd	r3, r3, [r4, #16]
 716 0192 2271     		strb	r2, [r4, #4]
 717              	.L176:
 718 0194 6949     		ldr	r1, .L230+4
 719 0196 6A4A     		ldr	r2, .L230+8
 720 0198 0B88     		ldrh	r3, [r1]
 721 019a 1068     		ldr	r0, [r2]
 722 019c 0133     		adds	r3, r3, #1
 723 019e 2570     		strb	r5, [r4]
 724 01a0 8442     		cmp	r4, r0
 725 01a2 684D     		ldr	r5, .L230+12
 726 01a4 9BB2     		uxth	r3, r3
 727 01a6 E560     		str	r5, [r4, #12]
 728 01a8 0B80     		strh	r3, [r1]	@ movhi
 729 01aa E380     		strh	r3, [r4, #6]	@ movhi
 730 01ac 73D0     		beq	.L227
 731              	.L177:
 732 01ae 1369     		ldr	r3, [r2, #16]
 733 01b0 0025     		movs	r5, #0
 734 01b2 9C42     		cmp	r4, r3
 735 01b4 21D1     		bne	.L190
 736 01b6 1561     		str	r5, [r2, #16]
 737 01b8 1FE0     		b	.L190
 738              	.L226:
 739 01ba 6D46     		mov	r5, sp
 740 01bc 04F5F973 		add	r3, r4, #498
 741 01c0 04F23226 		addw	r6, r4, #562
 742 01c4 2846     		mov	r0, r5
 743              	.L157:
 744 01c6 1979     		ldrb	r1, [r3, #4]	@ zero_extendqisi2
 745 01c8 0A46     		mov	r2, r1
 746 01ca 31B1     		cbz	r1, .L156
 747 01cc 5F89     		ldrh	r7, [r3, #10]	@ unaligned
 748 01ce 597A     		ldrb	r1, [r3, #9]	@ zero_extendqisi2
 749 01d0 1A7A     		ldrb	r2, [r3, #8]	@ zero_extendqisi2
 750 01d2 41EA0721 		orr	r1, r1, r7, lsl #8
 751 01d6 42EA0122 		orr	r2, r2, r1, lsl #8
 752              	.L156:
 753 01da 1033     		adds	r3, r3, #16
 754 01dc 40F8042B 		str	r2, [r0], #4
 755 01e0 B342     		cmp	r3, r6
 756 01e2 F0D1     		bne	.L157
 757 01e4 05F11007 		add	r7, r5, #16
 758              	.L160:
 759 01e8 55F8046B 		ldr	r6, [r5], #4
 760 01ec 0320     		movs	r0, #3
ARM GAS  /var/folders/lg/77ksxqjx0n7gwph6nqpzcmcw0000gn/T//ccz0FbIE.s 			page 14


 761 01ee A6B9     		cbnz	r6, .L228
 762              	.L158:
 763 01f0 AF42     		cmp	r7, r5
 764 01f2 F9D1     		bne	.L160
 765 01f4 0428     		cmp	r0, #4
 766 01f6 0ED0     		beq	.L189
 767              	.L162:
 768 01f8 0D25     		movs	r5, #13
 769              	.L190:
 770 01fa 2846     		mov	r0, r5
 771 01fc 04B0     		add	sp, sp, #16
 772              		@ sp needed
 773 01fe BDE8F081 		pop	{r4, r5, r6, r7, r8, pc}
 774              	.L183:
 775 0202 0325     		movs	r5, #3
 776 0204 2846     		mov	r0, r5
 777 0206 04B0     		add	sp, sp, #16
 778              		@ sp needed
 779 0208 BDE8F081 		pop	{r4, r5, r6, r7, r8, pc}
 780              	.L181:
 781 020c 0B25     		movs	r5, #11
 782 020e 2846     		mov	r0, r5
 783 0210 04B0     		add	sp, sp, #16
 784              		@ sp needed
 785 0212 BDE8F081 		pop	{r4, r5, r6, r7, r8, pc}
 786              	.L189:
 787 0216 0125     		movs	r5, #1
 788 0218 EFE7     		b	.L190
 789              	.L228:
 790 021a 3146     		mov	r1, r6
 791 021c 2046     		mov	r0, r4
 792 021e FFF7FEFF 		bl	check_fs
 793 0222 0128     		cmp	r0, #1
 794 0224 E4D8     		bhi	.L158
 795 0226 2DE7     		b	.L159
 796              	.L182:
 797 0228 0C25     		movs	r5, #12
 798 022a E6E7     		b	.L190
 799              	.L167:
 800 022c 94F85FC0 		ldrb	ip, [r4, #95]	@ zero_extendqisi2
 801 0230 0EEB0601 		add	r1, lr, r6
 802 0234 94F85E70 		ldrb	r7, [r4, #94]	@ zero_extendqisi2
 803 0238 08F10202 		add	r2, r8, #2
 804 023c E162     		str	r1, [r4, #44]
 805 023e 3044     		add	r0, r0, r6
 806 0240 47EA0C27 		orr	r7, r7, ip, lsl #8
 807 0244 A261     		str	r2, [r4, #24]
 808 0246 6062     		str	r0, [r4, #36]
 809 0248 45EA0701 		orr	r1, r5, r7
 810 024c 2662     		str	r6, [r4, #32]
 811 024e 09B2     		sxth	r1, r1
 812 0250 0029     		cmp	r1, #0
 813 0252 D1D1     		bne	.L162
 814 0254 B4F86250 		ldrh	r5, [r4, #98]	@ unaligned
 815 0258 9200     		lsls	r2, r2, #2
 816 025a 94F86100 		ldrb	r0, [r4, #97]	@ zero_extendqisi2
 817 025e 94F86010 		ldrb	r1, [r4, #96]	@ zero_extendqisi2
ARM GAS  /var/folders/lg/77ksxqjx0n7gwph6nqpzcmcw0000gn/T//ccz0FbIE.s 			page 15


 818 0262 02F2FF12 		addw	r2, r2, #511
 819 0266 40EA0520 		orr	r0, r0, r5, lsl #8
 820 026a B3EB522F 		cmp	r3, r2, lsr #9
 821 026e 41EA0021 		orr	r1, r1, r0, lsl #8
 822 0272 A162     		str	r1, [r4, #40]
 823 0274 C0D3     		bcc	.L162
 824 0276 94F86500 		ldrb	r0, [r4, #101]	@ zero_extendqisi2
 825 027a 4FF0FF32 		mov	r2, #-1
 826 027e 94F86430 		ldrb	r3, [r4, #100]	@ zero_extendqisi2
 827 0282 8021     		movs	r1, #128
 828 0284 6261     		str	r2, [r4, #20]
 829 0286 43EA0023 		orr	r3, r3, r0, lsl #8
 830 028a 2261     		str	r2, [r4, #16]
 831 028c 2171     		strb	r1, [r4, #4]
 832 028e 012B     		cmp	r3, #1
 833 0290 0CD0     		beq	.L229
 834              	.L174:
 835 0292 0325     		movs	r5, #3
 836 0294 7EE7     		b	.L176
 837              	.L227:
 838 0296 0023     		movs	r3, #0
 839 0298 1360     		str	r3, [r2]
 840 029a 88E7     		b	.L177
 841              	.L168:
 842 029c BCF1000F 		cmp	ip, #0
 843 02a0 AAD0     		beq	.L162
 844 02a2 1044     		add	r0, r0, r2
 845 02a4 0225     		movs	r5, #2
 846 02a6 4A00     		lsls	r2, r1, #1
 847 02a8 A062     		str	r0, [r4, #40]
 848 02aa 68E7     		b	.L180
 849              	.L229:
 850 02ac 711C     		adds	r1, r6, #1
 851 02ae 236B     		ldr	r3, [r4, #48]
 852 02b0 9942     		cmp	r1, r3
 853 02b2 04D0     		beq	.L175
 854 02b4 2046     		mov	r0, r4
 855 02b6 FFF7FEFF 		bl	move_window.part.0
 856 02ba 0028     		cmp	r0, #0
 857 02bc E9D1     		bne	.L174
 858              	.L175:
 859 02be 94F83312 		ldrb	r1, [r4, #563]	@ zero_extendqisi2
 860 02c2 4AF65522 		movw	r2, #43605
 861 02c6 94F83232 		ldrb	r3, [r4, #562]	@ zero_extendqisi2
 862 02ca 0020     		movs	r0, #0
 863 02cc 43EA0123 		orr	r3, r3, r1, lsl #8
 864 02d0 2071     		strb	r0, [r4, #4]
 865 02d2 9342     		cmp	r3, r2
 866 02d4 DDD1     		bne	.L174
 867 02d6 E18E     		ldrh	r1, [r4, #54]	@ unaligned
 868 02d8 94F83520 		ldrb	r2, [r4, #53]	@ zero_extendqisi2
 869 02dc 94F83430 		ldrb	r3, [r4, #52]	@ zero_extendqisi2
 870 02e0 42EA0122 		orr	r2, r2, r1, lsl #8
 871 02e4 1849     		ldr	r1, .L230+16
 872 02e6 43EA0223 		orr	r3, r3, r2, lsl #8
 873 02ea 8B42     		cmp	r3, r1
 874 02ec D1D1     		bne	.L174
ARM GAS  /var/folders/lg/77ksxqjx0n7gwph6nqpzcmcw0000gn/T//ccz0FbIE.s 			page 16


 875 02ee B4F81A12 		ldrh	r1, [r4, #538]	@ unaligned
 876 02f2 94F81922 		ldrb	r2, [r4, #537]	@ zero_extendqisi2
 877 02f6 94F81832 		ldrb	r3, [r4, #536]	@ zero_extendqisi2
 878 02fa 42EA0122 		orr	r2, r2, r1, lsl #8
 879 02fe 1349     		ldr	r1, .L230+20
 880 0300 43EA0223 		orr	r3, r3, r2, lsl #8
 881 0304 8B42     		cmp	r3, r1
 882 0306 C4D1     		bne	.L174
 883 0308 94F81D22 		ldrb	r2, [r4, #541]	@ zero_extendqisi2
 884 030c 0325     		movs	r5, #3
 885 030e 94F82132 		ldrb	r3, [r4, #545]	@ zero_extendqisi2
 886 0312 B4F81E02 		ldrh	r0, [r4, #542]	@ unaligned
 887 0316 B4F82212 		ldrh	r1, [r4, #546]	@ unaligned
 888 031a 42EA0020 		orr	r0, r2, r0, lsl #8
 889 031e 94F81C22 		ldrb	r2, [r4, #540]	@ zero_extendqisi2
 890 0322 43EA0121 		orr	r1, r3, r1, lsl #8
 891 0326 94F82032 		ldrb	r3, [r4, #544]	@ zero_extendqisi2
 892 032a 42EA0022 		orr	r2, r2, r0, lsl #8
 893 032e 43EA0123 		orr	r3, r3, r1, lsl #8
 894 0332 C4E90432 		strd	r3, r2, [r4, #16]
 895 0336 2DE7     		b	.L176
 896              	.L231:
 897              		.align	2
 898              	.L230:
 899 0338 00000000 		.word	.LANCHOR1
 900 033c 00000000 		.word	.LANCHOR2
 901 0340 00000000 		.word	.LANCHOR0
 902 0344 00000000 		.word	.LANCHOR3
 903 0348 52526141 		.word	1096897106
 904 034c 72724161 		.word	1631679090
 906              		.section	.text.put_fat.part.0,"ax",%progbits
 907              		.align	1
 908              		.p2align 2,,3
 909              		.syntax unified
 910              		.thumb
 911              		.thumb_func
 912              		.fpu fpv5-d16
 914              	put_fat.part.0:
 915              		@ args = 0, pretend = 0, frame = 0
 916              		@ frame_needed = 0, uses_anonymous_args = 0
 917 0000 2DE9F843 		push	{r3, r4, r5, r6, r7, r8, r9, lr}
 918 0004 0378     		ldrb	r3, [r0]	@ zero_extendqisi2
 919 0006 0446     		mov	r4, r0
 920 0008 0D46     		mov	r5, r1
 921 000a 1646     		mov	r6, r2
 922 000c 022B     		cmp	r3, #2
 923 000e 06D0     		beq	.L233
 924 0010 032B     		cmp	r3, #3
 925 0012 52D0     		beq	.L234
 926 0014 012B     		cmp	r3, #1
 927 0016 1BD0     		beq	.L264
 928 0018 0220     		movs	r0, #2
 929              	.L254:
 930 001a BDE8F883 		pop	{r3, r4, r5, r6, r7, r8, r9, pc}
 931              	.L233:
 932 001e 416A     		ldr	r1, [r0, #36]
 933 0020 036B     		ldr	r3, [r0, #48]
ARM GAS  /var/folders/lg/77ksxqjx0n7gwph6nqpzcmcw0000gn/T//ccz0FbIE.s 			page 17


 934 0022 01EB1521 		add	r1, r1, r5, lsr #8
 935 0026 9942     		cmp	r1, r3
 936 0028 03D0     		beq	.L246
 937 002a FFF7FEFF 		bl	move_window.part.0
 938 002e 0028     		cmp	r0, #0
 939 0030 F3D1     		bne	.L254
 940              	.L246:
 941 0032 6D00     		lsls	r5, r5, #1
 942 0034 04F13403 		add	r3, r4, #52
 943 0038 C6F30721 		ubfx	r1, r6, #8, #8
 944 003c 0122     		movs	r2, #1
 945 003e 05F4FF75 		and	r5, r5, #510
 946 0042 0020     		movs	r0, #0
 947 0044 5E55     		strb	r6, [r3, r5]
 948 0046 2B44     		add	r3, r3, r5
 949 0048 5970     		strb	r1, [r3, #1]
 950 004a E270     		strb	r2, [r4, #3]
 951 004c BDE8F883 		pop	{r3, r4, r5, r6, r7, r8, r9, pc}
 952              	.L264:
 953 0050 01EB5107 		add	r7, r1, r1, lsr #1
 954 0054 416A     		ldr	r1, [r0, #36]
 955 0056 036B     		ldr	r3, [r0, #48]
 956 0058 01EB5721 		add	r1, r1, r7, lsr #9
 957 005c 9942     		cmp	r1, r3
 958 005e 03D0     		beq	.L239
 959 0060 FFF7FEFF 		bl	move_window.part.0
 960 0064 0028     		cmp	r0, #0
 961 0066 D8D1     		bne	.L254
 962              	.L239:
 963 0068 EB07     		lsls	r3, r5, #31
 964 006a 07F10108 		add	r8, r7, #1
 965 006e 04F13409 		add	r9, r4, #52
 966 0072 C7F30807 		ubfx	r7, r7, #0, #9
 967 0076 45D5     		bpl	.L265
 968 0078 19F80730 		ldrb	r3, [r9, r7]	@ zero_extendqisi2
 969 007c 0122     		movs	r2, #1
 970 007e 03F00F03 		and	r3, r3, #15
 971 0082 43EA0613 		orr	r3, r3, r6, lsl #4
 972 0086 09F80730 		strb	r3, [r9, r7]
 973 008a 616A     		ldr	r1, [r4, #36]
 974 008c 236B     		ldr	r3, [r4, #48]
 975 008e 01EB5821 		add	r1, r1, r8, lsr #9
 976 0092 E270     		strb	r2, [r4, #3]
 977 0094 9942     		cmp	r1, r3
 978 0096 04D0     		beq	.L261
 979 0098 2046     		mov	r0, r4
 980 009a FFF7FEFF 		bl	move_window.part.0
 981 009e 0028     		cmp	r0, #0
 982 00a0 BBD1     		bne	.L254
 983              	.L261:
 984 00a2 C8F30808 		ubfx	r8, r8, #0, #9
 985 00a6 C6F30712 		ubfx	r2, r6, #4, #8
 986 00aa C844     		add	r8, r8, r9
 987              	.L244:
 988 00ac 0123     		movs	r3, #1
 989 00ae 88F80020 		strb	r2, [r8]
 990 00b2 0020     		movs	r0, #0
ARM GAS  /var/folders/lg/77ksxqjx0n7gwph6nqpzcmcw0000gn/T//ccz0FbIE.s 			page 18


 991 00b4 E370     		strb	r3, [r4, #3]
 992 00b6 BDE8F883 		pop	{r3, r4, r5, r6, r7, r8, r9, pc}
 993              	.L234:
 994 00ba 416A     		ldr	r1, [r0, #36]
 995 00bc 036B     		ldr	r3, [r0, #48]
 996 00be 01EBD511 		add	r1, r1, r5, lsr #7
 997 00c2 9942     		cmp	r1, r3
 998 00c4 03D0     		beq	.L248
 999 00c6 FFF7FEFF 		bl	move_window.part.0
 1000 00ca 0028     		cmp	r0, #0
 1001 00cc A5D1     		bne	.L254
 1002              	.L248:
 1003 00ce AD00     		lsls	r5, r5, #2
 1004 00d0 04F13401 		add	r1, r4, #52
 1005 00d4 26F07042 		bic	r2, r6, #-268435456
 1006 00d8 4FF0010C 		mov	ip, #1
 1007 00dc 05F4FE75 		and	r5, r5, #508
 1008 00e0 0020     		movs	r0, #0
 1009 00e2 4F19     		adds	r7, r1, r5
 1010 00e4 7B88     		ldrh	r3, [r7, #2]	@ unaligned
 1011 00e6 1B04     		lsls	r3, r3, #16
 1012 00e8 03F07043 		and	r3, r3, #-268435456
 1013 00ec 1343     		orrs	r3, r3, r2
 1014 00ee 4B55     		strb	r3, [r1, r5]
 1015 00f0 1A0C     		lsrs	r2, r3, #16
 1016 00f2 190A     		lsrs	r1, r3, #8
 1017 00f4 1B0E     		lsrs	r3, r3, #24
 1018 00f6 BA70     		strb	r2, [r7, #2]
 1019 00f8 7970     		strb	r1, [r7, #1]
 1020 00fa FB70     		strb	r3, [r7, #3]
 1021 00fc 84F803C0 		strb	ip, [r4, #3]
 1022 0100 BDE8F883 		pop	{r3, r4, r5, r6, r7, r8, r9, pc}
 1023              	.L265:
 1024 0104 09F80760 		strb	r6, [r9, r7]
 1025 0108 0122     		movs	r2, #1
 1026 010a 616A     		ldr	r1, [r4, #36]
 1027 010c 236B     		ldr	r3, [r4, #48]
 1028 010e 01EB5821 		add	r1, r1, r8, lsr #9
 1029 0112 E270     		strb	r2, [r4, #3]
 1030 0114 9942     		cmp	r1, r3
 1031 0116 05D0     		beq	.L262
 1032 0118 2046     		mov	r0, r4
 1033 011a FFF7FEFF 		bl	move_window.part.0
 1034 011e 0028     		cmp	r0, #0
 1035 0120 7FF47BAF 		bne	.L254
 1036              	.L262:
 1037 0124 C8F30808 		ubfx	r8, r8, #0, #9
 1038 0128 C6F30322 		ubfx	r2, r6, #8, #4
 1039 012c C844     		add	r8, r8, r9
 1040 012e 98F80010 		ldrb	r1, [r8]	@ zero_extendqisi2
 1041 0132 21F00F06 		bic	r6, r1, #15
 1042 0136 3243     		orrs	r2, r2, r6
 1043 0138 B8E7     		b	.L244
 1045 013a 00BF     		.section	.text.get_fat.isra.0,"ax",%progbits
 1046              		.align	1
 1047              		.p2align 2,,3
 1048              		.syntax unified
ARM GAS  /var/folders/lg/77ksxqjx0n7gwph6nqpzcmcw0000gn/T//ccz0FbIE.s 			page 19


 1049              		.thumb
 1050              		.thumb_func
 1051              		.fpu fpv5-d16
 1053              	get_fat.isra.0:
 1054              		@ args = 0, pretend = 0, frame = 0
 1055              		@ frame_needed = 0, uses_anonymous_args = 0
 1056 0000 0129     		cmp	r1, #1
 1057 0002 0ED9     		bls	.L281
 1058 0004 F8B5     		push	{r3, r4, r5, r6, r7, lr}
 1059 0006 8369     		ldr	r3, [r0, #24]
 1060 0008 0C46     		mov	r4, r1
 1061 000a 0546     		mov	r5, r0
 1062 000c 9942     		cmp	r1, r3
 1063 000e 06D2     		bcs	.L283
 1064 0010 0378     		ldrb	r3, [r0]	@ zero_extendqisi2
 1065 0012 022B     		cmp	r3, #2
 1066 0014 46D0     		beq	.L268
 1067 0016 032B     		cmp	r3, #3
 1068 0018 2CD0     		beq	.L269
 1069 001a 012B     		cmp	r3, #1
 1070 001c 03D0     		beq	.L289
 1071              	.L283:
 1072 001e 0120     		movs	r0, #1
 1073 0020 F8BD     		pop	{r3, r4, r5, r6, r7, pc}
 1074              	.L281:
 1075 0022 0120     		movs	r0, #1
 1076 0024 7047     		bx	lr
 1077              	.L289:
 1078 0026 01EB5107 		add	r7, r1, r1, lsr #1
 1079 002a 436A     		ldr	r3, [r0, #36]
 1080 002c 026B     		ldr	r2, [r0, #48]
 1081 002e 03EB5721 		add	r1, r3, r7, lsr #9
 1082 0032 9142     		cmp	r1, r2
 1083 0034 05D0     		beq	.L270
 1084 0036 FFF7FEFF 		bl	move_window.part.0
 1085 003a 0028     		cmp	r0, #0
 1086 003c 3BD1     		bne	.L275
 1087 003e 6B6A     		ldr	r3, [r5, #36]
 1088 0040 2A6B     		ldr	r2, [r5, #48]
 1089              	.L270:
 1090 0042 C7F30800 		ubfx	r0, r7, #0, #9
 1091 0046 0137     		adds	r7, r7, #1
 1092 0048 03EB5721 		add	r1, r3, r7, lsr #9
 1093 004c 2844     		add	r0, r0, r5
 1094 004e 9142     		cmp	r1, r2
 1095 0050 90F83460 		ldrb	r6, [r0, #52]	@ zero_extendqisi2
 1096 0054 03D0     		beq	.L276
 1097 0056 2846     		mov	r0, r5
 1098 0058 FFF7FEFF 		bl	move_window.part.0
 1099 005c 58BB     		cbnz	r0, .L275
 1100              	.L276:
 1101 005e C7F30807 		ubfx	r7, r7, #0, #9
 1102 0062 E307     		lsls	r3, r4, #31
 1103 0064 3D44     		add	r5, r5, r7
 1104 0066 95F83400 		ldrb	r0, [r5, #52]	@ zero_extendqisi2
 1105 006a 46EA0020 		orr	r0, r6, r0, lsl #8
 1106 006e 2FD5     		bpl	.L290
ARM GAS  /var/folders/lg/77ksxqjx0n7gwph6nqpzcmcw0000gn/T//ccz0FbIE.s 			page 20


 1107 0070 0009     		lsrs	r0, r0, #4
 1108 0072 F8BD     		pop	{r3, r4, r5, r6, r7, pc}
 1109              	.L269:
 1110 0074 416A     		ldr	r1, [r0, #36]
 1111 0076 036B     		ldr	r3, [r0, #48]
 1112 0078 01EBD411 		add	r1, r1, r4, lsr #7
 1113 007c 9942     		cmp	r1, r3
 1114 007e 02D0     		beq	.L280
 1115 0080 FFF7FEFF 		bl	move_window.part.0
 1116 0084 B8B9     		cbnz	r0, .L275
 1117              	.L280:
 1118 0086 A400     		lsls	r4, r4, #2
 1119 0088 3435     		adds	r5, r5, #52
 1120 008a 04F4FE74 		and	r4, r4, #508
 1121 008e 2A19     		adds	r2, r5, r4
 1122 0090 285D     		ldrb	r0, [r5, r4]	@ zero_extendqisi2
 1123 0092 5188     		ldrh	r1, [r2, #2]	@ unaligned
 1124 0094 5378     		ldrb	r3, [r2, #1]	@ zero_extendqisi2
 1125 0096 43EA0123 		orr	r3, r3, r1, lsl #8
 1126 009a 40EA0320 		orr	r0, r0, r3, lsl #8
 1127 009e 20F07040 		bic	r0, r0, #-268435456
 1128 00a2 F8BD     		pop	{r3, r4, r5, r6, r7, pc}
 1129              	.L268:
 1130 00a4 416A     		ldr	r1, [r0, #36]
 1131 00a6 036B     		ldr	r3, [r0, #48]
 1132 00a8 01EB1421 		add	r1, r1, r4, lsr #8
 1133 00ac 9942     		cmp	r1, r3
 1134 00ae 05D0     		beq	.L278
 1135 00b0 FFF7FEFF 		bl	move_window.part.0
 1136 00b4 10B1     		cbz	r0, .L278
 1137              	.L275:
 1138 00b6 4FF0FF30 		mov	r0, #-1
 1139 00ba F8BD     		pop	{r3, r4, r5, r6, r7, pc}
 1140              	.L278:
 1141 00bc 6400     		lsls	r4, r4, #1
 1142 00be 3435     		adds	r5, r5, #52
 1143 00c0 04F4FF74 		and	r4, r4, #510
 1144 00c4 2B19     		adds	r3, r5, r4
 1145 00c6 285D     		ldrb	r0, [r5, r4]	@ zero_extendqisi2
 1146 00c8 5B78     		ldrb	r3, [r3, #1]	@ zero_extendqisi2
 1147 00ca 40EA0320 		orr	r0, r0, r3, lsl #8
 1148 00ce F8BD     		pop	{r3, r4, r5, r6, r7, pc}
 1149              	.L290:
 1150 00d0 C0F30B00 		ubfx	r0, r0, #0, #12
 1151 00d4 F8BD     		pop	{r3, r4, r5, r6, r7, pc}
 1153 00d6 00BF     		.section	.text.dir_sdi,"ax",%progbits
 1154              		.align	1
 1155              		.p2align 2,,3
 1156              		.syntax unified
 1157              		.thumb
 1158              		.thumb_func
 1159              		.fpu fpv5-d16
 1161              	dir_sdi:
 1162              		@ args = 0, pretend = 0, frame = 0
 1163              		@ frame_needed = 0, uses_anonymous_args = 0
 1164 0000 B1F5001F 		cmp	r1, #2097152
 1165 0004 42D2     		bcs	.L310
ARM GAS  /var/folders/lg/77ksxqjx0n7gwph6nqpzcmcw0000gn/T//ccz0FbIE.s 			page 21


 1166 0006 CA06     		lsls	r2, r1, #27
 1167 0008 F8B5     		push	{r3, r4, r5, r6, r7, lr}
 1168 000a 0D46     		mov	r5, r1
 1169 000c 20D1     		bne	.L294
 1170 000e 8168     		ldr	r1, [r0, #8]
 1171 0010 0646     		mov	r6, r0
 1172 0012 0768     		ldr	r7, [r0]
 1173 0014 4561     		str	r5, [r0, #20]
 1174 0016 E9B1     		cbz	r1, .L311
 1175              	.L295:
 1176 0018 7B89     		ldrh	r3, [r7, #10]
 1177 001a B5EB432F 		cmp	r5, r3, lsl #9
 1178 001e 4FEA4324 		lsl	r4, r3, #9
 1179 0022 35D3     		bcc	.L298
 1180 0024 3846     		mov	r0, r7
 1181 0026 07E0     		b	.L300
 1182              	.L312:
 1183 0028 0128     		cmp	r0, #1
 1184 002a 11D9     		bls	.L294
 1185 002c BB69     		ldr	r3, [r7, #24]
 1186 002e 8342     		cmp	r3, r0
 1187 0030 0ED9     		bls	.L294
 1188 0032 AC42     		cmp	r4, r5
 1189 0034 2DD8     		bhi	.L299
 1190 0036 3068     		ldr	r0, [r6]
 1191              	.L300:
 1192 0038 FFF7FEFF 		bl	get_fat.isra.0
 1193 003c 431C     		adds	r3, r0, #1
 1194 003e A5EB0405 		sub	r5, r5, r4
 1195 0042 0146     		mov	r1, r0
 1196 0044 F0D1     		bne	.L312
 1197 0046 0120     		movs	r0, #1
 1198 0048 F8BD     		pop	{r3, r4, r5, r6, r7, pc}
 1199              	.L314:
 1200 004a 0023     		movs	r3, #0
 1201 004c C6E90613 		strd	r1, r3, [r6, #24]
 1202              	.L294:
 1203 0050 0220     		movs	r0, #2
 1204 0052 F8BD     		pop	{r3, r4, r5, r6, r7, pc}
 1205              	.L311:
 1206 0054 3B78     		ldrb	r3, [r7]	@ zero_extendqisi2
 1207 0056 022B     		cmp	r3, #2
 1208 0058 13D8     		bhi	.L313
 1209              	.L296:
 1210 005a 3B89     		ldrh	r3, [r7, #8]
 1211 005c B3EB551F 		cmp	r3, r5, lsr #5
 1212 0060 F6D9     		bls	.L294
 1213 0062 BA6A     		ldr	r2, [r7, #40]
 1214 0064 F261     		str	r2, [r6, #28]
 1215              	.L297:
 1216 0066 B161     		str	r1, [r6, #24]
 1217 0068 002A     		cmp	r2, #0
 1218 006a F1D0     		beq	.L294
 1219 006c C5F30801 		ubfx	r1, r5, #0, #9
 1220 0070 07F13403 		add	r3, r7, #52
 1221 0074 02EB5525 		add	r5, r2, r5, lsr #9
 1222 0078 0020     		movs	r0, #0
ARM GAS  /var/folders/lg/77ksxqjx0n7gwph6nqpzcmcw0000gn/T//ccz0FbIE.s 			page 22


 1223 007a 0B44     		add	r3, r3, r1
 1224 007c C6E90753 		strd	r5, r3, [r6, #28]
 1225 0080 F8BD     		pop	{r3, r4, r5, r6, r7, pc}
 1226              	.L313:
 1227 0082 BB6A     		ldr	r3, [r7, #40]
 1228 0084 002B     		cmp	r3, #0
 1229 0086 E8D0     		beq	.L296
 1230 0088 1946     		mov	r1, r3
 1231 008a C5E7     		b	.L295
 1232              	.L310:
 1233 008c 0220     		movs	r0, #2
 1234 008e 7047     		bx	lr
 1235              	.L298:
 1236 0090 BB69     		ldr	r3, [r7, #24]
 1237              	.L299:
 1238 0092 023B     		subs	r3, r3, #2
 1239 0094 881E     		subs	r0, r1, #2
 1240 0096 9842     		cmp	r0, r3
 1241 0098 D7D2     		bcs	.L314
 1242 009a 7A89     		ldrh	r2, [r7, #10]
 1243 009c FB6A     		ldr	r3, [r7, #44]
 1244 009e 00FB0232 		mla	r2, r0, r2, r3
 1245 00a2 F261     		str	r2, [r6, #28]
 1246 00a4 DFE7     		b	.L297
 1248 00a6 00BF     		.section	.text.create_chain,"ax",%progbits
 1249              		.align	1
 1250              		.p2align 2,,3
 1251              		.syntax unified
 1252              		.thumb
 1253              		.thumb_func
 1254              		.fpu fpv5-d16
 1256              	create_chain:
 1257              		@ args = 0, pretend = 0, frame = 0
 1258              		@ frame_needed = 0, uses_anonymous_args = 0
 1259 0000 2DE9F041 		push	{r4, r5, r6, r7, r8, lr}
 1260 0004 0546     		mov	r5, r0
 1261 0006 0F46     		mov	r7, r1
 1262 0008 0668     		ldr	r6, [r0]
 1263 000a 0029     		cmp	r1, #0
 1264 000c 51D1     		bne	.L316
 1265 000e D6F81080 		ldr	r8, [r6, #16]
 1266 0012 B369     		ldr	r3, [r6, #24]
 1267 0014 B8F1000F 		cmp	r8, #0
 1268 0018 3ED1     		bne	.L317
 1269 001a 4FF00108 		mov	r8, #1
 1270              	.L318:
 1271 001e 4446     		mov	r4, r8
 1272 0020 06E0     		b	.L325
 1273              	.L341:
 1274 0022 0128     		cmp	r0, #1
 1275 0024 40D0     		beq	.L315
 1276 0026 431C     		adds	r3, r0, #1
 1277 0028 3ED0     		beq	.L315
 1278 002a 4445     		cmp	r4, r8
 1279 002c 3ED0     		beq	.L324
 1280 002e B369     		ldr	r3, [r6, #24]
 1281              	.L325:
ARM GAS  /var/folders/lg/77ksxqjx0n7gwph6nqpzcmcw0000gn/T//ccz0FbIE.s 			page 23


 1282 0030 0134     		adds	r4, r4, #1
 1283 0032 9C42     		cmp	r4, r3
 1284 0034 04D3     		bcc	.L322
 1285 0036 B8F1010F 		cmp	r8, #1
 1286 003a 4FF00204 		mov	r4, #2
 1287 003e 35D9     		bls	.L324
 1288              	.L322:
 1289 0040 2146     		mov	r1, r4
 1290 0042 2868     		ldr	r0, [r5]
 1291 0044 FFF7FEFF 		bl	get_fat.isra.0
 1292 0048 0028     		cmp	r0, #0
 1293 004a EAD1     		bne	.L341
 1294 004c 012C     		cmp	r4, #1
 1295 004e 2AD9     		bls	.L326
 1296 0050 B369     		ldr	r3, [r6, #24]
 1297 0052 9C42     		cmp	r4, r3
 1298 0054 27D2     		bcs	.L326
 1299 0056 4FF0FF32 		mov	r2, #-1
 1300 005a 2146     		mov	r1, r4
 1301 005c 3046     		mov	r0, r6
 1302 005e FFF7FEFF 		bl	put_fat.part.0
 1303 0062 50B9     		cbnz	r0, .L327
 1304 0064 4FB1     		cbz	r7, .L327
 1305 0066 012F     		cmp	r7, #1
 1306 0068 1DD9     		bls	.L326
 1307 006a B369     		ldr	r3, [r6, #24]
 1308 006c 9F42     		cmp	r7, r3
 1309 006e 1AD2     		bcs	.L326
 1310 0070 3946     		mov	r1, r7
 1311 0072 2246     		mov	r2, r4
 1312 0074 3046     		mov	r0, r6
 1313 0076 FFF7FEFF 		bl	put_fat.part.0
 1314              	.L327:
 1315 007a 90B9     		cbnz	r0, .L328
 1316 007c 3461     		str	r4, [r6, #16]
 1317 007e D6E90523 		ldrd	r2, r3, [r6, #20]
 1318 0082 023B     		subs	r3, r3, #2
 1319 0084 9A42     		cmp	r2, r3
 1320 0086 01D8     		bhi	.L329
 1321 0088 013A     		subs	r2, r2, #1
 1322 008a 7261     		str	r2, [r6, #20]
 1323              	.L329:
 1324 008c 3379     		ldrb	r3, [r6, #4]	@ zero_extendqisi2
 1325 008e 2046     		mov	r0, r4
 1326 0090 43F00103 		orr	r3, r3, #1
 1327 0094 3371     		strb	r3, [r6, #4]
 1328 0096 07E0     		b	.L315
 1329              	.L317:
 1330 0098 4345     		cmp	r3, r8
 1331 009a 98BF     		it	ls
 1332 009c 4FF00108 		movls	r8, #1
 1333 00a0 BDE7     		b	.L318
 1334              	.L328:
 1335 00a2 0128     		cmp	r0, #1
 1336 00a4 11D0     		beq	.L321
 1337              	.L326:
 1338 00a6 0120     		movs	r0, #1
ARM GAS  /var/folders/lg/77ksxqjx0n7gwph6nqpzcmcw0000gn/T//ccz0FbIE.s 			page 24


 1339              	.L315:
 1340 00a8 BDE8F081 		pop	{r4, r5, r6, r7, r8, pc}
 1341              	.L324:
 1342 00ac 0020     		movs	r0, #0
 1343 00ae BDE8F081 		pop	{r4, r5, r6, r7, r8, pc}
 1344              	.L316:
 1345 00b2 3046     		mov	r0, r6
 1346 00b4 FFF7FEFF 		bl	get_fat.isra.0
 1347 00b8 0128     		cmp	r0, #1
 1348 00ba F4D9     		bls	.L326
 1349 00bc 421C     		adds	r2, r0, #1
 1350 00be 04D0     		beq	.L321
 1351 00c0 B369     		ldr	r3, [r6, #24]
 1352 00c2 8342     		cmp	r3, r0
 1353 00c4 F0D8     		bhi	.L315
 1354 00c6 B846     		mov	r8, r7
 1355 00c8 A9E7     		b	.L318
 1356              	.L321:
 1357 00ca 4FF0FF30 		mov	r0, #-1
 1358 00ce EBE7     		b	.L315
 1360              		.section	.text.remove_chain,"ax",%progbits
 1361              		.align	1
 1362              		.p2align 2,,3
 1363              		.syntax unified
 1364              		.thumb
 1365              		.thumb_func
 1366              		.fpu fpv5-d16
 1368              	remove_chain:
 1369              		@ args = 0, pretend = 0, frame = 0
 1370              		@ frame_needed = 0, uses_anonymous_args = 0
 1371 0000 0129     		cmp	r1, #1
 1372 0002 F8B5     		push	{r3, r4, r5, r6, r7, lr}
 1373 0004 0668     		ldr	r6, [r0]
 1374 0006 29D9     		bls	.L343
 1375 0008 B369     		ldr	r3, [r6, #24]
 1376 000a 0C46     		mov	r4, r1
 1377 000c 8B42     		cmp	r3, r1
 1378 000e 25D9     		bls	.L343
 1379 0010 0746     		mov	r7, r0
 1380 0012 FAB9     		cbnz	r2, .L364
 1381 0014 3046     		mov	r0, r6
 1382              	.L349:
 1383 0016 2146     		mov	r1, r4
 1384 0018 FFF7FEFF 		bl	get_fat.isra.0
 1385 001c 0546     		mov	r5, r0
 1386 001e 2146     		mov	r1, r4
 1387 0020 0022     		movs	r2, #0
 1388 0022 3046     		mov	r0, r6
 1389 0024 5DB3     		cbz	r5, .L348
 1390 0026 012D     		cmp	r5, #1
 1391 0028 18D0     		beq	.L343
 1392 002a 6B1C     		adds	r3, r5, #1
 1393 002c 29D0     		beq	.L351
 1394 002e 012C     		cmp	r4, #1
 1395 0030 14D9     		bls	.L343
 1396 0032 B369     		ldr	r3, [r6, #24]
 1397 0034 9C42     		cmp	r4, r3
ARM GAS  /var/folders/lg/77ksxqjx0n7gwph6nqpzcmcw0000gn/T//ccz0FbIE.s 			page 25


 1398 0036 2C46     		mov	r4, r5
 1399 0038 10D2     		bcs	.L343
 1400 003a FFF7FEFF 		bl	put_fat.part.0
 1401 003e 70B9     		cbnz	r0, .L345
 1402 0040 D6E90523 		ldrd	r2, r3, [r6, #20]
 1403 0044 991E     		subs	r1, r3, #2
 1404 0046 501C     		adds	r0, r2, #1
 1405 0048 8A42     		cmp	r2, r1
 1406 004a 09D3     		bcc	.L365
 1407              	.L347:
 1408 004c AB42     		cmp	r3, r5
 1409 004e 16D9     		bls	.L348
 1410              	.L362:
 1411 0050 3868     		ldr	r0, [r7]
 1412 0052 E0E7     		b	.L349
 1413              	.L364:
 1414 0054 9342     		cmp	r3, r2
 1415 0056 01D9     		bls	.L343
 1416 0058 012A     		cmp	r2, #1
 1417 005a 07D8     		bhi	.L366
 1418              	.L343:
 1419 005c 0220     		movs	r0, #2
 1420              	.L345:
 1421 005e F8BD     		pop	{r3, r4, r5, r6, r7, pc}
 1422              	.L365:
 1423 0060 3279     		ldrb	r2, [r6, #4]	@ zero_extendqisi2
 1424 0062 7061     		str	r0, [r6, #20]
 1425 0064 42F00102 		orr	r2, r2, #1
 1426 0068 3271     		strb	r2, [r6, #4]
 1427 006a EFE7     		b	.L347
 1428              	.L366:
 1429 006c 1146     		mov	r1, r2
 1430 006e 3046     		mov	r0, r6
 1431 0070 4FF0FF32 		mov	r2, #-1
 1432 0074 FFF7FEFF 		bl	put_fat.part.0
 1433 0078 0028     		cmp	r0, #0
 1434 007a E9D0     		beq	.L362
 1435 007c F8BD     		pop	{r3, r4, r5, r6, r7, pc}
 1436              	.L348:
 1437 007e 0020     		movs	r0, #0
 1438 0080 F8BD     		pop	{r3, r4, r5, r6, r7, pc}
 1439              	.L351:
 1440 0082 0120     		movs	r0, #1
 1441 0084 F8BD     		pop	{r3, r4, r5, r6, r7, pc}
 1443 0086 00BF     		.section	.text.dir_next,"ax",%progbits
 1444              		.align	1
 1445              		.p2align 2,,3
 1446              		.syntax unified
 1447              		.thumb
 1448              		.thumb_func
 1449              		.fpu fpv5-d16
 1451              	dir_next:
 1452              		@ args = 0, pretend = 0, frame = 8
 1453              		@ frame_needed = 0, uses_anonymous_args = 0
 1454 0000 2DE9F04F 		push	{r4, r5, r6, r7, r8, r9, r10, fp, lr}
 1455 0004 4569     		ldr	r5, [r0, #20]
 1456 0006 83B0     		sub	sp, sp, #12
ARM GAS  /var/folders/lg/77ksxqjx0n7gwph6nqpzcmcw0000gn/T//ccz0FbIE.s 			page 26


 1457 0008 C369     		ldr	r3, [r0, #28]
 1458 000a 2035     		adds	r5, r5, #32
 1459 000c B5F5001F 		cmp	r5, #2097152
 1460 0010 3BD2     		bcs	.L388
 1461 0012 002B     		cmp	r3, #0
 1462 0014 39D0     		beq	.L388
 1463 0016 C5F30808 		ubfx	r8, r5, #0, #9
 1464 001a 0446     		mov	r4, r0
 1465 001c 0768     		ldr	r7, [r0]
 1466 001e B8F1000F 		cmp	r8, #0
 1467 0022 08D0     		beq	.L369
 1468              	.L403:
 1469 0024 07F13406 		add	r6, r7, #52
 1470              	.L370:
 1471 0028 4644     		add	r6, r6, r8
 1472 002a 0020     		movs	r0, #0
 1473 002c 6561     		str	r5, [r4, #20]
 1474 002e 2662     		str	r6, [r4, #32]
 1475              	.L368:
 1476 0030 03B0     		add	sp, sp, #12
 1477              		@ sp needed
 1478 0032 BDE8F08F 		pop	{r4, r5, r6, r7, r8, r9, r10, fp, pc}
 1479              	.L369:
 1480 0036 0E46     		mov	r6, r1
 1481 0038 0133     		adds	r3, r3, #1
 1482 003a 8169     		ldr	r1, [r0, #24]
 1483 003c C361     		str	r3, [r0, #28]
 1484 003e 41B3     		cbz	r1, .L404
 1485 0040 B7F80A90 		ldrh	r9, [r7, #10]
 1486 0044 09F1FF39 		add	r9, r9, #-1
 1487 0048 19EA5529 		ands	r9, r9, r5, lsr #9
 1488 004c EAD1     		bne	.L403
 1489 004e 3846     		mov	r0, r7
 1490 0050 FFF7FEFF 		bl	get_fat.isra.0
 1491 0054 0128     		cmp	r0, #1
 1492 0056 8346     		mov	fp, r0
 1493 0058 23D9     		bls	.L378
 1494 005a B0F1FF3F 		cmp	r0, #-1
 1495 005e 5FD0     		beq	.L379
 1496 0060 B969     		ldr	r1, [r7, #24]
 1497 0062 8142     		cmp	r1, r0
 1498 0064 1FD9     		bls	.L376
 1499 0066 831E     		subs	r3, r0, #2
 1500 0068 07F13406 		add	r6, r7, #52
 1501 006c 0193     		str	r3, [sp, #4]
 1502              	.L377:
 1503 006e 0239     		subs	r1, r1, #2
 1504 0070 019A     		ldr	r2, [sp, #4]
 1505 0072 C4F818B0 		str	fp, [r4, #24]
 1506 0076 9142     		cmp	r1, r2
 1507 0078 04D9     		bls	.L387
 1508 007a B7F80A90 		ldrh	r9, [r7, #10]
 1509 007e FB6A     		ldr	r3, [r7, #44]
 1510 0080 02FB0939 		mla	r9, r2, r9, r3
 1511              	.L387:
 1512 0084 C4F81C90 		str	r9, [r4, #28]
 1513 0088 CEE7     		b	.L370
ARM GAS  /var/folders/lg/77ksxqjx0n7gwph6nqpzcmcw0000gn/T//ccz0FbIE.s 			page 27


 1514              	.L388:
 1515 008a 0420     		movs	r0, #4
 1516 008c 03B0     		add	sp, sp, #12
 1517              		@ sp needed
 1518 008e BDE8F08F 		pop	{r4, r5, r6, r7, r8, r9, r10, fp, pc}
 1519              	.L404:
 1520 0092 3B89     		ldrh	r3, [r7, #8]
 1521 0094 B3EB551F 		cmp	r3, r5, lsr #5
 1522 0098 C4D8     		bhi	.L403
 1523              	.L372:
 1524 009a 0023     		movs	r3, #0
 1525 009c 0420     		movs	r0, #4
 1526 009e E361     		str	r3, [r4, #28]
 1527 00a0 C6E7     		b	.L368
 1528              	.L378:
 1529 00a2 0220     		movs	r0, #2
 1530 00a4 C4E7     		b	.L368
 1531              	.L376:
 1532 00a6 002E     		cmp	r6, #0
 1533 00a8 F7D0     		beq	.L372
 1534 00aa A169     		ldr	r1, [r4, #24]
 1535 00ac 2046     		mov	r0, r4
 1536 00ae FFF7FEFF 		bl	create_chain
 1537 00b2 8346     		mov	fp, r0
 1538 00b4 0028     		cmp	r0, #0
 1539 00b6 3BD0     		beq	.L389
 1540 00b8 0128     		cmp	r0, #1
 1541 00ba F2D0     		beq	.L378
 1542 00bc B0F1FF3F 		cmp	r0, #-1
 1543 00c0 2ED0     		beq	.L379
 1544 00c2 FB78     		ldrb	r3, [r7, #3]	@ zero_extendqisi2
 1545 00c4 002B     		cmp	r3, #0
 1546 00c6 35D1     		bne	.L380
 1547              	.L382:
 1548 00c8 07F13406 		add	r6, r7, #52
 1549 00cc 07F50D70 		add	r0, r7, #564
 1550 00d0 0021     		movs	r1, #0
 1551 00d2 3346     		mov	r3, r6
 1552              	.L381:
 1553 00d4 03F8011B 		strb	r1, [r3], #1
 1554 00d8 8342     		cmp	r3, r0
 1555 00da FBD1     		bne	.L381
 1556 00dc ABF10203 		sub	r3, fp, #2
 1557 00e0 B869     		ldr	r0, [r7, #24]
 1558 00e2 7989     		ldrh	r1, [r7, #10]
 1559 00e4 1A46     		mov	r2, r3
 1560 00e6 0193     		str	r3, [sp, #4]
 1561 00e8 831E     		subs	r3, r0, #2
 1562 00ea 9A42     		cmp	r2, r3
 1563 00ec 28D2     		bcs	.L405
 1564 00ee FB6A     		ldr	r3, [r7, #44]
 1565 00f0 019A     		ldr	r2, [sp, #4]
 1566 00f2 02FB0133 		mla	r3, r2, r1, r3
 1567              	.L384:
 1568 00f6 3B63     		str	r3, [r7, #48]
 1569 00f8 21B3     		cbz	r1, .L390
 1570 00fa 4FF0000A 		mov	r10, #0
ARM GAS  /var/folders/lg/77ksxqjx0n7gwph6nqpzcmcw0000gn/T//ccz0FbIE.s 			page 28


 1571 00fe 05E0     		b	.L386
 1572              	.L407:
 1573 0100 3B6B     		ldr	r3, [r7, #48]
 1574 0102 7889     		ldrh	r0, [r7, #10]
 1575 0104 0133     		adds	r3, r3, #1
 1576 0106 5045     		cmp	r0, r10
 1577 0108 3B63     		str	r3, [r7, #48]
 1578 010a 0BD9     		bls	.L406
 1579              	.L386:
 1580 010c 4FF00103 		mov	r3, #1
 1581 0110 3846     		mov	r0, r7
 1582 0112 0AF1010A 		add	r10, r10, #1
 1583 0116 FB70     		strb	r3, [r7, #3]
 1584 0118 FFF7FEFF 		bl	sync_window.part.0
 1585 011c 0028     		cmp	r0, #0
 1586 011e EFD0     		beq	.L407
 1587              	.L379:
 1588 0120 0120     		movs	r0, #1
 1589 0122 85E7     		b	.L368
 1590              	.L406:
 1591 0124 B869     		ldr	r0, [r7, #24]
 1592              	.L385:
 1593 0126 A3EB0A03 		sub	r3, r3, r10
 1594 012a 0146     		mov	r1, r0
 1595 012c 3B63     		str	r3, [r7, #48]
 1596 012e 9EE7     		b	.L377
 1597              	.L389:
 1598 0130 0720     		movs	r0, #7
 1599 0132 7DE7     		b	.L368
 1600              	.L380:
 1601 0134 3846     		mov	r0, r7
 1602 0136 FFF7FEFF 		bl	sync_window.part.0
 1603 013a 0028     		cmp	r0, #0
 1604 013c C4D0     		beq	.L382
 1605 013e EFE7     		b	.L379
 1606              	.L405:
 1607 0140 0023     		movs	r3, #0
 1608 0142 D8E7     		b	.L384
 1609              	.L390:
 1610 0144 8A46     		mov	r10, r1
 1611 0146 EEE7     		b	.L385
 1613              		.section	.text.dir_remove,"ax",%progbits
 1614              		.align	1
 1615              		.p2align 2,,3
 1616              		.syntax unified
 1617              		.thumb
 1618              		.thumb_func
 1619              		.fpu fpv5-d16
 1621              	dir_remove:
 1622              		@ args = 0, pretend = 0, frame = 0
 1623              		@ frame_needed = 0, uses_anonymous_args = 0
 1624 0000 016B     		ldr	r1, [r0, #48]
 1625 0002 4B1C     		adds	r3, r1, #1
 1626 0004 2DE9F041 		push	{r4, r5, r6, r7, r8, lr}
 1627 0008 0446     		mov	r4, r0
 1628 000a 0568     		ldr	r5, [r0]
 1629 000c 4669     		ldr	r6, [r0, #20]
ARM GAS  /var/folders/lg/77ksxqjx0n7gwph6nqpzcmcw0000gn/T//ccz0FbIE.s 			page 29


 1630 000e 1AD1     		bne	.L409
 1631              	.L411:
 1632 0010 4FF0E508 		mov	r8, #229
 1633 0014 0127     		movs	r7, #1
 1634 0016 02E0     		b	.L410
 1635              	.L423:
 1636 0018 FFF7FEFF 		bl	dir_next
 1637 001c C8B9     		cbnz	r0, .L415
 1638              	.L410:
 1639 001e E169     		ldr	r1, [r4, #28]
 1640 0020 2846     		mov	r0, r5
 1641 0022 2B6B     		ldr	r3, [r5, #48]
 1642 0024 9942     		cmp	r1, r3
 1643 0026 02D0     		beq	.L416
 1644 0028 FFF7FEFF 		bl	move_window.part.0
 1645 002c 88B9     		cbnz	r0, .L415
 1646              	.L416:
 1647 002e 236A     		ldr	r3, [r4, #32]
 1648 0030 0021     		movs	r1, #0
 1649 0032 2046     		mov	r0, r4
 1650 0034 83F80080 		strb	r8, [r3]
 1651 0038 EF70     		strb	r7, [r5, #3]
 1652 003a 6369     		ldr	r3, [r4, #20]
 1653 003c B342     		cmp	r3, r6
 1654 003e EBD3     		bcc	.L423
 1655 0040 0020     		movs	r0, #0
 1656 0042 BDE8F081 		pop	{r4, r5, r6, r7, r8, pc}
 1657              	.L409:
 1658 0046 FFF7FEFF 		bl	dir_sdi
 1659 004a 0028     		cmp	r0, #0
 1660 004c E0D0     		beq	.L411
 1661 004e BDE8F081 		pop	{r4, r5, r6, r7, r8, pc}
 1662              	.L415:
 1663 0052 0428     		cmp	r0, #4
 1664 0054 08BF     		it	eq
 1665 0056 0220     		moveq	r0, #2
 1666 0058 BDE8F081 		pop	{r4, r5, r6, r7, r8, pc}
 1668              		.section	.text.dir_find,"ax",%progbits
 1669              		.align	1
 1670              		.p2align 2,,3
 1671              		.syntax unified
 1672              		.thumb
 1673              		.thumb_func
 1674              		.fpu fpv5-d16
 1676              	dir_find:
 1677              		@ args = 0, pretend = 0, frame = 24
 1678              		@ frame_needed = 0, uses_anonymous_args = 0
 1679 0000 2DE9F04F 		push	{r4, r5, r6, r7, r8, r9, r10, fp, lr}
 1680 0004 0021     		movs	r1, #0
 1681 0006 87B0     		sub	sp, sp, #28
 1682 0008 0546     		mov	r5, r0
 1683 000a 0768     		ldr	r7, [r0]
 1684 000c FFF7FEFF 		bl	dir_sdi
 1685 0010 0028     		cmp	r0, #0
 1686 0012 46D1     		bne	.L426
 1687 0014 4FF0FF33 		mov	r3, #-1
 1688 0018 4FF0FF09 		mov	r9, #255
ARM GAS  /var/folders/lg/77ksxqjx0n7gwph6nqpzcmcw0000gn/T//ccz0FbIE.s 			page 30


 1689 001c 9846     		mov	r8, r3
 1690 001e CA46     		mov	r10, r9
 1691 0020 2B63     		str	r3, [r5, #48]
 1692 0022 0AE0     		b	.L448
 1693              	.L481:
 1694 0024 0F2B     		cmp	r3, #15
 1695 0026 3FD0     		beq	.L432
 1696              	.L444:
 1697 0028 4FF0FF0A 		mov	r10, #255
 1698 002c C5F83080 		str	r8, [r5, #48]
 1699              	.L433:
 1700 0030 0021     		movs	r1, #0
 1701 0032 2846     		mov	r0, r5
 1702 0034 FFF7FEFF 		bl	dir_next
 1703 0038 98BB     		cbnz	r0, .L426
 1704              	.L448:
 1705 003a E969     		ldr	r1, [r5, #28]
 1706 003c 3B6B     		ldr	r3, [r7, #48]
 1707 003e 9942     		cmp	r1, r3
 1708 0040 03D0     		beq	.L429
 1709 0042 3846     		mov	r0, r7
 1710 0044 FFF7FEFF 		bl	move_window.part.0
 1711 0048 58BB     		cbnz	r0, .L426
 1712              	.L429:
 1713 004a 2C6A     		ldr	r4, [r5, #32]
 1714 004c 2678     		ldrb	r6, [r4]	@ zero_extendqisi2
 1715 004e 002E     		cmp	r6, #0
 1716 0050 00F09680 		beq	.L480
 1717 0054 E27A     		ldrb	r2, [r4, #11]	@ zero_extendqisi2
 1718 0056 E52E     		cmp	r6, #229
 1719 0058 02F03F03 		and	r3, r2, #63
 1720 005c AB71     		strb	r3, [r5, #6]
 1721 005e E3D0     		beq	.L444
 1722 0060 1007     		lsls	r0, r2, #28
 1723 0062 DFD4     		bmi	.L481
 1724 0064 0F2B     		cmp	r3, #15
 1725 0066 1FD0     		beq	.L432
 1726 0068 BAF1000F 		cmp	r10, #0
 1727 006c 74D0     		beq	.L482
 1728              	.L442:
 1729 006e 95F82F00 		ldrb	r0, [r5, #47]	@ zero_extendqisi2
 1730 0072 10F00100 		ands	r0, r0, #1
 1731 0076 D7D1     		bne	.L444
 1732 0078 95F82410 		ldrb	r1, [r5, #36]	@ zero_extendqisi2
 1733 007c 05F12502 		add	r2, r5, #37
 1734 0080 14F8013B 		ldrb	r3, [r4], #1	@ zero_extendqisi2
 1735 0084 05F12F06 		add	r6, r5, #47
 1736 0088 5B1A     		subs	r3, r3, r1
 1737              	.L445:
 1738 008a 002B     		cmp	r3, #0
 1739 008c CCD1     		bne	.L444
 1740 008e 12F8011B 		ldrb	r1, [r2], #1	@ zero_extendqisi2
 1741 0092 14F8013B 		ldrb	r3, [r4], #1	@ zero_extendqisi2
 1742 0096 9642     		cmp	r6, r2
 1743 0098 A3EB0103 		sub	r3, r3, r1
 1744 009c F5D1     		bne	.L445
 1745 009e 002B     		cmp	r3, #0
ARM GAS  /var/folders/lg/77ksxqjx0n7gwph6nqpzcmcw0000gn/T//ccz0FbIE.s 			page 31


 1746 00a0 C2D1     		bne	.L444
 1747              	.L426:
 1748 00a2 07B0     		add	sp, sp, #28
 1749              		@ sp needed
 1750 00a4 BDE8F08F 		pop	{r4, r5, r6, r7, r8, r9, r10, fp, pc}
 1751              	.L432:
 1752 00a8 95F82F30 		ldrb	r3, [r5, #47]	@ zero_extendqisi2
 1753 00ac 5906     		lsls	r1, r3, #25
 1754 00ae BFD4     		bmi	.L433
 1755 00b0 7206     		lsls	r2, r6, #25
 1756 00b2 4CD5     		bpl	.L435
 1757 00b4 6B69     		ldr	r3, [r5, #20]
 1758 00b6 06F0BF06 		and	r6, r6, #191
 1759 00ba 94F80D90 		ldrb	r9, [r4, #13]	@ zero_extendqisi2
 1760 00be 2B63     		str	r3, [r5, #48]
 1761              	.L436:
 1762 00c0 637B     		ldrb	r3, [r4, #13]	@ zero_extendqisi2
 1763 00c2 4B45     		cmp	r3, r9
 1764 00c4 45D1     		bne	.L456
 1765 00c6 E27E     		ldrb	r2, [r4, #27]	@ zero_extendqisi2
 1766 00c8 A37E     		ldrb	r3, [r4, #26]	@ zero_extendqisi2
 1767 00ca 53EA0223 		orrs	r3, r3, r2, lsl #8
 1768 00ce 40D1     		bne	.L456
 1769 00d0 94F800B0 		ldrb	fp, [r4]	@ zero_extendqisi2
 1770 00d4 0122     		movs	r2, #1
 1771 00d6 F868     		ldr	r0, [r7, #12]
 1772 00d8 0BF03F0B 		and	fp, fp, #63
 1773 00dc 354B     		ldr	r3, .L485
 1774 00de 0490     		str	r0, [sp, #16]
 1775 00e0 0BF1FF3B 		add	fp, fp, #-1
 1776 00e4 0596     		str	r6, [sp, #20]
 1777 00e6 0395     		str	r5, [sp, #12]
 1778 00e8 2646     		mov	r6, r4
 1779 00ea 0BEB4B00 		add	r0, fp, fp, lsl #1
 1780 00ee 049C     		ldr	r4, [sp, #16]
 1781 00f0 0BEB800B 		add	fp, fp, r0, lsl #2
 1782 00f4 CDE90197 		strd	r9, r7, [sp, #4]
 1783 00f8 5D46     		mov	r5, fp
 1784 00fa 9B46     		mov	fp, r3
 1785 00fc 1346     		mov	r3, r2
 1786 00fe 12E0     		b	.L440
 1787              	.L483:
 1788 0100 FE2D     		cmp	r5, #254
 1789 0102 5046     		mov	r0, r10
 1790 0104 1DD8     		bhi	.L455
 1791 0106 FFF7FEFF 		bl	ff_wtoupper
 1792 010a 0746     		mov	r7, r0
 1793 010c 34F81500 		ldrh	r0, [r4, r5, lsl #1]
 1794 0110 4D46     		mov	r5, r9
 1795 0112 FFF7FEFF 		bl	ff_wtoupper
 1796 0116 8742     		cmp	r7, r0
 1797 0118 5346     		mov	r3, r10
 1798 011a 12D1     		bne	.L455
 1799              	.L438:
 1800 011c 264A     		ldr	r2, .L485+4
 1801 011e 5A45     		cmp	r2, fp
 1802 0120 32D0     		beq	.L439
ARM GAS  /var/folders/lg/77ksxqjx0n7gwph6nqpzcmcw0000gn/T//ccz0FbIE.s 			page 32


 1803 0122 1BF8012F 		ldrb	r2, [fp, #1]!	@ zero_extendqisi2
 1804              	.L440:
 1805 0126 B018     		adds	r0, r6, r2
 1806 0128 16F802A0 		ldrb	r10, [r6, r2]	@ zero_extendqisi2
 1807 012c 05F10109 		add	r9, r5, #1
 1808 0130 4078     		ldrb	r0, [r0, #1]	@ zero_extendqisi2
 1809 0132 4AEA002A 		orr	r10, r10, r0, lsl #8
 1810 0136 002B     		cmp	r3, #0
 1811 0138 E2D1     		bne	.L483
 1812 013a 4FF6FF72 		movw	r2, #65535
 1813 013e 9245     		cmp	r10, r2
 1814 0140 ECD0     		beq	.L438
 1815              	.L455:
 1816 0142 DDE90197 		ldrd	r9, r7, [sp, #4]
 1817 0146 039D     		ldr	r5, [sp, #12]
 1818 0148 4FF0FF0A 		mov	r10, #255
 1819 014c 70E7     		b	.L433
 1820              	.L435:
 1821 014e B245     		cmp	r10, r6
 1822 0150 B6D0     		beq	.L436
 1823              	.L456:
 1824 0152 4FF0FF0A 		mov	r10, #255
 1825 0156 6BE7     		b	.L433
 1826              	.L482:
 1827 0158 04F10B00 		add	r0, r4, #11
 1828 015c 2246     		mov	r2, r4
 1829              	.L443:
 1830 015e 4FEACA13 		lsl	r3, r10, #7
 1831 0162 12F8011B 		ldrb	r1, [r2], #1	@ zero_extendqisi2
 1832 0166 43EA5A0A 		orr	r10, r3, r10, lsr #1
 1833 016a 9042     		cmp	r0, r2
 1834 016c 51FA8AFA 		uxtab	r10, r1, r10
 1835 0170 5FFA8AFA 		uxtb	r10, r10
 1836 0174 F3D1     		bne	.L443
 1837 0176 D145     		cmp	r9, r10
 1838 0178 7FF479AF 		bne	.L442
 1839 017c 0020     		movs	r0, #0
 1840 017e 90E7     		b	.L426
 1841              	.L480:
 1842 0180 0420     		movs	r0, #4
 1843 0182 07B0     		add	sp, sp, #28
 1844              		@ sp needed
 1845 0184 BDE8F08F 		pop	{r4, r5, r6, r7, r8, r9, r10, fp, pc}
 1846              	.L439:
 1847 0188 3446     		mov	r4, r6
 1848 018a 1946     		mov	r1, r3
 1849 018c AB46     		mov	fp, r5
 1850 018e 059E     		ldr	r6, [sp, #20]
 1851 0190 2378     		ldrb	r3, [r4]	@ zero_extendqisi2
 1852 0192 039D     		ldr	r5, [sp, #12]
 1853 0194 5B06     		lsls	r3, r3, #25
 1854 0196 DDE90197 		ldrd	r9, r7, [sp, #4]
 1855 019a 00D5     		bpl	.L441
 1856 019c 21B9     		cbnz	r1, .L484
 1857              	.L441:
 1858 019e 06F1FF3A 		add	r10, r6, #-1
 1859 01a2 5FFA8AFA 		uxtb	r10, r10
ARM GAS  /var/folders/lg/77ksxqjx0n7gwph6nqpzcmcw0000gn/T//ccz0FbIE.s 			page 33


 1860 01a6 43E7     		b	.L433
 1861              	.L484:
 1862 01a8 049B     		ldr	r3, [sp, #16]
 1863 01aa 33F81B30 		ldrh	r3, [r3, fp, lsl #1]
 1864 01ae 002B     		cmp	r3, #0
 1865 01b0 F5D0     		beq	.L441
 1866 01b2 CEE7     		b	.L456
 1867              	.L486:
 1868              		.align	2
 1869              	.L485:
 1870 01b4 00000000 		.word	.LANCHOR4
 1871 01b8 0C000000 		.word	.LANCHOR4+12
 1873              		.section	.rodata.follow_path.str1.4,"aMS",%progbits,1
 1874              		.align	2
 1875              	.LC0:
 1876 0000 222A3A3C 		.ascii	"\"*:<>?|\177\000"
 1876      3E3F7C7F 
 1876      00
 1877 0009 000000   		.align	2
 1878              	.LC1:
 1879 000c 2B2C3B3D 		.ascii	"+,;=[]\000"
 1879      5B5D00
 1880              		.section	.text.follow_path,"ax",%progbits
 1881              		.align	1
 1882              		.p2align 2,,3
 1883              		.syntax unified
 1884              		.thumb
 1885              		.thumb_func
 1886              		.fpu fpv5-d16
 1888              	follow_path:
 1889              		@ args = 0, pretend = 0, frame = 8
 1890              		@ frame_needed = 0, uses_anonymous_args = 0
 1891 0000 2DE9F04F 		push	{r4, r5, r6, r7, r8, r9, r10, fp, lr}
 1892 0004 0B78     		ldrb	r3, [r1]	@ zero_extendqisi2
 1893 0006 83B0     		sub	sp, sp, #12
 1894 0008 0F46     		mov	r7, r1
 1895 000a 0646     		mov	r6, r0
 1896 000c 2F2B     		cmp	r3, #47
 1897 000e D0F800B0 		ldr	fp, [r0]
 1898 0012 03D1     		bne	.L607
 1899              	.L586:
 1900 0014 17F8013F 		ldrb	r3, [r7, #1]!	@ zero_extendqisi2
 1901 0018 2F2B     		cmp	r3, #47
 1902 001a FBD0     		beq	.L586
 1903              	.L607:
 1904 001c 5C2B     		cmp	r3, #92
 1905 001e F9D0     		beq	.L586
 1906 0020 0021     		movs	r1, #0
 1907 0022 B160     		str	r1, [r6, #8]
 1908 0024 3B78     		ldrb	r3, [r7]	@ zero_extendqisi2
 1909 0026 1F2B     		cmp	r3, #31
 1910 0028 40F24B81 		bls	.L610
 1911 002c 5A46     		mov	r2, fp
 1912 002e B946     		mov	r9, r7
 1913              	.L491:
 1914 0030 1F2B     		cmp	r3, #31
 1915 0032 D768     		ldr	r7, [r2, #12]
ARM GAS  /var/folders/lg/77ksxqjx0n7gwph6nqpzcmcw0000gn/T//ccz0FbIE.s 			page 34


 1916 0034 98B2     		uxth	r0, r3
 1917 0036 29D9     		bls	.L604
 1918 0038 A7F1020A 		sub	r10, r7, #2
 1919 003c C846     		mov	r8, r9
 1920 003e 0125     		movs	r5, #1
 1921 0040 08E0     		b	.L503
 1922              	.L500:
 1923 0042 2AF8020F 		strh	r0, [r10, #2]!	@ movhi
 1924 0046 6B1C     		adds	r3, r5, #1
 1925 0048 18F8010F 		ldrb	r0, [r8, #1]!	@ zero_extendqisi2
 1926 004c 1F28     		cmp	r0, #31
 1927 004e 40F2FD80 		bls	.L502
 1928 0052 1D46     		mov	r5, r3
 1929              	.L503:
 1930 0054 2F28     		cmp	r0, #47
 1931 0056 05F1FF34 		add	r4, r5, #-1
 1932 005a 1DD0     		beq	.L551
 1933 005c 5C28     		cmp	r0, #92
 1934 005e 1BD0     		beq	.L551
 1935 0060 B5F5807F 		cmp	r5, #256
 1936 0064 0ED0     		beq	.L498
 1937 0066 0121     		movs	r1, #1
 1938 0068 FFF7FEFF 		bl	ff_convert
 1939 006c 50B1     		cbz	r0, .L498
 1940 006e 7F28     		cmp	r0, #127
 1941 0070 E7D8     		bhi	.L500
 1942 0072 2223     		movs	r3, #34
 1943 0074 AB4A     		ldr	r2, .L616
 1944 0076 03E0     		b	.L499
 1945              	.L501:
 1946 0078 12F8013F 		ldrb	r3, [r2, #1]!	@ zero_extendqisi2
 1947 007c 002B     		cmp	r3, #0
 1948 007e E0D0     		beq	.L500
 1949              	.L499:
 1950 0080 9842     		cmp	r0, r3
 1951 0082 F9D1     		bne	.L501
 1952              	.L498:
 1953 0084 0620     		movs	r0, #6
 1954              	.L556:
 1955 0086 03B0     		add	sp, sp, #12
 1956              		@ sp needed
 1957 0088 BDE8F08F 		pop	{r4, r5, r6, r7, r8, r9, r10, fp, pc}
 1958              	.L604:
 1959 008c 0023     		movs	r3, #0
 1960 008e 0620     		movs	r0, #6
 1961 0090 3B80     		strh	r3, [r7]	@ movhi
 1962 0092 03B0     		add	sp, sp, #12
 1963              		@ sp needed
 1964 0094 BDE8F08F 		pop	{r4, r5, r6, r7, r8, r9, r10, fp, pc}
 1965              	.L551:
 1966 0098 19F80530 		ldrb	r3, [r9, r5]	@ zero_extendqisi2
 1967 009c 09EB0502 		add	r2, r9, r5
 1968 00a0 5C2B     		cmp	r3, #92
 1969 00a2 02D0     		beq	.L552
 1970 00a4 2F2B     		cmp	r3, #47
 1971 00a6 40F02081 		bne	.L546
 1972              	.L552:
ARM GAS  /var/folders/lg/77ksxqjx0n7gwph6nqpzcmcw0000gn/T//ccz0FbIE.s 			page 35


 1973 00aa 0135     		adds	r5, r5, #1
 1974 00ac 4D44     		add	r5, r5, r9
 1975              	.L587:
 1976 00ae A946     		mov	r9, r5
 1977 00b0 15F8013B 		ldrb	r3, [r5], #1	@ zero_extendqisi2
 1978 00b4 2F2B     		cmp	r3, #47
 1979 00b6 FAD0     		beq	.L587
 1980 00b8 5C2B     		cmp	r3, #92
 1981 00ba F8D0     		beq	.L587
 1982              	.L495:
 1983 00bc 002C     		cmp	r4, #0
 1984 00be E5D0     		beq	.L604
 1985 00c0 4FF00008 		mov	r8, #0
 1986              	.L544:
 1987 00c4 07EB4402 		add	r2, r7, r4, lsl #1
 1988 00c8 01E0     		b	.L506
 1989              	.L553:
 1990 00ca 013C     		subs	r4, r4, #1
 1991 00cc DED0     		beq	.L604
 1992              	.L506:
 1993 00ce 32F8023D 		ldrh	r3, [r2, #-2]!
 1994 00d2 202B     		cmp	r3, #32
 1995 00d4 F9D0     		beq	.L553
 1996 00d6 2E2B     		cmp	r3, #46
 1997 00d8 F7D0     		beq	.L553
 1998 00da 0020     		movs	r0, #0
 1999 00dc 06F12403 		add	r3, r6, #36
 2000 00e0 06F12F01 		add	r1, r6, #47
 2001 00e4 2022     		movs	r2, #32
 2002 00e6 27F81400 		strh	r0, [r7, r4, lsl #1]	@ movhi
 2003              	.L507:
 2004 00ea 03F8012B 		strb	r2, [r3], #1
 2005 00ee 8B42     		cmp	r3, r1
 2006 00f0 FBD1     		bne	.L507
 2007 00f2 3888     		ldrh	r0, [r7]
 2008 00f4 2E28     		cmp	r0, #46
 2009 00f6 02D0     		beq	.L554
 2010 00f8 2028     		cmp	r0, #32
 2011 00fa 40F0EB80 		bne	.L548
 2012              	.L554:
 2013 00fe 3A46     		mov	r2, r7
 2014 0100 0023     		movs	r3, #0
 2015              	.L588:
 2016 0102 32F8020F 		ldrh	r0, [r2, #2]!
 2017 0106 1D46     		mov	r5, r3
 2018 0108 0133     		adds	r3, r3, #1
 2019 010a 2028     		cmp	r0, #32
 2020 010c F9D0     		beq	.L588
 2021 010e 2E28     		cmp	r0, #46
 2022 0110 F7D0     		beq	.L588
 2023 0112 48F00308 		orr	r8, r8, #3
 2024 0116 0235     		adds	r5, r5, #2
 2025              	.L508:
 2026 0118 07EB4403 		add	r3, r7, r4, lsl #1
 2027              	.L511:
 2028 011c 33F8022D 		ldrh	r2, [r3, #-2]!
 2029 0120 2E2A     		cmp	r2, #46
ARM GAS  /var/folders/lg/77ksxqjx0n7gwph6nqpzcmcw0000gn/T//ccz0FbIE.s 			page 36


 2030 0122 01D0     		beq	.L512
 2031 0124 013C     		subs	r4, r4, #1
 2032 0126 F9D1     		bne	.L511
 2033              	.L512:
 2034 0128 0028     		cmp	r0, #0
 2035 012a 00F0F080 		beq	.L513
 2036 012e 0822     		movs	r2, #8
 2037 0130 4946     		mov	r1, r9
 2038 0132 4FF0000A 		mov	r10, #0
 2039 0136 B946     		mov	r9, r7
 2040 0138 5B46     		mov	r3, fp
 2041 013a 2746     		mov	r7, r4
 2042 013c B346     		mov	fp, r6
 2043 013e 5446     		mov	r4, r10
 2044 0140 1646     		mov	r6, r2
 2045 0142 0A46     		mov	r2, r1
 2046              	.L514:
 2047 0144 2028     		cmp	r0, #32
 2048 0146 03D0     		beq	.L517
 2049 0148 2E28     		cmp	r0, #46
 2050 014a 54D1     		bne	.L518
 2051 014c BD42     		cmp	r5, r7
 2052 014e 52D0     		beq	.L518
 2053              	.L517:
 2054 0150 48F00308 		orr	r8, r8, #3
 2055              	.L519:
 2056 0154 39F81500 		ldrh	r0, [r9, r5, lsl #1]
 2057 0158 0135     		adds	r5, r5, #1
 2058 015a 0028     		cmp	r0, #0
 2059 015c F2D1     		bne	.L514
 2060              	.L516:
 2061 015e 9146     		mov	r9, r2
 2062 0160 3246     		mov	r2, r6
 2063 0162 5E46     		mov	r6, fp
 2064 0164 9B46     		mov	fp, r3
 2065 0166 96F82430 		ldrb	r3, [r6, #36]	@ zero_extendqisi2
 2066 016a E52B     		cmp	r3, #229
 2067 016c 02D1     		bne	.L535
 2068 016e 0523     		movs	r3, #5
 2069 0170 86F82430 		strb	r3, [r6, #36]
 2070              	.L535:
 2071 0174 082A     		cmp	r2, #8
 2072 0176 6ED0     		beq	.L611
 2073              	.L523:
 2074 0178 0AF00C00 		and	r0, r10, #12
 2075 017c 0C28     		cmp	r0, #12
 2076 017e 72D0     		beq	.L536
 2077 0180 0AF00303 		and	r3, r10, #3
 2078 0184 032B     		cmp	r3, #3
 2079 0186 6ED0     		beq	.L536
 2080              	.L609:
 2081 0188 08F00203 		and	r3, r8, #2
 2082 018c 53B9     		cbnz	r3, .L533
 2083 018e 0AF0030A 		and	r10, r10, #3
 2084 0192 BAF1010F 		cmp	r10, #1
 2085 0196 08BF     		it	eq
 2086 0198 48F01008 		orreq	r8, r8, #16
ARM GAS  /var/folders/lg/77ksxqjx0n7gwph6nqpzcmcw0000gn/T//ccz0FbIE.s 			page 37


 2087 019c 0428     		cmp	r0, #4
 2088 019e 08BF     		it	eq
 2089 01a0 48F00808 		orreq	r8, r8, #8
 2090              	.L533:
 2091 01a4 3046     		mov	r0, r6
 2092 01a6 86F82F80 		strb	r8, [r6, #47]
 2093 01aa FFF7FEFF 		bl	dir_find
 2094 01ae 96F82F30 		ldrb	r3, [r6, #47]	@ zero_extendqisi2
 2095 01b2 0028     		cmp	r0, #0
 2096 01b4 62D1     		bne	.L612
 2097              	.L539:
 2098 01b6 5A07     		lsls	r2, r3, #29
 2099 01b8 3FF565AF 		bmi	.L556
 2100 01bc B379     		ldrb	r3, [r6, #6]	@ zero_extendqisi2
 2101 01be DB06     		lsls	r3, r3, #27
 2102 01c0 40F19580 		bpl	.L549
 2103 01c4 7269     		ldr	r2, [r6, #20]
 2104 01c6 0BF13403 		add	r3, fp, #52
 2105 01ca 9BF80010 		ldrb	r1, [fp]	@ zero_extendqisi2
 2106 01ce C2F30802 		ubfx	r2, r2, #0, #9
 2107 01d2 0329     		cmp	r1, #3
 2108 01d4 1344     		add	r3, r3, r2
 2109 01d6 D87E     		ldrb	r0, [r3, #27]	@ zero_extendqisi2
 2110 01d8 9A7E     		ldrb	r2, [r3, #26]	@ zero_extendqisi2
 2111 01da 42EA0022 		orr	r2, r2, r0, lsl #8
 2112 01de 05D1     		bne	.L541
 2113 01e0 597D     		ldrb	r1, [r3, #21]	@ zero_extendqisi2
 2114 01e2 1B7D     		ldrb	r3, [r3, #20]	@ zero_extendqisi2
 2115 01e4 43EA0123 		orr	r3, r3, r1, lsl #8
 2116 01e8 42EA0342 		orr	r2, r2, r3, lsl #16
 2117              	.L541:
 2118 01ec B260     		str	r2, [r6, #8]
 2119 01ee 3268     		ldr	r2, [r6]
 2120 01f0 99F80030 		ldrb	r3, [r9]	@ zero_extendqisi2
 2121 01f4 1CE7     		b	.L491
 2122              	.L518:
 2123 01f6 A642     		cmp	r6, r4
 2124 01f8 19D9     		bls	.L555
 2125 01fa E91B     		subs	r1, r5, r7
 2126 01fc B1FA81F1 		clz	r1, r1
 2127 0200 4909     		lsrs	r1, r1, #5
 2128 0202 A1B9     		cbnz	r1, .L555
 2129 0204 7F28     		cmp	r0, #127
 2130 0206 41D8     		bhi	.L613
 2131              	.L525:
 2132 0208 2B21     		movs	r1, #43
 2133 020a DFF820C1 		ldr	ip, .L616+8
 2134 020e 03E0     		b	.L528
 2135              	.L530:
 2136 0210 1CF8011F 		ldrb	r1, [ip, #1]!	@ zero_extendqisi2
 2137 0214 0029     		cmp	r1, #0
 2138 0216 4CD0     		beq	.L529
 2139              	.L528:
 2140 0218 8142     		cmp	r1, r0
 2141 021a F9D1     		bne	.L530
 2142              	.L527:
 2143 021c 48F00308 		orr	r8, r8, #3
ARM GAS  /var/folders/lg/77ksxqjx0n7gwph6nqpzcmcw0000gn/T//ccz0FbIE.s 			page 38


 2144 0220 5F20     		movs	r0, #95
 2145              	.L531:
 2146 0222 0BEB0401 		add	r1, fp, r4
 2147 0226 0134     		adds	r4, r4, #1
 2148 0228 81F82400 		strb	r0, [r1, #36]
 2149 022c 92E7     		b	.L519
 2150              	.L555:
 2151 022e 0B2E     		cmp	r6, #11
 2152 0230 5FD0     		beq	.L614
 2153 0232 BD42     		cmp	r5, r7
 2154 0234 02D0     		beq	.L524
 2155 0236 48F00308 		orr	r8, r8, #3
 2156 023a 90D8     		bhi	.L516
 2157              	.L524:
 2158 023c 4FEA8A0A 		lsl	r10, r10, #2
 2159 0240 3D46     		mov	r5, r7
 2160 0242 0B26     		movs	r6, #11
 2161 0244 0824     		movs	r4, #8
 2162 0246 5FFA8AFA 		uxtb	r10, r10
 2163 024a 83E7     		b	.L519
 2164              	.L502:
 2165 024c 9944     		add	r9, r9, r3
 2166 024e 2C46     		mov	r4, r5
 2167 0250 4FF00408 		mov	r8, #4
 2168 0254 36E7     		b	.L544
 2169              	.L611:
 2170 0256 4FEA8A0A 		lsl	r10, r10, #2
 2171 025a 0AF00C00 		and	r0, r10, #12
 2172 025e 5FFA8AFA 		uxtb	r10, r10
 2173 0262 0C28     		cmp	r0, #12
 2174 0264 90D1     		bne	.L609
 2175              	.L536:
 2176 0266 48F00208 		orr	r8, r8, #2
 2177 026a 3046     		mov	r0, r6
 2178 026c 86F82F80 		strb	r8, [r6, #47]
 2179 0270 FFF7FEFF 		bl	dir_find
 2180 0274 96F82F30 		ldrb	r3, [r6, #47]	@ zero_extendqisi2
 2181 0278 0028     		cmp	r0, #0
 2182 027a 9CD0     		beq	.L539
 2183              	.L612:
 2184 027c 0428     		cmp	r0, #4
 2185 027e 7FF402AF 		bne	.L556
 2186 0282 13F0040F 		tst	r3, #4
 2187 0286 08BF     		it	eq
 2188 0288 0520     		moveq	r0, #5
 2189 028a FCE6     		b	.L556
 2190              	.L613:
 2191 028c CDE90032 		strd	r3, r2, [sp]
 2192 0290 FFF7FEFF 		bl	ff_convert
 2193 0294 DDE90032 		ldrd	r3, r2, [sp]
 2194 0298 10B9     		cbnz	r0, .L526
 2195 029a 48F00208 		orr	r8, r8, #2
 2196 029e BDE7     		b	.L527
 2197              	.L526:
 2198 02a0 2149     		ldr	r1, .L616+4
 2199 02a2 48F00208 		orr	r8, r8, #2
 2200 02a6 0844     		add	r0, r0, r1
ARM GAS  /var/folders/lg/77ksxqjx0n7gwph6nqpzcmcw0000gn/T//ccz0FbIE.s 			page 39


 2201 02a8 10F8800C 		ldrb	r0, [r0, #-128]	@ zero_extendqisi2
 2202 02ac 0028     		cmp	r0, #0
 2203 02ae B5D0     		beq	.L527
 2204 02b0 AAE7     		b	.L525
 2205              	.L529:
 2206 02b2 A0F14101 		sub	r1, r0, #65
 2207 02b6 1929     		cmp	r1, #25
 2208 02b8 0ED8     		bhi	.L615
 2209 02ba 4AF0020A 		orr	r10, r10, #2
 2210 02be C0B2     		uxtb	r0, r0
 2211 02c0 AFE7     		b	.L531
 2212              	.L610:
 2213 02c2 8023     		movs	r3, #128
 2214 02c4 3046     		mov	r0, r6
 2215 02c6 86F82F30 		strb	r3, [r6, #47]
 2216 02ca 03B0     		add	sp, sp, #12
 2217              		@ sp needed
 2218 02cc BDE8F04F 		pop	{r4, r5, r6, r7, r8, r9, r10, fp, lr}
 2219 02d0 FFF7FEBF 		b	dir_sdi
 2220              	.L548:
 2221 02d4 0125     		movs	r5, #1
 2222 02d6 1FE7     		b	.L508
 2223              	.L615:
 2224 02d8 A0F16101 		sub	r1, r0, #97
 2225 02dc 1929     		cmp	r1, #25
 2226 02de 9CBF     		itt	ls
 2227 02e0 2038     		subls	r0, r0, #32
 2228 02e2 4AF0010A 		orrls	r10, r10, #1
 2229 02e6 C0B2     		uxtb	r0, r0
 2230 02e8 9BE7     		b	.L531
 2231              	.L546:
 2232 02ea 9146     		mov	r9, r2
 2233 02ec E6E6     		b	.L495
 2234              	.L549:
 2235 02ee 0520     		movs	r0, #5
 2236 02f0 C9E6     		b	.L556
 2237              	.L614:
 2238 02f2 5E46     		mov	r6, fp
 2239 02f4 9B46     		mov	fp, r3
 2240 02f6 9146     		mov	r9, r2
 2241 02f8 48F00308 		orr	r8, r8, #3
 2242 02fc 96F82430 		ldrb	r3, [r6, #36]	@ zero_extendqisi2
 2243 0300 E52B     		cmp	r3, #229
 2244 0302 7FF439AF 		bne	.L523
 2245 0306 0523     		movs	r3, #5
 2246 0308 86F82430 		strb	r3, [r6, #36]
 2247 030c 34E7     		b	.L523
 2248              	.L513:
 2249 030e 96F82430 		ldrb	r3, [r6, #36]	@ zero_extendqisi2
 2250 0312 E52B     		cmp	r3, #229
 2251 0314 7FF446AF 		bne	.L533
 2252 0318 0523     		movs	r3, #5
 2253 031a 8246     		mov	r10, r0
 2254 031c 86F82430 		strb	r3, [r6, #36]
 2255 0320 32E7     		b	.L609
 2256              	.L617:
 2257 0322 00BF     		.align	2
ARM GAS  /var/folders/lg/77ksxqjx0n7gwph6nqpzcmcw0000gn/T//ccz0FbIE.s 			page 40


 2258              	.L616:
 2259 0324 00000000 		.word	.LC0
 2260 0328 00000000 		.word	.LANCHOR5
 2261 032c 0C000000 		.word	.LC1
 2263              		.section	.text.dir_register,"ax",%progbits
 2264              		.align	1
 2265              		.p2align 2,,3
 2266              		.syntax unified
 2267              		.thumb
 2268              		.thumb_func
 2269              		.fpu fpv5-d16
 2271              	dir_register:
 2272              		@ args = 0, pretend = 0, frame = 40
 2273              		@ frame_needed = 0, uses_anonymous_args = 0
 2274 0000 2DE9F04F 		push	{r4, r5, r6, r7, r8, r9, r10, fp, lr}
 2275 0004 2DED028B 		vpush.64	{d8}
 2276 0008 90F82F50 		ldrb	r5, [r0, #47]	@ zero_extendqisi2
 2277 000c 8BB0     		sub	sp, sp, #44
 2278 000e 15F0A005 		ands	r5, r5, #160
 2279 0012 40F0FF80 		bne	.L662
 2280 0016 0668     		ldr	r6, [r0]
 2281 0018 0446     		mov	r4, r0
 2282 001a F368     		ldr	r3, [r6, #12]
 2283 001c 1A88     		ldrh	r2, [r3]
 2284 001e 002A     		cmp	r2, #0
 2285 0020 00F09681 		beq	.L663
 2286              	.L621:
 2287 0024 33F8022F 		ldrh	r2, [r3, #2]!
 2288 0028 0135     		adds	r5, r5, #1
 2289 002a 002A     		cmp	r2, #0
 2290 002c FAD1     		bne	.L621
 2291              	.L620:
 2292 002e 04F12407 		add	r7, r4, #36
 2293 0032 0C22     		movs	r2, #12
 2294 0034 07A8     		add	r0, sp, #28
 2295 0036 3946     		mov	r1, r7
 2296 0038 FFF7FEFF 		bl	mem_cpy.part.0
 2297 003c 9DF82730 		ldrb	r3, [sp, #39]	@ zero_extendqisi2
 2298 0040 DA07     		lsls	r2, r3, #31
 2299 0042 7AD5     		bpl	.L622
 2300 0044 4023     		movs	r3, #64
 2301 0046 4FF0010A 		mov	r10, #1
 2302 004a 6FF02308 		mvn	r8, #35
 2303 004e 0B22     		movs	r2, #11
 2304 0050 84F82F30 		strb	r3, [r4, #47]
 2305 0054 07A9     		add	r1, sp, #28
 2306 0056 3846     		mov	r0, r7
 2307 0058 A8EB0408 		sub	r8, r8, r4
 2308 005c FFF7FEFF 		bl	mem_cpy.part.0
 2309 0060 DFF8FC92 		ldr	r9, .L707+4
 2310 0064 5346     		mov	r3, r10
 2311              	.L623:
 2312 0066 0DF11B0C 		add	ip, sp, #27
 2313 006a 0722     		movs	r2, #7
 2314              	.L629:
 2315 006c 03F00F00 		and	r0, r3, #15
 2316 0070 4FEA131E 		lsr	lr, r3, #4
ARM GAS  /var/folders/lg/77ksxqjx0n7gwph6nqpzcmcw0000gn/T//ccz0FbIE.s 			page 41


 2317 0074 013A     		subs	r2, r2, #1
 2318 0076 00F13001 		add	r1, r0, #48
 2319 007a 3929     		cmp	r1, #57
 2320 007c 88BF     		it	hi
 2321 007e 00F13701 		addhi	r1, r0, #55
 2322 0082 0F2B     		cmp	r3, #15
 2323 0084 7346     		mov	r3, lr
 2324 0086 0CF80119 		strb	r1, [ip], #-1
 2325 008a EFD8     		bhi	.L629
 2326 008c 0AAB     		add	r3, sp, #40
 2327 008e 7E21     		movs	r1, #126
 2328 0090 1344     		add	r3, r3, r2
 2329 0092 03F8141C 		strb	r1, [r3, #-20]
 2330 0096 002A     		cmp	r2, #0
 2331 0098 00F0BA80 		beq	.L667
 2332 009c 04F12301 		add	r1, r4, #35
 2333 00a0 0023     		movs	r3, #0
 2334 00a2 02E0     		b	.L631
 2335              	.L632:
 2336 00a4 0133     		adds	r3, r3, #1
 2337 00a6 9A42     		cmp	r2, r3
 2338 00a8 03D0     		beq	.L630
 2339              	.L631:
 2340 00aa 11F8010F 		ldrb	r0, [r1, #1]!	@ zero_extendqisi2
 2341 00ae 2028     		cmp	r0, #32
 2342 00b0 F8D1     		bne	.L632
 2343              	.L630:
 2344 00b2 2433     		adds	r3, r3, #36
 2345 00b4 2344     		add	r3, r3, r4
 2346              	.L634:
 2347 00b6 0AA9     		add	r1, sp, #40
 2348 00b8 072A     		cmp	r2, #7
 2349 00ba 01EB0200 		add	r0, r1, r2
 2350 00be 4FF02001 		mov	r1, #32
 2351 00c2 02D8     		bhi	.L633
 2352 00c4 10F8141C 		ldrb	r1, [r0, #-20]	@ zero_extendqisi2
 2353 00c8 0132     		adds	r2, r2, #1
 2354              	.L633:
 2355 00ca 03F8011B 		strb	r1, [r3], #1
 2356 00ce 08EB0301 		add	r1, r8, r3
 2357 00d2 0729     		cmp	r1, #7
 2358 00d4 EFD9     		bls	.L634
 2359 00d6 2046     		mov	r0, r4
 2360 00d8 FFF7FEFF 		bl	dir_find
 2361 00dc 8346     		mov	fp, r0
 2362 00de 30BB     		cbnz	r0, .L635
 2363 00e0 0AF1010A 		add	r10, r10, #1
 2364 00e4 BAF1640F 		cmp	r10, #100
 2365 00e8 00F08A80 		beq	.L661
 2366 00ec 0B22     		movs	r2, #11
 2367 00ee 07A9     		add	r1, sp, #28
 2368 00f0 3846     		mov	r0, r7
 2369 00f2 D6F80CB0 		ldr	fp, [r6, #12]
 2370 00f6 FFF7FEFF 		bl	mem_cpy.part.0
 2371 00fa BAF1050F 		cmp	r10, #5
 2372 00fe 79D9     		bls	.L665
 2373 0100 BBF80020 		ldrh	r2, [fp]
ARM GAS  /var/folders/lg/77ksxqjx0n7gwph6nqpzcmcw0000gn/T//ccz0FbIE.s 			page 42


 2374 0104 002A     		cmp	r2, #0
 2375 0106 75D0     		beq	.L665
 2376 0108 DC46     		mov	ip, fp
 2377 010a 5346     		mov	r3, r10
 2378              	.L627:
 2379 010c 1021     		movs	r1, #16
 2380              	.L626:
 2381 010e 02F00100 		and	r0, r2, #1
 2382 0112 5208     		lsrs	r2, r2, #1
 2383 0114 00EB4303 		add	r3, r0, r3, lsl #1
 2384 0118 D803     		lsls	r0, r3, #15
 2385 011a 48BF     		it	mi
 2386 011c 83EA0903 		eormi	r3, r3, r9
 2387 0120 0139     		subs	r1, r1, #1
 2388 0122 F4D1     		bne	.L626
 2389 0124 3CF8022F 		ldrh	r2, [ip, #2]!
 2390 0128 002A     		cmp	r2, #0
 2391 012a EFD1     		bne	.L627
 2392 012c 9BE7     		b	.L623
 2393              	.L635:
 2394 012e 0428     		cmp	r0, #4
 2395 0130 50D1     		bne	.L674
 2396 0132 9DF82730 		ldrb	r3, [sp, #39]	@ zero_extendqisi2
 2397 0136 84F82F30 		strb	r3, [r4, #47]
 2398              	.L622:
 2399 013a 9B07     		lsls	r3, r3, #30
 2400 013c 50D4     		bmi	.L702
 2401 013e 4FF00108 		mov	r8, #1
 2402              	.L637:
 2403 0142 0021     		movs	r1, #0
 2404 0144 2046     		mov	r0, r4
 2405 0146 D4F80090 		ldr	r9, [r4]
 2406 014a FFF7FEFF 		bl	dir_sdi
 2407 014e 8346     		mov	fp, r0
 2408 0150 0028     		cmp	r0, #0
 2409 0152 52D1     		bne	.L638
 2410 0154 0546     		mov	r5, r0
 2411 0156 08E0     		b	.L645
 2412              	.L703:
 2413 0158 5209     		lsrs	r2, r2, #5
 2414 015a BBB1     		cbz	r3, .L640
 2415 015c 1546     		mov	r5, r2
 2416              	.L641:
 2417 015e 0121     		movs	r1, #1
 2418 0160 2046     		mov	r0, r4
 2419 0162 FFF7FEFF 		bl	dir_next
 2420 0166 0028     		cmp	r0, #0
 2421 0168 46D1     		bne	.L670
 2422              	.L645:
 2423 016a E169     		ldr	r1, [r4, #28]
 2424 016c 0135     		adds	r5, r5, #1
 2425 016e D9F83030 		ldr	r3, [r9, #48]
 2426 0172 4846     		mov	r0, r9
 2427 0174 9942     		cmp	r1, r3
 2428 0176 03D0     		beq	.L642
 2429 0178 FFF7FEFF 		bl	move_window.part.0
 2430 017c 0028     		cmp	r0, #0
ARM GAS  /var/folders/lg/77ksxqjx0n7gwph6nqpzcmcw0000gn/T//ccz0FbIE.s 			page 43


 2431 017e 3BD1     		bne	.L670
 2432              	.L642:
 2433 0180 236A     		ldr	r3, [r4, #32]
 2434 0182 1B78     		ldrb	r3, [r3]	@ zero_extendqisi2
 2435 0184 E52B     		cmp	r3, #229
 2436 0186 B3FA83F2 		clz	r2, r3
 2437 018a E5D1     		bne	.L703
 2438              	.L640:
 2439 018c A845     		cmp	r8, r5
 2440 018e E6D1     		bne	.L641
 2441 0190 B8F10103 		subs	r3, r8, #1
 2442 0194 0193     		str	r3, [sp, #4]
 2443 0196 4CD1     		bne	.L704
 2444              	.L644:
 2445 0198 E169     		ldr	r1, [r4, #28]
 2446 019a 336B     		ldr	r3, [r6, #48]
 2447 019c 9942     		cmp	r1, r3
 2448 019e 04D0     		beq	.L647
 2449 01a0 3046     		mov	r0, r6
 2450 01a2 FFF7FEFF 		bl	move_window.part.0
 2451 01a6 0028     		cmp	r0, #0
 2452 01a8 3CD1     		bne	.L673
 2453              	.L647:
 2454 01aa 236A     		ldr	r3, [r4, #32]
 2455 01ac 0021     		movs	r1, #0
 2456 01ae 03F12002 		add	r2, r3, #32
 2457              	.L659:
 2458 01b2 03F8011B 		strb	r1, [r3], #1
 2459 01b6 9342     		cmp	r3, r2
 2460 01b8 FBD1     		bne	.L659
 2461 01ba 3946     		mov	r1, r7
 2462 01bc 0B22     		movs	r2, #11
 2463 01be 206A     		ldr	r0, [r4, #32]
 2464 01c0 FFF7FEFF 		bl	mem_cpy.part.0
 2465 01c4 94F82F30 		ldrb	r3, [r4, #47]	@ zero_extendqisi2
 2466 01c8 216A     		ldr	r1, [r4, #32]
 2467 01ca 0122     		movs	r2, #1
 2468 01cc 03F01803 		and	r3, r3, #24
 2469 01d0 0B73     		strb	r3, [r1, #12]
 2470 01d2 F270     		strb	r2, [r6, #3]
 2471              	.L674:
 2472 01d4 5846     		mov	r0, fp
 2473 01d6 0BB0     		add	sp, sp, #44
 2474              		@ sp needed
 2475 01d8 BDEC028B 		vldm	sp!, {d8}
 2476 01dc BDE8F08F 		pop	{r4, r5, r6, r7, r8, r9, r10, fp, pc}
 2477              	.L702:
 2478 01e0 05F10C08 		add	r8, r5, #12
 2479 01e4 5D4D     		ldr	r5, .L707
 2480 01e6 A5FB0838 		umull	r3, r8, r5, r8
 2481 01ea 4FEA9808 		lsr	r8, r8, #2
 2482 01ee 08F10108 		add	r8, r8, #1
 2483 01f2 A6E7     		b	.L637
 2484              	.L665:
 2485 01f4 5346     		mov	r3, r10
 2486 01f6 36E7     		b	.L623
 2487              	.L670:
ARM GAS  /var/folders/lg/77ksxqjx0n7gwph6nqpzcmcw0000gn/T//ccz0FbIE.s 			page 44


 2488 01f8 8346     		mov	fp, r0
 2489              	.L638:
 2490 01fa BBF1040F 		cmp	fp, #4
 2491 01fe E9D1     		bne	.L674
 2492              	.L661:
 2493 0200 4FF0070B 		mov	fp, #7
 2494 0204 5846     		mov	r0, fp
 2495 0206 0BB0     		add	sp, sp, #44
 2496              		@ sp needed
 2497 0208 BDEC028B 		vldm	sp!, {d8}
 2498 020c BDE8F08F 		pop	{r4, r5, r6, r7, r8, r9, r10, fp, pc}
 2499              	.L667:
 2500 0210 1346     		mov	r3, r2
 2501 0212 4EE7     		b	.L630
 2502              	.L662:
 2503 0214 4FF0060B 		mov	fp, #6
 2504 0218 5846     		mov	r0, fp
 2505 021a 0BB0     		add	sp, sp, #44
 2506              		@ sp needed
 2507 021c BDEC028B 		vldm	sp!, {d8}
 2508 0220 BDE8F08F 		pop	{r4, r5, r6, r7, r8, r9, r10, fp, pc}
 2509              	.L673:
 2510 0224 8346     		mov	fp, r0
 2511 0226 5846     		mov	r0, fp
 2512 0228 0BB0     		add	sp, sp, #44
 2513              		@ sp needed
 2514 022a BDEC028B 		vldm	sp!, {d8}
 2515 022e BDE8F08F 		pop	{r4, r5, r6, r7, r8, r9, r10, fp, pc}
 2516              	.L704:
 2517 0232 6169     		ldr	r1, [r4, #20]
 2518 0234 2046     		mov	r0, r4
 2519 0236 019B     		ldr	r3, [sp, #4]
 2520 0238 A1EB4311 		sub	r1, r1, r3, lsl #5
 2521 023c FFF7FEFF 		bl	dir_sdi
 2522 0240 0290     		str	r0, [sp, #8]
 2523 0242 0028     		cmp	r0, #0
 2524 0244 40F08680 		bne	.L671
 2525 0248 04F12F01 		add	r1, r4, #47
 2526 024c 3B46     		mov	r3, r7
 2527              	.L648:
 2528 024e C201     		lsls	r2, r0, #7
 2529 0250 13F8015B 		ldrb	r5, [r3], #1	@ zero_extendqisi2
 2530 0254 42EA5002 		orr	r2, r2, r0, lsr #1
 2531 0258 8B42     		cmp	r3, r1
 2532 025a 55FA82F2 		uxtab	r2, r5, r2
 2533 025e D0B2     		uxtb	r0, r2
 2534 0260 F5D1     		bne	.L648
 2535 0262 DFF800A1 		ldr	r10, .L707+8
 2536 0266 08EE107A 		vmov	s16, r7	@ int
 2537 026a 0290     		str	r0, [sp, #8]
 2538 026c CDF80CB0 		str	fp, [sp, #12]
 2539              	.L658:
 2540 0270 E169     		ldr	r1, [r4, #28]
 2541 0272 336B     		ldr	r3, [r6, #48]
 2542 0274 9942     		cmp	r1, r3
 2543 0276 04D0     		beq	.L651
 2544 0278 3046     		mov	r0, r6
ARM GAS  /var/folders/lg/77ksxqjx0n7gwph6nqpzcmcw0000gn/T//ccz0FbIE.s 			page 45


 2545 027a FFF7FEFF 		bl	move_window.part.0
 2546 027e 0028     		cmp	r0, #0
 2547 0280 D0D1     		bne	.L673
 2548              	.L651:
 2549 0282 9DF804B0 		ldrb	fp, [sp, #4]	@ zero_extendqisi2
 2550 0286 4FF0000C 		mov	ip, #0
 2551 028a 216A     		ldr	r1, [r4, #32]
 2552 028c 0125     		movs	r5, #1
 2553 028e 0BF1FF30 		add	r0, fp, #-1
 2554 0292 029B     		ldr	r3, [sp, #8]
 2555 0294 F768     		ldr	r7, [r6, #12]
 2556 0296 6246     		mov	r2, ip
 2557 0298 00EB400E 		add	lr, r0, r0, lsl #1
 2558 029c 4B73     		strb	r3, [r1, #13]
 2559 029e 4FF6FF79 		movw	r9, #65535
 2560 02a2 6346     		mov	r3, ip
 2561 02a4 00EB8E00 		add	r0, r0, lr, lsl #2
 2562 02a8 4FF00F0E 		mov	lr, #15
 2563 02ac 4FF0FF08 		mov	r8, #255
 2564 02b0 81F80CC0 		strb	ip, [r1, #12]
 2565 02b4 81F80BE0 		strb	lr, [r1, #11]
 2566 02b8 81F81AC0 		strb	ip, [r1, #26]
 2567 02bc 81F81BC0 		strb	ip, [r1, #27]
 2568 02c0 18E0     		b	.L650
 2569              	.L705:
 2570 02c2 37F81020 		ldrh	r2, [r7, r0, lsl #1]
 2571 02c6 100A     		lsrs	r0, r2, #8
 2572 02c8 4A55     		strb	r2, [r1, r5]
 2573 02ca 8CF80100 		strb	r0, [ip, #1]
 2574 02ce 5AB9     		cbnz	r2, .L653
 2575 02d0 0133     		adds	r3, r3, #1
 2576 02d2 4FF6FF72 		movw	r2, #65535
 2577 02d6 0D2B     		cmp	r3, #13
 2578 02d8 24D0     		beq	.L657
 2579 02da 1AF80300 		ldrb	r0, [r10, r3]	@ zero_extendqisi2
 2580 02de 0D18     		adds	r5, r1, r0
 2581 02e0 01F80080 		strb	r8, [r1, r0]
 2582 02e4 85F80180 		strb	r8, [r5, #1]
 2583              	.L653:
 2584 02e8 0133     		adds	r3, r3, #1
 2585 02ea 7046     		mov	r0, lr
 2586 02ec 0D2B     		cmp	r3, #13
 2587 02ee 12D0     		beq	.L656
 2588              	.L706:
 2589 02f0 1AF80350 		ldrb	r5, [r10, r3]	@ zero_extendqisi2
 2590              	.L650:
 2591 02f4 4A45     		cmp	r2, r9
 2592 02f6 01EB050C 		add	ip, r1, r5
 2593 02fa 00F1010E 		add	lr, r0, #1
 2594 02fe E0D1     		bne	.L705
 2595 0300 0133     		adds	r3, r3, #1
 2596 0302 01EB050C 		add	ip, r1, r5
 2597 0306 8646     		mov	lr, r0
 2598 0308 01F80580 		strb	r8, [r1, r5]
 2599 030c 0D2B     		cmp	r3, #13
 2600 030e 8CF80180 		strb	r8, [ip, #1]
 2601 0312 7046     		mov	r0, lr
ARM GAS  /var/folders/lg/77ksxqjx0n7gwph6nqpzcmcw0000gn/T//ccz0FbIE.s 			page 46


 2602 0314 ECD1     		bne	.L706
 2603              	.L656:
 2604 0316 4FF6FF73 		movw	r3, #65535
 2605 031a 9A42     		cmp	r2, r3
 2606 031c 02D0     		beq	.L657
 2607 031e 37F81E30 		ldrh	r3, [r7, lr, lsl #1]
 2608 0322 0BB9     		cbnz	r3, .L655
 2609              	.L657:
 2610 0324 4BF0400B 		orr	fp, fp, #64
 2611              	.L655:
 2612 0328 0123     		movs	r3, #1
 2613 032a 81F800B0 		strb	fp, [r1]
 2614 032e 2046     		mov	r0, r4
 2615 0330 0021     		movs	r1, #0
 2616 0332 F370     		strb	r3, [r6, #3]
 2617 0334 FFF7FEFF 		bl	dir_next
 2618 0338 0028     		cmp	r0, #0
 2619 033a 7FF473AF 		bne	.L673
 2620 033e 019B     		ldr	r3, [sp, #4]
 2621 0340 013B     		subs	r3, r3, #1
 2622 0342 0193     		str	r3, [sp, #4]
 2623 0344 94D1     		bne	.L658
 2624 0346 18EE107A 		vmov	r7, s16	@ int
 2625 034a DDF80CB0 		ldr	fp, [sp, #12]
 2626 034e 23E7     		b	.L644
 2627              	.L663:
 2628 0350 1546     		mov	r5, r2
 2629 0352 6CE6     		b	.L620
 2630              	.L671:
 2631 0354 DDF808B0 		ldr	fp, [sp, #8]
 2632 0358 3CE7     		b	.L674
 2633              	.L708:
 2634 035a 00BF     		.align	2
 2635              	.L707:
 2636 035c 4FECC44E 		.word	1321528399
 2637 0360 21100100 		.word	69665
 2638 0364 00000000 		.word	.LANCHOR4
 2640              		.section	.text.get_fileinfo,"ax",%progbits
 2641              		.align	1
 2642              		.p2align 2,,3
 2643              		.syntax unified
 2644              		.thumb
 2645              		.thumb_func
 2646              		.fpu fpv5-d16
 2648              	get_fileinfo:
 2649              		@ args = 0, pretend = 0, frame = 0
 2650              		@ frame_needed = 0, uses_anonymous_args = 0
 2651 0000 2DE9F041 		push	{r4, r5, r6, r7, r8, lr}
 2652 0004 0027     		movs	r7, #0
 2653 0006 D0F80080 		ldr	r8, [r0]
 2654 000a 8F75     		strb	r7, [r1, #22]
 2655 000c C369     		ldr	r3, [r0, #28]
 2656 000e 002B     		cmp	r3, #0
 2657 0010 66D0     		beq	.L709
 2658 0012 036B     		ldr	r3, [r0, #48]
 2659 0014 0646     		mov	r6, r0
 2660 0016 0D46     		mov	r5, r1
ARM GAS  /var/folders/lg/77ksxqjx0n7gwph6nqpzcmcw0000gn/T//ccz0FbIE.s 			page 47


 2661 0018 0133     		adds	r3, r3, #1
 2662 001a 1ED0     		beq	.L711
 2663 001c D8F80C30 		ldr	r3, [r8, #12]
 2664 0020 1888     		ldrh	r0, [r3]
 2665 0022 0028     		cmp	r0, #0
 2666 0024 6CD0     		beq	.L714
 2667 0026 01F11507 		add	r7, r1, #21
 2668 002a 0124     		movs	r4, #1
 2669 002c 00E0     		b	.L715
 2670              	.L726:
 2671 002e 1C46     		mov	r4, r3
 2672              	.L715:
 2673 0030 0021     		movs	r1, #0
 2674 0032 FFF7FEFF 		bl	ff_convert
 2675 0036 631C     		adds	r3, r4, #1
 2676 0038 0028     		cmp	r0, #0
 2677 003a 61D0     		beq	.L714
 2678 003c B4F5807F 		cmp	r4, #256
 2679 0040 5ED0     		beq	.L714
 2680 0042 07F8010F 		strb	r0, [r7, #1]!
 2681 0046 D8F80C20 		ldr	r2, [r8, #12]
 2682 004a 32F81400 		ldrh	r0, [r2, r4, lsl #1]
 2683 004e 0028     		cmp	r0, #0
 2684 0050 EDD1     		bne	.L726
 2685 0052 2C44     		add	r4, r4, r5
 2686 0054 0023     		movs	r3, #0
 2687 0056 A375     		strb	r3, [r4, #22]
 2688 0058 AF7D     		ldrb	r7, [r5, #22]	@ zero_extendqisi2
 2689              	.L711:
 2690 005a 366A     		ldr	r6, [r6, #32]
 2691 005c 0024     		movs	r4, #0
 2692 005e 4FF02E08 		mov	r8, #46
 2693 0062 701E     		subs	r0, r6, #1
 2694 0064 06F10A0C 		add	ip, r6, #10
 2695              	.L723:
 2696 0068 0246     		mov	r2, r0
 2697 006a 10F8013F 		ldrb	r3, [r0, #1]!	@ zero_extendqisi2
 2698 006e 202B     		cmp	r3, #32
 2699 0070 1CD0     		beq	.L716
 2700 0072 0232     		adds	r2, r2, #2
 2701 0074 052B     		cmp	r3, #5
 2702 0076 A2EB0602 		sub	r2, r2, r6
 2703 007a 08BF     		it	eq
 2704 007c E523     		moveq	r3, #229
 2705 007e 092A     		cmp	r2, #9
 2706 0080 30D0     		beq	.L743
 2707              	.L718:
 2708 0082 2919     		adds	r1, r5, r4
 2709 0084 4B72     		strb	r3, [r1, #9]
 2710 0086 87B9     		cbnz	r7, .L720
 2711 0088 A3F1410E 		sub	lr, r3, #65
 2712 008c BEF1190F 		cmp	lr, #25
 2713 0090 0AD8     		bhi	.L721
 2714 0092 092A     		cmp	r2, #9
 2715 0094 96F80CE0 		ldrb	lr, [r6, #12]	@ zero_extendqisi2
 2716 0098 34BF     		ite	cc
 2717 009a 0822     		movcc	r2, #8
ARM GAS  /var/folders/lg/77ksxqjx0n7gwph6nqpzcmcw0000gn/T//ccz0FbIE.s 			page 48


 2718 009c 1022     		movcs	r2, #16
 2719 009e 1EEA020F 		tst	lr, r2
 2720 00a2 01D0     		beq	.L721
 2721 00a4 2033     		adds	r3, r3, #32
 2722 00a6 DBB2     		uxtb	r3, r3
 2723              	.L721:
 2724 00a8 8B75     		strb	r3, [r1, #22]
 2725              	.L720:
 2726 00aa 0134     		adds	r4, r4, #1
 2727              	.L716:
 2728 00ac 6045     		cmp	r0, ip
 2729 00ae DBD1     		bne	.L723
 2730 00b0 2919     		adds	r1, r5, r4
 2731 00b2 FFB1     		cbz	r7, .L741
 2732              	.L724:
 2733 00b4 0023     		movs	r3, #0
 2734 00b6 4B72     		strb	r3, [r1, #9]
 2735 00b8 F37A     		ldrb	r3, [r6, #11]	@ zero_extendqisi2
 2736 00ba 2B72     		strb	r3, [r5, #8]
 2737 00bc F18B     		ldrh	r1, [r6, #30]	@ unaligned
 2738 00be 727F     		ldrb	r2, [r6, #29]	@ zero_extendqisi2
 2739 00c0 337F     		ldrb	r3, [r6, #28]	@ zero_extendqisi2
 2740 00c2 42EA0122 		orr	r2, r2, r1, lsl #8
 2741 00c6 43EA0223 		orr	r3, r3, r2, lsl #8
 2742 00ca 2B60     		str	r3, [r5]
 2743 00cc 318B     		ldrh	r1, [r6, #24]	@ unaligned
 2744 00ce F27D     		ldrb	r2, [r6, #23]	@ zero_extendqisi2
 2745 00d0 B37D     		ldrb	r3, [r6, #22]	@ zero_extendqisi2
 2746 00d2 42EA0122 		orr	r2, r2, r1, lsl #8
 2747 00d6 43EA0223 		orr	r3, r3, r2, lsl #8
 2748 00da 1A0C     		lsrs	r2, r3, #16
 2749 00dc EB80     		strh	r3, [r5, #6]	@ movhi
 2750 00de AA80     		strh	r2, [r5, #4]	@ movhi
 2751              	.L709:
 2752 00e0 BDE8F081 		pop	{r4, r5, r6, r7, r8, pc}
 2753              	.L743:
 2754 00e4 2919     		adds	r1, r5, r4
 2755 00e6 0FB9     		cbnz	r7, .L719
 2756 00e8 81F81680 		strb	r8, [r1, #22]
 2757              	.L719:
 2758 00ec 0134     		adds	r4, r4, #1
 2759 00ee 81F80980 		strb	r8, [r1, #9]
 2760 00f2 C6E7     		b	.L718
 2761              	.L741:
 2762 00f4 8F75     		strb	r7, [r1, #22]
 2763 00f6 337B     		ldrb	r3, [r6, #12]	@ zero_extendqisi2
 2764 00f8 002B     		cmp	r3, #0
 2765 00fa 08BF     		it	eq
 2766 00fc 2946     		moveq	r1, r5
 2767 00fe D9E7     		b	.L724
 2768              	.L714:
 2769 0100 0024     		movs	r4, #0
 2770 0102 0023     		movs	r3, #0
 2771 0104 2C44     		add	r4, r4, r5
 2772 0106 A375     		strb	r3, [r4, #22]
 2773 0108 AF7D     		ldrb	r7, [r5, #22]	@ zero_extendqisi2
 2774 010a A6E7     		b	.L711
ARM GAS  /var/folders/lg/77ksxqjx0n7gwph6nqpzcmcw0000gn/T//ccz0FbIE.s 			page 49


 2776              		.section	.text.dir_read.constprop.0,"ax",%progbits
 2777              		.align	1
 2778              		.p2align 2,,3
 2779              		.syntax unified
 2780              		.thumb
 2781              		.thumb_func
 2782              		.fpu fpv5-d16
 2784              	dir_read.constprop.0:
 2785              		@ args = 0, pretend = 0, frame = 0
 2786              		@ frame_needed = 0, uses_anonymous_args = 0
 2787 0000 2DE9F047 		push	{r4, r5, r6, r7, r8, r9, r10, lr}
 2788 0004 0446     		mov	r4, r0
 2789 0006 FF26     		movs	r6, #255
 2790 0008 0420     		movs	r0, #4
 2791 000a 3546     		mov	r5, r6
 2792 000c 2768     		ldr	r7, [r4]
 2793 000e 06E0     		b	.L745
 2794              	.L772:
 2795 0010 FF25     		movs	r5, #255
 2796              	.L750:
 2797 0012 0021     		movs	r1, #0
 2798 0014 2046     		mov	r0, r4
 2799 0016 FFF7FEFF 		bl	dir_next
 2800 001a 0028     		cmp	r0, #0
 2801 001c 58D1     		bne	.L747
 2802              	.L745:
 2803 001e E169     		ldr	r1, [r4, #28]
 2804 0020 0029     		cmp	r1, #0
 2805 0022 59D0     		beq	.L783
 2806 0024 3B6B     		ldr	r3, [r7, #48]
 2807 0026 8B42     		cmp	r3, r1
 2808 0028 04D0     		beq	.L749
 2809 002a 3846     		mov	r0, r7
 2810 002c FFF7FEFF 		bl	move_window.part.0
 2811 0030 0028     		cmp	r0, #0
 2812 0032 4DD1     		bne	.L747
 2813              	.L749:
 2814 0034 216A     		ldr	r1, [r4, #32]
 2815 0036 0A78     		ldrb	r2, [r1]	@ zero_extendqisi2
 2816 0038 002A     		cmp	r2, #0
 2817 003a 48D0     		beq	.L784
 2818 003c CB7A     		ldrb	r3, [r1, #11]	@ zero_extendqisi2
 2819 003e E52A     		cmp	r2, #229
 2820 0040 03F03F03 		and	r3, r3, #63
 2821 0044 A371     		strb	r3, [r4, #6]
 2822 0046 E3D0     		beq	.L772
 2823 0048 2E2A     		cmp	r2, #46
 2824 004a E1D0     		beq	.L772
 2825 004c 23F02000 		bic	r0, r3, #32
 2826 0050 0828     		cmp	r0, #8
 2827 0052 DDD0     		beq	.L772
 2828 0054 0F2B     		cmp	r3, #15
 2829 0056 4FD1     		bne	.L751
 2830 0058 5006     		lsls	r0, r2, #25
 2831 005a 35D5     		bpl	.L752
 2832 005c 6369     		ldr	r3, [r4, #20]
 2833 005e 02F0BF05 		and	r5, r2, #191
ARM GAS  /var/folders/lg/77ksxqjx0n7gwph6nqpzcmcw0000gn/T//ccz0FbIE.s 			page 50


 2834 0062 4E7B     		ldrb	r6, [r1, #13]	@ zero_extendqisi2
 2835 0064 2363     		str	r3, [r4, #48]
 2836              	.L753:
 2837 0066 4B7B     		ldrb	r3, [r1, #13]	@ zero_extendqisi2
 2838 0068 B342     		cmp	r3, r6
 2839 006a D1D1     		bne	.L772
 2840 006c CA7E     		ldrb	r2, [r1, #27]	@ zero_extendqisi2
 2841 006e 8B7E     		ldrb	r3, [r1, #26]	@ zero_extendqisi2
 2842 0070 53EA0223 		orrs	r3, r3, r2, lsl #8
 2843 0074 CCD1     		bne	.L772
 2844 0076 0A78     		ldrb	r2, [r1]	@ zero_extendqisi2
 2845 0078 0123     		movs	r3, #1
 2846 007a 2948     		ldr	r0, .L786
 2847 007c 4FF6FF79 		movw	r9, #65535
 2848 0080 22F04002 		bic	r2, r2, #64
 2849 0084 9C46     		mov	ip, r3
 2850 0086 00F10C0E 		add	lr, r0, #12
 2851 008a D7F80C80 		ldr	r8, [r7, #12]
 2852 008e 013A     		subs	r2, r2, #1
 2853 0090 02EB420A 		add	r10, r2, r2, lsl #1
 2854 0094 02EB8A02 		add	r2, r2, r10, lsl #2
 2855 0098 09E0     		b	.L757
 2856              	.L785:
 2857 009a FE2A     		cmp	r2, #254
 2858 009c 9C46     		mov	ip, r3
 2859 009e B7D8     		bhi	.L772
 2860 00a0 28F81230 		strh	r3, [r8, r2, lsl #1]	@ movhi
 2861 00a4 0132     		adds	r2, r2, #1
 2862              	.L755:
 2863 00a6 8645     		cmp	lr, r0
 2864 00a8 1BD0     		beq	.L756
 2865 00aa 10F8013F 		ldrb	r3, [r0, #1]!	@ zero_extendqisi2
 2866              	.L757:
 2867 00ae 01EB030A 		add	r10, r1, r3
 2868 00b2 CB5C     		ldrb	r3, [r1, r3]	@ zero_extendqisi2
 2869 00b4 9AF801A0 		ldrb	r10, [r10, #1]	@ zero_extendqisi2
 2870 00b8 43EA0A23 		orr	r3, r3, r10, lsl #8
 2871 00bc BCF1000F 		cmp	ip, #0
 2872 00c0 EBD1     		bne	.L785
 2873 00c2 4B45     		cmp	r3, r9
 2874 00c4 EFD0     		beq	.L755
 2875 00c6 A3E7     		b	.L772
 2876              	.L752:
 2877 00c8 AA42     		cmp	r2, r5
 2878 00ca A1D1     		bne	.L772
 2879 00cc CBE7     		b	.L753
 2880              	.L784:
 2881 00ce 0420     		movs	r0, #4
 2882              	.L747:
 2883 00d0 0023     		movs	r3, #0
 2884 00d2 E361     		str	r3, [r4, #28]
 2885              	.L761:
 2886 00d4 BDE8F087 		pop	{r4, r5, r6, r7, r8, r9, r10, pc}
 2887              	.L783:
 2888 00d8 0028     		cmp	r0, #0
 2889 00da F9D1     		bne	.L747
 2890              	.L763:
ARM GAS  /var/folders/lg/77ksxqjx0n7gwph6nqpzcmcw0000gn/T//ccz0FbIE.s 			page 51


 2891 00dc 0020     		movs	r0, #0
 2892 00de BDE8F087 		pop	{r4, r5, r6, r7, r8, r9, r10, pc}
 2893              	.L756:
 2894 00e2 0B78     		ldrb	r3, [r1]	@ zero_extendqisi2
 2895 00e4 5B06     		lsls	r3, r3, #25
 2896 00e6 04D5     		bpl	.L758
 2897 00e8 FE2A     		cmp	r2, #254
 2898 00ea 91D8     		bhi	.L772
 2899 00ec 0023     		movs	r3, #0
 2900 00ee 28F81230 		strh	r3, [r8, r2, lsl #1]	@ movhi
 2901              	.L758:
 2902 00f2 013D     		subs	r5, r5, #1
 2903 00f4 EDB2     		uxtb	r5, r5
 2904 00f6 8CE7     		b	.L750
 2905              	.L751:
 2906 00f8 6DB9     		cbnz	r5, .L759
 2907 00fa 01F10B00 		add	r0, r1, #11
 2908              	.L760:
 2909 00fe EB01     		lsls	r3, r5, #7
 2910 0100 11F8012B 		ldrb	r2, [r1], #1	@ zero_extendqisi2
 2911 0104 43EA5505 		orr	r5, r3, r5, lsr #1
 2912 0108 8142     		cmp	r1, r0
 2913 010a 52FA85F5 		uxtab	r5, r2, r5
 2914 010e EDB2     		uxtb	r5, r5
 2915 0110 F5D1     		bne	.L760
 2916 0112 B542     		cmp	r5, r6
 2917 0114 E2D0     		beq	.L763
 2918              	.L759:
 2919 0116 4FF0FF33 		mov	r3, #-1
 2920 011a 0020     		movs	r0, #0
 2921 011c 2363     		str	r3, [r4, #48]
 2922 011e D9E7     		b	.L761
 2923              	.L787:
 2924              		.align	2
 2925              	.L786:
 2926 0120 00000000 		.word	.LANCHOR4
 2928              		.section	.text.f_mount,"ax",%progbits
 2929              		.align	1
 2930              		.p2align 2,,3
 2931              		.global	f_mount
 2932              		.syntax unified
 2933              		.thumb
 2934              		.thumb_func
 2935              		.fpu fpv5-d16
 2937              	f_mount:
 2938              		@ args = 0, pretend = 0, frame = 16
 2939              		@ frame_needed = 0, uses_anonymous_args = 0
 2940 0000 30B5     		push	{r4, r5, lr}
 2941 0002 85B0     		sub	sp, sp, #20
 2942 0004 1446     		mov	r4, r2
 2943 0006 0190     		str	r0, [sp, #4]
 2944 0008 03A8     		add	r0, sp, #12
 2945 000a 0091     		str	r1, [sp]
 2946 000c 0391     		str	r1, [sp, #12]
 2947 000e FFF7FEFF 		bl	get_ldnumber
 2948 0012 031E     		subs	r3, r0, #0
 2949 0014 29DB     		blt	.L794
ARM GAS  /var/folders/lg/77ksxqjx0n7gwph6nqpzcmcw0000gn/T//ccz0FbIE.s 			page 52


 2950 0016 1649     		ldr	r1, .L803
 2951 0018 51F82320 		ldr	r2, [r1, r3, lsl #2]
 2952 001c 42B1     		cbz	r2, .L790
 2953 001e 1548     		ldr	r0, .L803+4
 2954 0020 0568     		ldr	r5, [r0]
 2955 0022 AA42     		cmp	r2, r5
 2956 0024 1BD0     		beq	.L801
 2957 0026 0569     		ldr	r5, [r0, #16]
 2958 0028 AA42     		cmp	r2, r5
 2959 002a 15D0     		beq	.L802
 2960              	.L792:
 2961 002c 0020     		movs	r0, #0
 2962 002e 1070     		strb	r0, [r2]
 2963              	.L790:
 2964 0030 019A     		ldr	r2, [sp, #4]
 2965 0032 62B1     		cbz	r2, .L793
 2966 0034 0020     		movs	r0, #0
 2967 0036 012C     		cmp	r4, #1
 2968 0038 1070     		strb	r0, [r2]
 2969 003a 41F82320 		str	r2, [r1, r3, lsl #2]
 2970 003e 04D1     		bne	.L799
 2971 0040 0246     		mov	r2, r0
 2972 0042 01A9     		add	r1, sp, #4
 2973 0044 6846     		mov	r0, sp
 2974 0046 FFF7FEFF 		bl	find_volume
 2975              	.L799:
 2976 004a 05B0     		add	sp, sp, #20
 2977              		@ sp needed
 2978 004c 30BD     		pop	{r4, r5, pc}
 2979              	.L793:
 2980 004e 1046     		mov	r0, r2
 2981 0050 41F82320 		str	r2, [r1, r3, lsl #2]
 2982 0054 05B0     		add	sp, sp, #20
 2983              		@ sp needed
 2984 0056 30BD     		pop	{r4, r5, pc}
 2985              	.L802:
 2986 0058 0025     		movs	r5, #0
 2987 005a 0561     		str	r5, [r0, #16]
 2988 005c E6E7     		b	.L792
 2989              	.L801:
 2990 005e 0025     		movs	r5, #0
 2991 0060 0560     		str	r5, [r0]
 2992 0062 0569     		ldr	r5, [r0, #16]
 2993 0064 AA42     		cmp	r2, r5
 2994 0066 E1D1     		bne	.L792
 2995 0068 F6E7     		b	.L802
 2996              	.L794:
 2997 006a 0B20     		movs	r0, #11
 2998 006c 05B0     		add	sp, sp, #20
 2999              		@ sp needed
 3000 006e 30BD     		pop	{r4, r5, pc}
 3001              	.L804:
 3002              		.align	2
 3003              	.L803:
 3004 0070 00000000 		.word	.LANCHOR1
 3005 0074 00000000 		.word	.LANCHOR0
 3007              		.section	.text.f_open,"ax",%progbits
ARM GAS  /var/folders/lg/77ksxqjx0n7gwph6nqpzcmcw0000gn/T//ccz0FbIE.s 			page 53


 3008              		.align	1
 3009              		.p2align 2,,3
 3010              		.global	f_open
 3011              		.syntax unified
 3012              		.thumb
 3013              		.thumb_func
 3014              		.fpu fpv5-d16
 3016              	f_open:
 3017              		@ args = 0, pretend = 0, frame = 64
 3018              		@ frame_needed = 0, uses_anonymous_args = 0
 3019 0000 2DE9F041 		push	{r4, r5, r6, r7, r8, lr}
 3020 0004 90B0     		sub	sp, sp, #64
 3021 0006 0191     		str	r1, [sp, #4]
 3022 0008 0028     		cmp	r0, #0
 3023 000a 38D0     		beq	.L837
 3024 000c 02F03F07 		and	r7, r2, #63
 3025 0010 1646     		mov	r6, r2
 3026 0012 0446     		mov	r4, r0
 3027 0014 02A9     		add	r1, sp, #8
 3028 0016 01A8     		add	r0, sp, #4
 3029 0018 3A46     		mov	r2, r7
 3030 001a FFF7FEFF 		bl	find_volume
 3031 001e 0546     		mov	r5, r0
 3032 0020 28B1     		cbz	r0, .L883
 3033              	.L807:
 3034 0022 0023     		movs	r3, #0
 3035 0024 2360     		str	r3, [r4]
 3036              	.L848:
 3037 0026 2846     		mov	r0, r5
 3038 0028 10B0     		add	sp, sp, #64
 3039              		@ sp needed
 3040 002a BDE8F081 		pop	{r4, r5, r6, r7, r8, pc}
 3041              	.L883:
 3042 002e DDE90113 		ldrd	r1, r3, [sp, #4]
 3043 0032 03A8     		add	r0, sp, #12
 3044 0034 0393     		str	r3, [sp, #12]
 3045 0036 FFF7FEFF 		bl	follow_path
 3046 003a 0346     		mov	r3, r0
 3047 003c D0B9     		cbnz	r0, .L808
 3048 003e 9DF93B30 		ldrsb	r3, [sp, #59]
 3049 0042 002B     		cmp	r3, #0
 3050 0044 3CDB     		blt	.L838
 3051 0046 17F03E0F 		tst	r7, #62
 3052 004a 03A8     		add	r0, sp, #12
 3053 004c 14BF     		ite	ne
 3054 004e 0121     		movne	r1, #1
 3055 0050 0021     		moveq	r1, #0
 3056 0052 FFF7FEFF 		bl	chk_lock
 3057 0056 16F01C0F 		tst	r6, #28
 3058 005a 0346     		mov	r3, r0
 3059 005c 14D0     		beq	.L809
 3060 005e 88BB     		cbnz	r0, .L836
 3061 0060 9DF81230 		ldrb	r3, [sp, #18]	@ zero_extendqisi2
 3062 0064 13F0110F 		tst	r3, #17
 3063 0068 38D1     		bne	.L846
 3064 006a 7307     		lsls	r3, r6, #29
 3065 006c 40F1ED80 		bpl	.L884
ARM GAS  /var/folders/lg/77ksxqjx0n7gwph6nqpzcmcw0000gn/T//ccz0FbIE.s 			page 54


 3066 0070 0825     		movs	r5, #8
 3067 0072 D6E7     		b	.L807
 3068              	.L808:
 3069 0074 16F01C0F 		tst	r6, #28
 3070 0078 24D1     		bne	.L836
 3071              	.L882:
 3072 007a 0546     		mov	r5, r0
 3073 007c D1E7     		b	.L807
 3074              	.L837:
 3075 007e 0925     		movs	r5, #9
 3076 0080 2846     		mov	r0, r5
 3077 0082 10B0     		add	sp, sp, #64
 3078              		@ sp needed
 3079 0084 BDE8F081 		pop	{r4, r5, r6, r7, r8, pc}
 3080              	.L809:
 3081 0088 0028     		cmp	r0, #0
 3082 008a F6D1     		bne	.L882
 3083 008c 9DF81230 		ldrb	r3, [sp, #18]	@ zero_extendqisi2
 3084 0090 DA06     		lsls	r2, r3, #27
 3085 0092 25D4     		bmi	.L845
 3086 0094 B607     		lsls	r6, r6, #30
 3087 0096 01D5     		bpl	.L880
 3088 0098 D807     		lsls	r0, r3, #31
 3089 009a 1FD4     		bmi	.L846
 3090              	.L880:
 3091 009c 029B     		ldr	r3, [sp, #8]
 3092              	.L817:
 3093 009e 3A07     		lsls	r2, r7, #28
 3094 00a0 40F1CD80 		bpl	.L885
 3095 00a4 47F04007 		orr	r7, r7, #64
 3096 00a8 0121     		movs	r1, #1
 3097              	.L820:
 3098 00aa 1A6B     		ldr	r2, [r3, #48]
 3099 00ac 03A8     		add	r0, sp, #12
 3100 00ae 0B9B     		ldr	r3, [sp, #44]
 3101 00b0 C4E90923 		strd	r2, r3, [r4, #36]
 3102 00b4 FFF7FEFF 		bl	inc_lock
 3103 00b8 2061     		str	r0, [r4, #16]
 3104 00ba 98B9     		cbnz	r0, .L886
 3105              	.L881:
 3106 00bc 0225     		movs	r5, #2
 3107 00be B0E7     		b	.L807
 3108              	.L838:
 3109 00c0 0625     		movs	r5, #6
 3110 00c2 AEE7     		b	.L807
 3111              	.L836:
 3112 00c4 042B     		cmp	r3, #4
 3113 00c6 40F0CA80 		bne	.L847
 3114 00ca 7A4B     		ldr	r3, .L889
 3115 00cc 1A68     		ldr	r2, [r3]
 3116 00ce 002A     		cmp	r2, #0
 3117 00d0 58D0     		beq	.L811
 3118 00d2 1B69     		ldr	r3, [r3, #16]
 3119 00d4 002B     		cmp	r3, #0
 3120 00d6 55D0     		beq	.L811
 3121 00d8 1225     		movs	r5, #18
 3122 00da A2E7     		b	.L807
ARM GAS  /var/folders/lg/77ksxqjx0n7gwph6nqpzcmcw0000gn/T//ccz0FbIE.s 			page 55


 3123              	.L846:
 3124 00dc 0725     		movs	r5, #7
 3125 00de A0E7     		b	.L807
 3126              	.L845:
 3127 00e0 0425     		movs	r5, #4
 3128 00e2 9EE7     		b	.L807
 3129              	.L886:
 3130 00e4 DDF808C0 		ldr	ip, [sp, #8]
 3131 00e8 0B9B     		ldr	r3, [sp, #44]
 3132 00ea 9CF80010 		ldrb	r1, [ip]	@ zero_extendqisi2
 3133 00ee D87E     		ldrb	r0, [r3, #27]	@ zero_extendqisi2
 3134 00f0 9A7E     		ldrb	r2, [r3, #26]	@ zero_extendqisi2
 3135 00f2 0329     		cmp	r1, #3
 3136 00f4 42EA0022 		orr	r2, r2, r0, lsl #8
 3137 00f8 05D1     		bne	.L833
 3138 00fa 587D     		ldrb	r0, [r3, #21]	@ zero_extendqisi2
 3139 00fc 197D     		ldrb	r1, [r3, #20]	@ zero_extendqisi2
 3140 00fe 41EA0021 		orr	r1, r1, r0, lsl #8
 3141 0102 42EA0142 		orr	r2, r2, r1, lsl #16
 3142              	.L833:
 3143 0106 A260     		str	r2, [r4, #8]
 3144 0108 0020     		movs	r0, #0
 3145 010a B3F81EE0 		ldrh	lr, [r3, #30]	@ unaligned
 3146 010e 04F13006 		add	r6, r4, #48
 3147 0112 597F     		ldrb	r1, [r3, #29]	@ zero_extendqisi2
 3148 0114 1A7F     		ldrb	r2, [r3, #28]	@ zero_extendqisi2
 3149 0116 41EA0E23 		orr	r3, r1, lr, lsl #8
 3150 011a BCF806E0 		ldrh	lr, [ip, #6]
 3151 011e 0146     		mov	r1, r0
 3152 0120 C4F800C0 		str	ip, [r4]
 3153 0124 42EA0322 		orr	r2, r2, r3, lsl #8
 3154 0128 3346     		mov	r3, r6
 3155 012a E062     		str	r0, [r4, #44]
 3156 012c E260     		str	r2, [r4, #12]
 3157 012e 04F50C72 		add	r2, r4, #560
 3158 0132 6075     		strb	r0, [r4, #21]
 3159 0134 A4F804E0 		strh	lr, [r4, #4]	@ movhi
 3160 0138 2062     		str	r0, [r4, #32]
 3161 013a A061     		str	r0, [r4, #24]
 3162 013c 2775     		strb	r7, [r4, #20]
 3163              	.L821:
 3164 013e 03F8011B 		strb	r1, [r3], #1
 3165 0142 9342     		cmp	r3, r2
 3166 0144 FBD1     		bne	.L821
 3167 0146 BF06     		lsls	r7, r7, #26
 3168 0148 7FF56DAF 		bpl	.L848
 3169 014c E768     		ldr	r7, [r4, #12]
 3170 014e 002F     		cmp	r7, #0
 3171 0150 3FF469AF 		beq	.L848
 3172 0154 BCF80A30 		ldrh	r3, [ip, #10]
 3173 0158 A168     		ldr	r1, [r4, #8]
 3174 015a B7EB432F 		cmp	r7, r3, lsl #9
 3175 015e A761     		str	r7, [r4, #24]
 3176 0160 4FEA4328 		lsl	r8, r3, #9
 3177 0164 04D8     		bhi	.L826
 3178 0166 7CE0     		b	.L824
 3179              	.L887:
ARM GAS  /var/folders/lg/77ksxqjx0n7gwph6nqpzcmcw0000gn/T//ccz0FbIE.s 			page 56


 3180 0168 481C     		adds	r0, r1, #1
 3181 016a 72D0     		beq	.L828
 3182 016c B845     		cmp	r8, r7
 3183 016e 70D2     		bcs	.L828
 3184              	.L826:
 3185 0170 2068     		ldr	r0, [r4]
 3186 0172 A7EB0807 		sub	r7, r7, r8
 3187 0176 FFF7FEFF 		bl	get_fat.isra.0
 3188 017a 0128     		cmp	r0, #1
 3189 017c 0146     		mov	r1, r0
 3190 017e F3D8     		bhi	.L887
 3191 0180 E061     		str	r0, [r4, #28]
 3192 0182 9BE7     		b	.L881
 3193              	.L811:
 3194 0184 03A8     		add	r0, sp, #12
 3195 0186 47F00807 		orr	r7, r7, #8
 3196 018a FFF7FEFF 		bl	dir_register
 3197 018e 0028     		cmp	r0, #0
 3198 0190 7FF473AF 		bne	.L882
 3199              	.L812:
 3200 0194 FFF7FEFF 		bl	get_fattime
 3201 0198 0B9A     		ldr	r2, [sp, #44]
 3202 019a C0F30726 		ubfx	r6, r0, #8, #8
 3203 019e C0F30741 		ubfx	r1, r0, #16, #8
 3204 01a2 5FFA80FC 		uxtb	ip, r0
 3205 01a6 4FF0200E 		mov	lr, #32
 3206 01aa 000E     		lsrs	r0, r0, #24
 3207 01ac D673     		strb	r6, [r2, #15]
 3208 01ae 82F80EC0 		strb	ip, [r2, #14]
 3209 01b2 1174     		strb	r1, [r2, #16]
 3210 01b4 5074     		strb	r0, [r2, #17]
 3211 01b6 0B9A     		ldr	r2, [sp, #44]
 3212 01b8 029B     		ldr	r3, [sp, #8]
 3213 01ba 82F816C0 		strb	ip, [r2, #22]
 3214 01be D675     		strb	r6, [r2, #23]
 3215 01c0 1176     		strb	r1, [r2, #24]
 3216 01c2 5076     		strb	r0, [r2, #25]
 3217 01c4 0B9A     		ldr	r2, [sp, #44]
 3218 01c6 82F80BE0 		strb	lr, [r2, #11]
 3219 01ca 0B99     		ldr	r1, [sp, #44]
 3220 01cc 1878     		ldrb	r0, [r3]	@ zero_extendqisi2
 3221 01ce CE7E     		ldrb	r6, [r1, #27]	@ zero_extendqisi2
 3222 01d0 8A7E     		ldrb	r2, [r1, #26]	@ zero_extendqisi2
 3223 01d2 0328     		cmp	r0, #3
 3224 01d4 42EA0626 		orr	r6, r2, r6, lsl #8
 3225 01d8 05D1     		bne	.L814
 3226 01da 487D     		ldrb	r0, [r1, #21]	@ zero_extendqisi2
 3227 01dc 0A7D     		ldrb	r2, [r1, #20]	@ zero_extendqisi2
 3228 01de 42EA0022 		orr	r2, r2, r0, lsl #8
 3229 01e2 46EA0246 		orr	r6, r6, r2, lsl #16
 3230              	.L814:
 3231 01e6 0022     		movs	r2, #0
 3232 01e8 8A76     		strb	r2, [r1, #26]
 3233 01ea CA76     		strb	r2, [r1, #27]
 3234 01ec 1878     		ldrb	r0, [r3]	@ zero_extendqisi2
 3235 01ee 0328     		cmp	r0, #3
 3236 01f0 01D1     		bne	.L815
ARM GAS  /var/folders/lg/77ksxqjx0n7gwph6nqpzcmcw0000gn/T//ccz0FbIE.s 			page 57


 3237 01f2 0A75     		strb	r2, [r1, #20]
 3238 01f4 4A75     		strb	r2, [r1, #21]
 3239              	.L815:
 3240 01f6 0B99     		ldr	r1, [sp, #44]
 3241 01f8 0022     		movs	r2, #0
 3242 01fa 0120     		movs	r0, #1
 3243 01fc 0A77     		strb	r2, [r1, #28]
 3244 01fe 4A77     		strb	r2, [r1, #29]
 3245 0200 8A77     		strb	r2, [r1, #30]
 3246 0202 CA77     		strb	r2, [r1, #31]
 3247 0204 D870     		strb	r0, [r3, #3]
 3248 0206 002E     		cmp	r6, #0
 3249 0208 3FF449AF 		beq	.L817
 3250 020c 3146     		mov	r1, r6
 3251 020e 03A8     		add	r0, sp, #12
 3252 0210 D3F83080 		ldr	r8, [r3, #48]
 3253 0214 FFF7FEFF 		bl	remove_chain
 3254 0218 0028     		cmp	r0, #0
 3255 021a 7FF42EAF 		bne	.L882
 3256 021e 029B     		ldr	r3, [sp, #8]
 3257 0220 1A6B     		ldr	r2, [r3, #48]
 3258 0222 9045     		cmp	r8, r2
 3259 0224 43D0     		beq	.L888
 3260 0226 1846     		mov	r0, r3
 3261 0228 4146     		mov	r1, r8
 3262 022a FFF7FEFF 		bl	move_window.part.0
 3263 022e 013E     		subs	r6, r6, #1
 3264 0230 029B     		ldr	r3, [sp, #8]
 3265 0232 1E61     		str	r6, [r3, #16]
 3266 0234 0028     		cmp	r0, #0
 3267 0236 3FF432AF 		beq	.L817
 3268 023a 0546     		mov	r5, r0
 3269 023c F1E6     		b	.L807
 3270              	.L885:
 3271 023e 17F0FE0F 		tst	r7, #254
 3272 0242 14BF     		ite	ne
 3273 0244 0121     		movne	r1, #1
 3274 0246 0021     		moveq	r1, #0
 3275 0248 2FE7     		b	.L820
 3276              	.L884:
 3277 024a 3007     		lsls	r0, r6, #28
 3278 024c A2D4     		bmi	.L812
 3279 024e 029B     		ldr	r3, [sp, #8]
 3280 0250 2BE7     		b	.L820
 3281              	.L828:
 3282 0252 4A1C     		adds	r2, r1, #1
 3283 0254 E161     		str	r1, [r4, #28]
 3284 0256 0CBF     		ite	eq
 3285 0258 0123     		moveq	r3, #1
 3286 025a 0023     		movne	r3, #0
 3287 025c 02D1     		bne	.L829
 3288              	.L847:
 3289 025e 1D46     		mov	r5, r3
 3290 0260 DFE6     		b	.L807
 3291              	.L824:
 3292 0262 E161     		str	r1, [r4, #28]
 3293              	.L829:
ARM GAS  /var/folders/lg/77ksxqjx0n7gwph6nqpzcmcw0000gn/T//ccz0FbIE.s 			page 58


 3294 0264 C7F30803 		ubfx	r3, r7, #0, #9
 3295 0268 002B     		cmp	r3, #0
 3296 026a 3FF4DCAE 		beq	.L848
 3297 026e DDF808C0 		ldr	ip, [sp, #8]
 3298 0272 881E     		subs	r0, r1, #2
 3299 0274 DCF81830 		ldr	r3, [ip, #24]
 3300 0278 023B     		subs	r3, r3, #2
 3301 027a 9842     		cmp	r0, r3
 3302 027c BFF41EAF 		bcs	.L881
 3303 0280 BCF80A30 		ldrh	r3, [ip, #10]
 3304 0284 DCF82C20 		ldr	r2, [ip, #44]
 3305 0288 00FB0322 		mla	r2, r0, r3, r2
 3306 028c 002A     		cmp	r2, #0
 3307 028e 3FF415AF 		beq	.L881
 3308 0292 02EB5722 		add	r2, r2, r7, lsr #9
 3309 0296 3146     		mov	r1, r6
 3310 0298 0123     		movs	r3, #1
 3311 029a 2262     		str	r2, [r4, #32]
 3312 029c 9CF80100 		ldrb	r0, [ip, #1]	@ zero_extendqisi2
 3313 02a0 FFF7FEFF 		bl	disk_read
 3314 02a4 0028     		cmp	r0, #0
 3315 02a6 3FF4BEAE 		beq	.L848
 3316 02aa 0125     		movs	r5, #1
 3317 02ac B9E6     		b	.L807
 3318              	.L888:
 3319 02ae 013E     		subs	r6, r6, #1
 3320 02b0 1E61     		str	r6, [r3, #16]
 3321 02b2 F4E6     		b	.L817
 3322              	.L890:
 3323              		.align	2
 3324              	.L889:
 3325 02b4 00000000 		.word	.LANCHOR0
 3327              		.section	.text.f_read,"ax",%progbits
 3328              		.align	1
 3329              		.p2align 2,,3
 3330              		.global	f_read
 3331              		.syntax unified
 3332              		.thumb
 3333              		.thumb_func
 3334              		.fpu fpv5-d16
 3336              	f_read:
 3337              		@ args = 0, pretend = 0, frame = 16
 3338              		@ frame_needed = 0, uses_anonymous_args = 0
 3339 0000 2DE9F04F 		push	{r4, r5, r6, r7, r8, r9, r10, fp, lr}
 3340 0004 0024     		movs	r4, #0
 3341 0006 85B0     		sub	sp, sp, #20
 3342 0008 8946     		mov	r9, r1
 3343 000a 1F46     		mov	r7, r3
 3344 000c 03A9     		add	r1, sp, #12
 3345 000e 1C60     		str	r4, [r3]
 3346 0010 9046     		mov	r8, r2
 3347 0012 0546     		mov	r5, r0
 3348 0014 FFF7FEFF 		bl	validate
 3349 0018 0646     		mov	r6, r0
 3350 001a 0028     		cmp	r0, #0
 3351 001c 58D1     		bne	.L892
 3352 001e 6E7D     		ldrb	r6, [r5, #21]	@ zero_extendqisi2
ARM GAS  /var/folders/lg/77ksxqjx0n7gwph6nqpzcmcw0000gn/T//ccz0FbIE.s 			page 59


 3353 0020 002E     		cmp	r6, #0
 3354 0022 55D1     		bne	.L892
 3355 0024 95F814A0 		ldrb	r10, [r5, #20]	@ zero_extendqisi2
 3356 0028 1AF0010A 		ands	r10, r10, #1
 3357 002c 00F09780 		beq	.L915
 3358 0030 A869     		ldr	r0, [r5, #24]
 3359 0032 EA68     		ldr	r2, [r5, #12]
 3360 0034 121A     		subs	r2, r2, r0
 3361 0036 9045     		cmp	r8, r2
 3362 0038 28BF     		it	cs
 3363 003a 9046     		movcs	r8, r2
 3364 003c B8F1000F 		cmp	r8, #0
 3365 0040 46D0     		beq	.L892
 3366 0042 05F1300B 		add	fp, r5, #48
 3367 0046 0096     		str	r6, [sp]
 3368              	.L893:
 3369 0048 C0F30801 		ubfx	r1, r0, #0, #9
 3370 004c 51BB     		cbnz	r1, .L895
 3371 004e 0399     		ldr	r1, [sp, #12]
 3372 0050 430A     		lsrs	r3, r0, #9
 3373 0052 4A89     		ldrh	r2, [r1, #10]
 3374 0054 013A     		subs	r2, r2, #1
 3375 0056 12EA5022 		ands	r2, r2, r0, lsr #9
 3376 005a 3DD0     		beq	.L896
 3377 005c E869     		ldr	r0, [r5, #28]
 3378 005e 8B69     		ldr	r3, [r1, #24]
 3379 0060 0238     		subs	r0, r0, #2
 3380 0062 023B     		subs	r3, r3, #2
 3381 0064 9842     		cmp	r0, r3
 3382 0066 44D2     		bcs	.L903
 3383              	.L931:
 3384 0068 B1F80AC0 		ldrh	ip, [r1, #10]
 3385 006c CC6A     		ldr	r4, [r1, #44]
 3386 006e 0CFB0044 		mla	r4, ip, r0, r4
 3387 0072 002C     		cmp	r4, #0
 3388 0074 3DD0     		beq	.L903
 3389 0076 B8F5007F 		cmp	r8, #512
 3390 007a 1444     		add	r4, r4, r2
 3391 007c 3FD2     		bcs	.L929
 3392 007e 2A6A     		ldr	r2, [r5, #32]
 3393 0080 A242     		cmp	r2, r4
 3394 0082 0BD0     		beq	.L911
 3395 0084 95F91430 		ldrsb	r3, [r5, #20]
 3396 0088 002B     		cmp	r3, #0
 3397 008a 71DB     		blt	.L930
 3398              	.L913:
 3399 008c 4878     		ldrb	r0, [r1, #1]	@ zero_extendqisi2
 3400 008e 0123     		movs	r3, #1
 3401 0090 2246     		mov	r2, r4
 3402 0092 5946     		mov	r1, fp
 3403 0094 FFF7FEFF 		bl	disk_read
 3404 0098 0028     		cmp	r0, #0
 3405 009a 59D1     		bne	.L908
 3406              	.L911:
 3407 009c A969     		ldr	r1, [r5, #24]
 3408 009e 2C62     		str	r4, [r5, #32]
 3409 00a0 C1F30801 		ubfx	r1, r1, #0, #9
ARM GAS  /var/folders/lg/77ksxqjx0n7gwph6nqpzcmcw0000gn/T//ccz0FbIE.s 			page 60


 3410              	.L895:
 3411 00a4 C1F50073 		rsb	r3, r1, #512
 3412 00a8 4846     		mov	r0, r9
 3413 00aa 5944     		add	r1, r1, fp
 3414 00ac 4345     		cmp	r3, r8
 3415 00ae 28BF     		it	cs
 3416 00b0 4346     		movcs	r3, r8
 3417 00b2 1A46     		mov	r2, r3
 3418 00b4 1C46     		mov	r4, r3
 3419 00b6 FFF7FEFF 		bl	mem_cpy.part.0
 3420              	.L910:
 3421 00ba A869     		ldr	r0, [r5, #24]
 3422 00bc B8EB0408 		subs	r8, r8, r4
 3423 00c0 3B68     		ldr	r3, [r7]
 3424 00c2 A144     		add	r9, r9, r4
 3425 00c4 2044     		add	r0, r0, r4
 3426 00c6 2344     		add	r3, r3, r4
 3427 00c8 A861     		str	r0, [r5, #24]
 3428 00ca 3B60     		str	r3, [r7]
 3429 00cc BCD1     		bne	.L893
 3430 00ce 009E     		ldr	r6, [sp]
 3431              	.L892:
 3432 00d0 3046     		mov	r0, r6
 3433 00d2 05B0     		add	sp, sp, #20
 3434              		@ sp needed
 3435 00d4 BDE8F08F 		pop	{r4, r5, r6, r7, r8, r9, r10, fp, pc}
 3436              	.L896:
 3437 00d8 30BB     		cbnz	r0, .L898
 3438 00da A868     		ldr	r0, [r5, #8]
 3439              	.L899:
 3440 00dc 0128     		cmp	r0, #1
 3441 00de 08D9     		bls	.L903
 3442 00e0 431C     		adds	r3, r0, #1
 3443 00e2 35D0     		beq	.L908
 3444 00e4 0399     		ldr	r1, [sp, #12]
 3445 00e6 E861     		str	r0, [r5, #28]
 3446 00e8 0238     		subs	r0, r0, #2
 3447 00ea 8B69     		ldr	r3, [r1, #24]
 3448 00ec 023B     		subs	r3, r3, #2
 3449 00ee 9842     		cmp	r0, r3
 3450 00f0 BAD3     		bcc	.L931
 3451              	.L903:
 3452 00f2 0226     		movs	r6, #2
 3453 00f4 3046     		mov	r0, r6
 3454 00f6 6E75     		strb	r6, [r5, #21]
 3455 00f8 05B0     		add	sp, sp, #20
 3456              		@ sp needed
 3457 00fa BDE8F08F 		pop	{r4, r5, r6, r7, r8, r9, r10, fp, pc}
 3458              	.L929:
 3459 00fe 02EB5820 		add	r0, r2, r8, lsr #9
 3460 0102 4FEA5826 		lsr	r6, r8, #9
 3461 0106 6045     		cmp	r0, ip
 3462 0108 4878     		ldrb	r0, [r1, #1]	@ zero_extendqisi2
 3463 010a 4946     		mov	r1, r9
 3464 010c 88BF     		it	hi
 3465 010e ACEB0206 		subhi	r6, ip, r2
 3466 0112 2246     		mov	r2, r4
ARM GAS  /var/folders/lg/77ksxqjx0n7gwph6nqpzcmcw0000gn/T//ccz0FbIE.s 			page 61


 3467 0114 3346     		mov	r3, r6
 3468 0116 FFF7FEFF 		bl	disk_read
 3469 011a C8B9     		cbnz	r0, .L908
 3470 011c 95F91420 		ldrsb	r2, [r5, #20]
 3471 0120 002A     		cmp	r2, #0
 3472 0122 32DB     		blt	.L932
 3473              	.L909:
 3474 0124 7402     		lsls	r4, r6, #9
 3475 0126 C8E7     		b	.L910
 3476              	.L898:
 3477 0128 E96A     		ldr	r1, [r5, #44]
 3478 012a D1B1     		cbz	r1, .L900
 3479 012c 2C68     		ldr	r4, [r5]
 3480 012e 081D     		adds	r0, r1, #4
 3481 0130 4968     		ldr	r1, [r1, #4]
 3482 0132 6489     		ldrh	r4, [r4, #10]
 3483 0134 B3FBF4F3 		udiv	r3, r3, r4
 3484 0138 29B9     		cbnz	r1, .L904
 3485 013a DAE7     		b	.L903
 3486              	.L933:
 3487 013c 5B1A     		subs	r3, r3, r1
 3488 013e 50F8081F 		ldr	r1, [r0, #8]!
 3489 0142 0029     		cmp	r1, #0
 3490 0144 D5D0     		beq	.L903
 3491              	.L904:
 3492 0146 9942     		cmp	r1, r3
 3493 0148 F8D9     		bls	.L933
 3494 014a 4068     		ldr	r0, [r0, #4]
 3495 014c 1844     		add	r0, r0, r3
 3496 014e C5E7     		b	.L899
 3497              	.L908:
 3498 0150 5646     		mov	r6, r10
 3499 0152 0123     		movs	r3, #1
 3500 0154 3046     		mov	r0, r6
 3501 0156 6B75     		strb	r3, [r5, #21]
 3502 0158 05B0     		add	sp, sp, #20
 3503              		@ sp needed
 3504 015a BDE8F08F 		pop	{r4, r5, r6, r7, r8, r9, r10, fp, pc}
 3505              	.L915:
 3506 015e 0726     		movs	r6, #7
 3507 0160 B6E7     		b	.L892
 3508              	.L900:
 3509 0162 E969     		ldr	r1, [r5, #28]
 3510 0164 2868     		ldr	r0, [r5]
 3511 0166 0192     		str	r2, [sp, #4]
 3512 0168 FFF7FEFF 		bl	get_fat.isra.0
 3513 016c 019A     		ldr	r2, [sp, #4]
 3514 016e B5E7     		b	.L899
 3515              	.L930:
 3516 0170 4878     		ldrb	r0, [r1, #1]	@ zero_extendqisi2
 3517 0172 0123     		movs	r3, #1
 3518 0174 5946     		mov	r1, fp
 3519 0176 FFF7FEFF 		bl	disk_write
 3520 017a 0028     		cmp	r0, #0
 3521 017c E8D1     		bne	.L908
 3522 017e 2B7D     		ldrb	r3, [r5, #20]	@ zero_extendqisi2
 3523 0180 0399     		ldr	r1, [sp, #12]
ARM GAS  /var/folders/lg/77ksxqjx0n7gwph6nqpzcmcw0000gn/T//ccz0FbIE.s 			page 62


 3524 0182 03F07F03 		and	r3, r3, #127
 3525 0186 2B75     		strb	r3, [r5, #20]
 3526 0188 80E7     		b	.L913
 3527              	.L932:
 3528 018a 286A     		ldr	r0, [r5, #32]
 3529 018c 001B     		subs	r0, r0, r4
 3530 018e B042     		cmp	r0, r6
 3531 0190 C8D2     		bcs	.L909
 3532 0192 09EB4020 		add	r0, r9, r0, lsl #9
 3533 0196 4FF40072 		mov	r2, #512
 3534 019a 5946     		mov	r1, fp
 3535 019c FFF7FEFF 		bl	mem_cpy.part.0
 3536 01a0 C0E7     		b	.L909
 3538 01a2 00BF     		.section	.text.f_write,"ax",%progbits
 3539              		.align	1
 3540              		.p2align 2,,3
 3541              		.global	f_write
 3542              		.syntax unified
 3543              		.thumb
 3544              		.thumb_func
 3545              		.fpu fpv5-d16
 3547              	f_write:
 3548              		@ args = 0, pretend = 0, frame = 16
 3549              		@ frame_needed = 0, uses_anonymous_args = 0
 3550 0000 2DE9F04F 		push	{r4, r5, r6, r7, r8, r9, r10, fp, lr}
 3551 0004 0024     		movs	r4, #0
 3552 0006 85B0     		sub	sp, sp, #20
 3553 0008 8946     		mov	r9, r1
 3554 000a 9846     		mov	r8, r3
 3555 000c 1C60     		str	r4, [r3]
 3556 000e 03A9     		add	r1, sp, #12
 3557 0010 1746     		mov	r7, r2
 3558 0012 0446     		mov	r4, r0
 3559 0014 FFF7FEFF 		bl	validate
 3560 0018 0546     		mov	r5, r0
 3561 001a 0028     		cmp	r0, #0
 3562 001c 40F08680 		bne	.L935
 3563 0020 657D     		ldrb	r5, [r4, #21]	@ zero_extendqisi2
 3564 0022 002D     		cmp	r5, #0
 3565 0024 40F08280 		bne	.L935
 3566 0028 237D     		ldrb	r3, [r4, #20]	@ zero_extendqisi2
 3567 002a 9A07     		lsls	r2, r3, #30
 3568 002c 40F1B280 		bpl	.L963
 3569 0030 A669     		ldr	r6, [r4, #24]
 3570 0032 FE42     		cmn	r6, r7
 3571 0034 28BF     		it	cs
 3572 0036 F743     		mvncs	r7, r6
 3573 0038 002F     		cmp	r7, #0
 3574 003a 74D0     		beq	.L937
 3575 003c 04F1300B 		add	fp, r4, #48
 3576              	.L962:
 3577 0040 C6F30800 		ubfx	r0, r6, #0, #9
 3578 0044 0028     		cmp	r0, #0
 3579 0046 4ED1     		bne	.L939
 3580 0048 0399     		ldr	r1, [sp, #12]
 3581 004a 730A     		lsrs	r3, r6, #9
 3582 004c B1F80AA0 		ldrh	r10, [r1, #10]
ARM GAS  /var/folders/lg/77ksxqjx0n7gwph6nqpzcmcw0000gn/T//ccz0FbIE.s 			page 63


 3583 0050 0AF1FF3A 		add	r10, r10, #-1
 3584 0054 1AEA562A 		ands	r10, r10, r6, lsr #9
 3585 0058 0FD1     		bne	.L940
 3586 005a 002E     		cmp	r6, #0
 3587 005c 70D1     		bne	.L941
 3588 005e A068     		ldr	r0, [r4, #8]
 3589 0060 0028     		cmp	r0, #0
 3590 0062 00F0A180 		beq	.L976
 3591              	.L942:
 3592 0066 0128     		cmp	r0, #1
 3593 0068 64D0     		beq	.L954
 3594 006a 431C     		adds	r3, r0, #1
 3595 006c 00F08C80 		beq	.L953
 3596 0070 A368     		ldr	r3, [r4, #8]
 3597 0072 0399     		ldr	r1, [sp, #12]
 3598 0074 E061     		str	r0, [r4, #28]
 3599 0076 03B9     		cbnz	r3, .L940
 3600 0078 A060     		str	r0, [r4, #8]
 3601              	.L940:
 3602 007a 94F91430 		ldrsb	r3, [r4, #20]
 3603 007e 002B     		cmp	r3, #0
 3604 0080 75DB     		blt	.L977
 3605              	.L952:
 3606 0082 E269     		ldr	r2, [r4, #28]
 3607 0084 8B69     		ldr	r3, [r1, #24]
 3608 0086 023A     		subs	r2, r2, #2
 3609 0088 023B     		subs	r3, r3, #2
 3610 008a 9A42     		cmp	r2, r3
 3611 008c 52D2     		bcs	.L954
 3612 008e 4B89     		ldrh	r3, [r1, #10]
 3613 0090 C86A     		ldr	r0, [r1, #44]
 3614 0092 03FB0202 		mla	r2, r3, r2, r0
 3615 0096 002A     		cmp	r2, #0
 3616 0098 4CD0     		beq	.L954
 3617 009a B7F5007F 		cmp	r7, #512
 3618 009e 5244     		add	r2, r2, r10
 3619 00a0 17D3     		bcc	.L955
 3620 00a2 0AEB5720 		add	r0, r10, r7, lsr #9
 3621 00a6 0192     		str	r2, [sp, #4]
 3622 00a8 7E0A     		lsrs	r6, r7, #9
 3623 00aa 9842     		cmp	r0, r3
 3624 00ac 4878     		ldrb	r0, [r1, #1]	@ zero_extendqisi2
 3625 00ae 4946     		mov	r1, r9
 3626 00b0 88BF     		it	hi
 3627 00b2 A3EB0A06 		subhi	r6, r3, r10
 3628 00b6 3346     		mov	r3, r6
 3629 00b8 FFF7FEFF 		bl	disk_write
 3630 00bc 0028     		cmp	r0, #0
 3631 00be 63D1     		bne	.L953
 3632 00c0 216A     		ldr	r1, [r4, #32]
 3633 00c2 019A     		ldr	r2, [sp, #4]
 3634 00c4 891A     		subs	r1, r1, r2
 3635 00c6 B142     		cmp	r1, r6
 3636 00c8 C0F08180 		bcc	.L978
 3637              	.L957:
 3638 00cc 4FEA462A 		lsl	r10, r6, #9
 3639 00d0 17E0     		b	.L958
ARM GAS  /var/folders/lg/77ksxqjx0n7gwph6nqpzcmcw0000gn/T//ccz0FbIE.s 			page 64


 3640              	.L955:
 3641 00d2 236A     		ldr	r3, [r4, #32]
 3642 00d4 A069     		ldr	r0, [r4, #24]
 3643 00d6 9342     		cmp	r3, r2
 3644 00d8 02D0     		beq	.L961
 3645 00da E368     		ldr	r3, [r4, #12]
 3646 00dc 9842     		cmp	r0, r3
 3647 00de 6BD3     		bcc	.L979
 3648              	.L961:
 3649 00e0 C0F30800 		ubfx	r0, r0, #0, #9
 3650 00e4 2262     		str	r2, [r4, #32]
 3651              	.L939:
 3652 00e6 C0F5007A 		rsb	r10, r0, #512
 3653 00ea 4946     		mov	r1, r9
 3654 00ec 5844     		add	r0, r0, fp
 3655 00ee BA45     		cmp	r10, r7
 3656 00f0 28BF     		it	cs
 3657 00f2 BA46     		movcs	r10, r7
 3658 00f4 5246     		mov	r2, r10
 3659 00f6 FFF7FEFF 		bl	mem_cpy.part.0
 3660 00fa 237D     		ldrb	r3, [r4, #20]	@ zero_extendqisi2
 3661 00fc 63F07F03 		orn	r3, r3, #127
 3662 0100 2375     		strb	r3, [r4, #20]
 3663              	.L958:
 3664 0102 A669     		ldr	r6, [r4, #24]
 3665 0104 D144     		add	r9, r9, r10
 3666 0106 E268     		ldr	r2, [r4, #12]
 3667 0108 5644     		add	r6, r6, r10
 3668 010a D8F80030 		ldr	r3, [r8]
 3669 010e B242     		cmp	r2, r6
 3670 0110 5344     		add	r3, r3, r10
 3671 0112 A661     		str	r6, [r4, #24]
 3672 0114 38BF     		it	cc
 3673 0116 3246     		movcc	r2, r6
 3674 0118 B7EB0A07 		subs	r7, r7, r10
 3675 011c E260     		str	r2, [r4, #12]
 3676 011e C8F80030 		str	r3, [r8]
 3677 0122 8DD1     		bne	.L962
 3678              	.L975:
 3679 0124 237D     		ldrb	r3, [r4, #20]	@ zero_extendqisi2
 3680              	.L937:
 3681 0126 43F04003 		orr	r3, r3, #64
 3682 012a 2375     		strb	r3, [r4, #20]
 3683              	.L935:
 3684 012c 2846     		mov	r0, r5
 3685 012e 05B0     		add	sp, sp, #20
 3686              		@ sp needed
 3687 0130 BDE8F08F 		pop	{r4, r5, r6, r7, r8, r9, r10, fp, pc}
 3688              	.L954:
 3689 0134 0225     		movs	r5, #2
 3690 0136 2846     		mov	r0, r5
 3691 0138 6575     		strb	r5, [r4, #21]
 3692 013a 05B0     		add	sp, sp, #20
 3693              		@ sp needed
 3694 013c BDE8F08F 		pop	{r4, r5, r6, r7, r8, r9, r10, fp, pc}
 3695              	.L941:
 3696 0140 E26A     		ldr	r2, [r4, #44]
ARM GAS  /var/folders/lg/77ksxqjx0n7gwph6nqpzcmcw0000gn/T//ccz0FbIE.s 			page 65


 3697 0142 4AB3     		cbz	r2, .L944
 3698 0144 2068     		ldr	r0, [r4]
 3699 0146 111D     		adds	r1, r2, #4
 3700 0148 5268     		ldr	r2, [r2, #4]
 3701 014a 4089     		ldrh	r0, [r0, #10]
 3702 014c B3FBF0F3 		udiv	r3, r3, r0
 3703 0150 2AB9     		cbnz	r2, .L948
 3704 0152 E7E7     		b	.L975
 3705              	.L980:
 3706 0154 9B1A     		subs	r3, r3, r2
 3707 0156 51F8082F 		ldr	r2, [r1, #8]!
 3708 015a 002A     		cmp	r2, #0
 3709 015c E2D0     		beq	.L975
 3710              	.L948:
 3711 015e 9342     		cmp	r3, r2
 3712 0160 F8D2     		bcs	.L980
 3713 0162 4868     		ldr	r0, [r1, #4]
 3714 0164 1844     		add	r0, r0, r3
 3715 0166 0028     		cmp	r0, #0
 3716 0168 7FF47DAF 		bne	.L942
 3717 016c DAE7     		b	.L975
 3718              	.L977:
 3719 016e 4878     		ldrb	r0, [r1, #1]	@ zero_extendqisi2
 3720 0170 0123     		movs	r3, #1
 3721 0172 226A     		ldr	r2, [r4, #32]
 3722 0174 5946     		mov	r1, fp
 3723 0176 FFF7FEFF 		bl	disk_write
 3724 017a 28B9     		cbnz	r0, .L953
 3725 017c 237D     		ldrb	r3, [r4, #20]	@ zero_extendqisi2
 3726 017e 0399     		ldr	r1, [sp, #12]
 3727 0180 03F07F03 		and	r3, r3, #127
 3728 0184 2375     		strb	r3, [r4, #20]
 3729 0186 7CE7     		b	.L952
 3730              	.L953:
 3731 0188 0125     		movs	r5, #1
 3732 018a 2846     		mov	r0, r5
 3733 018c 6575     		strb	r5, [r4, #21]
 3734 018e 05B0     		add	sp, sp, #20
 3735              		@ sp needed
 3736 0190 BDE8F08F 		pop	{r4, r5, r6, r7, r8, r9, r10, fp, pc}
 3737              	.L963:
 3738 0194 0725     		movs	r5, #7
 3739 0196 C9E7     		b	.L935
 3740              	.L944:
 3741 0198 E169     		ldr	r1, [r4, #28]
 3742 019a 2046     		mov	r0, r4
 3743 019c FFF7FEFF 		bl	create_chain
 3744 01a0 0028     		cmp	r0, #0
 3745 01a2 7FF460AF 		bne	.L942
 3746 01a6 BDE7     		b	.L975
 3747              	.L976:
 3748 01a8 5146     		mov	r1, r10
 3749 01aa 2046     		mov	r0, r4
 3750 01ac FFF7FEFF 		bl	create_chain
 3751 01b0 0028     		cmp	r0, #0
 3752 01b2 7FF458AF 		bne	.L942
 3753 01b6 B5E7     		b	.L975
ARM GAS  /var/folders/lg/77ksxqjx0n7gwph6nqpzcmcw0000gn/T//ccz0FbIE.s 			page 66


 3754              	.L979:
 3755 01b8 4878     		ldrb	r0, [r1, #1]	@ zero_extendqisi2
 3756 01ba 0123     		movs	r3, #1
 3757 01bc 5946     		mov	r1, fp
 3758 01be 0192     		str	r2, [sp, #4]
 3759 01c0 FFF7FEFF 		bl	disk_read
 3760 01c4 0028     		cmp	r0, #0
 3761 01c6 DFD1     		bne	.L953
 3762 01c8 A069     		ldr	r0, [r4, #24]
 3763 01ca 019A     		ldr	r2, [sp, #4]
 3764 01cc 88E7     		b	.L961
 3765              	.L978:
 3766 01ce 09EB4121 		add	r1, r9, r1, lsl #9
 3767 01d2 4FF40072 		mov	r2, #512
 3768 01d6 5846     		mov	r0, fp
 3769 01d8 FFF7FEFF 		bl	mem_cpy.part.0
 3770 01dc 237D     		ldrb	r3, [r4, #20]	@ zero_extendqisi2
 3771 01de 03F07F03 		and	r3, r3, #127
 3772 01e2 2375     		strb	r3, [r4, #20]
 3773 01e4 72E7     		b	.L957
 3775 01e6 00BF     		.section	.text.putc_bfd,"ax",%progbits
 3776              		.align	1
 3777              		.p2align 2,,3
 3778              		.syntax unified
 3779              		.thumb
 3780              		.thumb_func
 3781              		.fpu fpv5-d16
 3783              	putc_bfd:
 3784              		@ args = 0, pretend = 0, frame = 8
 3785              		@ frame_needed = 0, uses_anonymous_args = 0
 3786 0000 0A29     		cmp	r1, #10
 3787 0002 70B5     		push	{r4, r5, r6, lr}
 3788 0004 0E46     		mov	r6, r1
 3789 0006 82B0     		sub	sp, sp, #8
 3790 0008 0446     		mov	r4, r0
 3791 000a 1AD0     		beq	.L987
 3792              	.L982:
 3793 000c 6568     		ldr	r5, [r4, #4]
 3794 000e 002D     		cmp	r5, #0
 3795 0010 08DB     		blt	.L981
 3796 0012 6319     		adds	r3, r4, r5
 3797 0014 0135     		adds	r5, r5, #1
 3798 0016 3C2D     		cmp	r5, #60
 3799 0018 1E73     		strb	r6, [r3, #12]
 3800 001a 05DC     		bgt	.L988
 3801              	.L985:
 3802 001c A368     		ldr	r3, [r4, #8]
 3803 001e 6560     		str	r5, [r4, #4]
 3804 0020 0133     		adds	r3, r3, #1
 3805 0022 A360     		str	r3, [r4, #8]
 3806              	.L981:
 3807 0024 02B0     		add	sp, sp, #8
 3808              		@ sp needed
 3809 0026 70BD     		pop	{r4, r5, r6, pc}
 3810              	.L988:
 3811 0028 2146     		mov	r1, r4
 3812 002a 01AB     		add	r3, sp, #4
ARM GAS  /var/folders/lg/77ksxqjx0n7gwph6nqpzcmcw0000gn/T//ccz0FbIE.s 			page 67


 3813 002c 2A46     		mov	r2, r5
 3814 002e 51F80C0B 		ldr	r0, [r1], #12
 3815 0032 FFF7FEFF 		bl	f_write
 3816 0036 019B     		ldr	r3, [sp, #4]
 3817 0038 5D1B     		subs	r5, r3, r5
 3818 003a 18BF     		it	ne
 3819 003c 4FF0FF35 		movne	r5, #-1
 3820 0040 ECE7     		b	.L985
 3821              	.L987:
 3822 0042 0D21     		movs	r1, #13
 3823 0044 FFF7DCFF 		bl	putc_bfd
 3824 0048 E0E7     		b	.L982
 3826 004a 00BF     		.section	.text.putc_flush,"ax",%progbits
 3827              		.align	1
 3828              		.p2align 2,,3
 3829              		.syntax unified
 3830              		.thumb
 3831              		.thumb_func
 3832              		.fpu fpv5-d16
 3834              	putc_flush:
 3835              		@ args = 0, pretend = 0, frame = 8
 3836              		@ frame_needed = 0, uses_anonymous_args = 0
 3837 0000 4268     		ldr	r2, [r0, #4]
 3838 0002 002A     		cmp	r2, #0
 3839 0004 14DB     		blt	.L996
 3840 0006 0146     		mov	r1, r0
 3841 0008 10B5     		push	{r4, lr}
 3842 000a 82B0     		sub	sp, sp, #8
 3843 000c 0446     		mov	r4, r0
 3844 000e 51F80C0B 		ldr	r0, [r1], #12
 3845 0012 01AB     		add	r3, sp, #4
 3846 0014 FFF7FEFF 		bl	f_write
 3847 0018 30B9     		cbnz	r0, .L992
 3848 001a 6268     		ldr	r2, [r4, #4]
 3849 001c 019B     		ldr	r3, [sp, #4]
 3850 001e 9A42     		cmp	r2, r3
 3851 0020 02D1     		bne	.L992
 3852 0022 A068     		ldr	r0, [r4, #8]
 3853 0024 02B0     		add	sp, sp, #8
 3854              		@ sp needed
 3855 0026 10BD     		pop	{r4, pc}
 3856              	.L992:
 3857 0028 4FF0FF30 		mov	r0, #-1
 3858 002c 02B0     		add	sp, sp, #8
 3859              		@ sp needed
 3860 002e 10BD     		pop	{r4, pc}
 3861              	.L996:
 3862 0030 4FF0FF30 		mov	r0, #-1
 3863 0034 7047     		bx	lr
 3865 0036 00BF     		.section	.text.f_sync,"ax",%progbits
 3866              		.align	1
 3867              		.p2align 2,,3
 3868              		.global	f_sync
 3869              		.syntax unified
 3870              		.thumb
 3871              		.thumb_func
 3872              		.fpu fpv5-d16
ARM GAS  /var/folders/lg/77ksxqjx0n7gwph6nqpzcmcw0000gn/T//ccz0FbIE.s 			page 68


 3874              	f_sync:
 3875              		@ args = 0, pretend = 0, frame = 8
 3876              		@ frame_needed = 0, uses_anonymous_args = 0
 3877 0000 F0B5     		push	{r4, r5, r6, r7, lr}
 3878 0002 83B0     		sub	sp, sp, #12
 3879 0004 0446     		mov	r4, r0
 3880 0006 01A9     		add	r1, sp, #4
 3881 0008 FFF7FEFF 		bl	validate
 3882 000c 0028     		cmp	r0, #0
 3883 000e 3FD1     		bne	.L998
 3884 0010 237D     		ldrb	r3, [r4, #20]	@ zero_extendqisi2
 3885 0012 13F04000 		ands	r0, r3, #64
 3886 0016 3BD0     		beq	.L998
 3887 0018 1B06     		lsls	r3, r3, #24
 3888 001a 3BD4     		bmi	.L1007
 3889              	.L999:
 3890 001c FFF7FEFF 		bl	get_fattime
 3891 0020 019E     		ldr	r6, [sp, #4]
 3892 0022 616A     		ldr	r1, [r4, #36]
 3893 0024 0546     		mov	r5, r0
 3894 0026 336B     		ldr	r3, [r6, #48]
 3895 0028 9942     		cmp	r1, r3
 3896 002a 04D0     		beq	.L1000
 3897 002c 3046     		mov	r0, r6
 3898 002e FFF7FEFF 		bl	move_window.part.0
 3899 0032 68BB     		cbnz	r0, .L998
 3900 0034 019E     		ldr	r6, [sp, #4]
 3901              	.L1000:
 3902 0036 A36A     		ldr	r3, [r4, #40]
 3903 0038 DA7A     		ldrb	r2, [r3, #11]	@ zero_extendqisi2
 3904 003a 42F02002 		orr	r2, r2, #32
 3905 003e DA72     		strb	r2, [r3, #11]
 3906 0040 A268     		ldr	r2, [r4, #8]
 3907 0042 2168     		ldr	r1, [r4]
 3908 0044 C2F30720 		ubfx	r0, r2, #8, #8
 3909 0048 9A76     		strb	r2, [r3, #26]
 3910 004a D876     		strb	r0, [r3, #27]
 3911 004c 0978     		ldrb	r1, [r1]	@ zero_extendqisi2
 3912 004e 0329     		cmp	r1, #3
 3913 0050 03D1     		bne	.L1001
 3914 0052 120C     		lsrs	r2, r2, #16
 3915 0054 110A     		lsrs	r1, r2, #8
 3916 0056 1A75     		strb	r2, [r3, #20]
 3917 0058 5975     		strb	r1, [r3, #21]
 3918              	.L1001:
 3919 005a E268     		ldr	r2, [r4, #12]
 3920 005c 2F0A     		lsrs	r7, r5, #8
 3921 005e 290C     		lsrs	r1, r5, #16
 3922 0060 9D75     		strb	r5, [r3, #22]
 3923 0062 100A     		lsrs	r0, r2, #8
 3924 0064 1A77     		strb	r2, [r3, #28]
 3925 0066 DF75     		strb	r7, [r3, #23]
 3926 0068 2D0E     		lsrs	r5, r5, #24
 3927 006a 5877     		strb	r0, [r3, #29]
 3928 006c 0127     		movs	r7, #1
 3929 006e 1976     		strb	r1, [r3, #24]
 3930 0070 100C     		lsrs	r0, r2, #16
ARM GAS  /var/folders/lg/77ksxqjx0n7gwph6nqpzcmcw0000gn/T//ccz0FbIE.s 			page 69


 3931 0072 0021     		movs	r1, #0
 3932 0074 120E     		lsrs	r2, r2, #24
 3933 0076 9877     		strb	r0, [r3, #30]
 3934 0078 3046     		mov	r0, r6
 3935 007a DA77     		strb	r2, [r3, #31]
 3936 007c 5D76     		strb	r5, [r3, #25]
 3937 007e 9974     		strb	r1, [r3, #18]
 3938 0080 D974     		strb	r1, [r3, #19]
 3939 0082 F770     		strb	r7, [r6, #3]
 3940 0084 FFF7FEFF 		bl	sync_fs
 3941 0088 237D     		ldrb	r3, [r4, #20]	@ zero_extendqisi2
 3942 008a 23F04003 		bic	r3, r3, #64
 3943 008e 2375     		strb	r3, [r4, #20]
 3944              	.L998:
 3945 0090 03B0     		add	sp, sp, #12
 3946              		@ sp needed
 3947 0092 F0BD     		pop	{r4, r5, r6, r7, pc}
 3948              	.L1007:
 3949 0094 0198     		ldr	r0, [sp, #4]
 3950 0096 0123     		movs	r3, #1
 3951 0098 226A     		ldr	r2, [r4, #32]
 3952 009a 04F13001 		add	r1, r4, #48
 3953 009e 4078     		ldrb	r0, [r0, #1]	@ zero_extendqisi2
 3954 00a0 FFF7FEFF 		bl	disk_write
 3955 00a4 20B9     		cbnz	r0, .L1002
 3956 00a6 237D     		ldrb	r3, [r4, #20]	@ zero_extendqisi2
 3957 00a8 03F07F03 		and	r3, r3, #127
 3958 00ac 2375     		strb	r3, [r4, #20]
 3959 00ae B5E7     		b	.L999
 3960              	.L1002:
 3961 00b0 0120     		movs	r0, #1
 3962 00b2 EDE7     		b	.L998
 3964              		.section	.text.f_close,"ax",%progbits
 3965              		.align	1
 3966              		.p2align 2,,3
 3967              		.global	f_close
 3968              		.syntax unified
 3969              		.thumb
 3970              		.thumb_func
 3971              		.fpu fpv5-d16
 3973              	f_close:
 3974              		@ args = 0, pretend = 0, frame = 8
 3975              		@ frame_needed = 0, uses_anonymous_args = 0
 3976 0000 30B5     		push	{r4, r5, lr}
 3977 0002 83B0     		sub	sp, sp, #12
 3978 0004 0446     		mov	r4, r0
 3979 0006 FFF7FEFF 		bl	f_sync
 3980 000a 08B1     		cbz	r0, .L1020
 3981              	.L1009:
 3982 000c 03B0     		add	sp, sp, #12
 3983              		@ sp needed
 3984 000e 30BD     		pop	{r4, r5, pc}
 3985              	.L1020:
 3986 0010 01A9     		add	r1, sp, #4
 3987 0012 2046     		mov	r0, r4
 3988 0014 FFF7FEFF 		bl	validate
 3989 0018 0028     		cmp	r0, #0
ARM GAS  /var/folders/lg/77ksxqjx0n7gwph6nqpzcmcw0000gn/T//ccz0FbIE.s 			page 70


 3990 001a F7D1     		bne	.L1009
 3991 001c 2369     		ldr	r3, [r4, #16]
 3992 001e 013B     		subs	r3, r3, #1
 3993 0020 012B     		cmp	r3, #1
 3994 0022 0DD8     		bhi	.L1015
 3995 0024 0B49     		ldr	r1, .L1023
 3996 0026 1D01     		lsls	r5, r3, #4
 3997 0028 01EB0313 		add	r3, r1, r3, lsl #4
 3998 002c 9A89     		ldrh	r2, [r3, #12]
 3999 002e B2F5807F 		cmp	r2, #256
 4000 0032 0DD0     		beq	.L1021
 4001 0034 32B9     		cbnz	r2, .L1022
 4002              	.L1011:
 4003 0036 0023     		movs	r3, #0
 4004 0038 4B51     		str	r3, [r1, r5]
 4005              	.L1014:
 4006 003a 0023     		movs	r3, #0
 4007 003c 2360     		str	r3, [r4]
 4008 003e E5E7     		b	.L1009
 4009              	.L1015:
 4010 0040 0220     		movs	r0, #2
 4011 0042 E3E7     		b	.L1009
 4012              	.L1022:
 4013 0044 013A     		subs	r2, r2, #1
 4014 0046 92B2     		uxth	r2, r2
 4015 0048 9A81     		strh	r2, [r3, #12]	@ movhi
 4016 004a 002A     		cmp	r2, #0
 4017 004c F5D1     		bne	.L1014
 4018 004e F2E7     		b	.L1011
 4019              	.L1021:
 4020 0050 9881     		strh	r0, [r3, #12]	@ movhi
 4021 0052 F0E7     		b	.L1011
 4022              	.L1024:
 4023              		.align	2
 4024              	.L1023:
 4025 0054 00000000 		.word	.LANCHOR0
 4027              		.section	.text.f_lseek,"ax",%progbits
 4028              		.align	1
 4029              		.p2align 2,,3
 4030              		.global	f_lseek
 4031              		.syntax unified
 4032              		.thumb
 4033              		.thumb_func
 4034              		.fpu fpv5-d16
 4036              	f_lseek:
 4037              		@ args = 0, pretend = 0, frame = 16
 4038              		@ frame_needed = 0, uses_anonymous_args = 0
 4039 0000 2DE9F04F 		push	{r4, r5, r6, r7, r8, r9, r10, fp, lr}
 4040 0004 85B0     		sub	sp, sp, #20
 4041 0006 0D46     		mov	r5, r1
 4042 0008 0446     		mov	r4, r0
 4043 000a 03A9     		add	r1, sp, #12
 4044 000c FFF7FEFF 		bl	validate
 4045 0010 0646     		mov	r6, r0
 4046 0012 0028     		cmp	r0, #0
 4047 0014 4CD1     		bne	.L1026
 4048 0016 667D     		ldrb	r6, [r4, #21]	@ zero_extendqisi2
ARM GAS  /var/folders/lg/77ksxqjx0n7gwph6nqpzcmcw0000gn/T//ccz0FbIE.s 			page 71


 4049 0018 002E     		cmp	r6, #0
 4050 001a 49D1     		bne	.L1026
 4051 001c E26A     		ldr	r2, [r4, #44]
 4052 001e 002A     		cmp	r2, #0
 4053 0020 4AD0     		beq	.L1027
 4054 0022 6F1C     		adds	r7, r5, #1
 4055 0024 00F09680 		beq	.L1098
 4056 0028 E368     		ldr	r3, [r4, #12]
 4057 002a 9D42     		cmp	r5, r3
 4058 002c 28BF     		it	cs
 4059 002e 1D46     		movcs	r5, r3
 4060 0030 A561     		str	r5, [r4, #24]
 4061 0032 002D     		cmp	r5, #0
 4062 0034 3CD0     		beq	.L1026
 4063 0036 681E     		subs	r0, r5, #1
 4064 0038 2168     		ldr	r1, [r4]
 4065 003a 5368     		ldr	r3, [r2, #4]
 4066 003c 0432     		adds	r2, r2, #4
 4067 003e 400A     		lsrs	r0, r0, #9
 4068 0040 4989     		ldrh	r1, [r1, #10]
 4069 0042 B0FBF1F1 		udiv	r1, r0, r1
 4070 0046 33B9     		cbnz	r3, .L1038
 4071 0048 C1E0     		b	.L1063
 4072              	.L1099:
 4073 004a C91A     		subs	r1, r1, r3
 4074 004c 52F8083F 		ldr	r3, [r2, #8]!
 4075 0050 002B     		cmp	r3, #0
 4076 0052 00F0BC80 		beq	.L1063
 4077              	.L1038:
 4078 0056 8B42     		cmp	r3, r1
 4079 0058 F7D9     		bls	.L1099
 4080 005a 5368     		ldr	r3, [r2, #4]
 4081 005c 0B44     		add	r3, r3, r1
 4082 005e 9A1E     		subs	r2, r3, #2
 4083              	.L1036:
 4084 0060 039F     		ldr	r7, [sp, #12]
 4085 0062 E361     		str	r3, [r4, #28]
 4086 0064 BB69     		ldr	r3, [r7, #24]
 4087 0066 023B     		subs	r3, r3, #2
 4088 0068 9342     		cmp	r3, r2
 4089 006a 40F2A780 		bls	.L1040
 4090 006e 7989     		ldrh	r1, [r7, #10]
 4091 0070 FB6A     		ldr	r3, [r7, #44]
 4092 0072 02FB0133 		mla	r3, r2, r1, r3
 4093 0076 002B     		cmp	r3, #0
 4094 0078 00F0A080 		beq	.L1040
 4095 007c C5F30805 		ubfx	r5, r5, #0, #9
 4096 0080 B5B1     		cbz	r5, .L1026
 4097 0082 0139     		subs	r1, r1, #1
 4098 0084 226A     		ldr	r2, [r4, #32]
 4099 0086 0840     		ands	r0, r0, r1
 4100 0088 C518     		adds	r5, r0, r3
 4101 008a AA42     		cmp	r2, r5
 4102 008c 10D0     		beq	.L1026
 4103 008e 94F91430 		ldrsb	r3, [r4, #20]
 4104 0092 04F13001 		add	r1, r4, #48
 4105 0096 002B     		cmp	r3, #0
ARM GAS  /var/folders/lg/77ksxqjx0n7gwph6nqpzcmcw0000gn/T//ccz0FbIE.s 			page 72


 4106 0098 C0F2EE80 		blt	.L1043
 4107              	.L1044:
 4108 009c 7878     		ldrb	r0, [r7, #1]	@ zero_extendqisi2
 4109 009e 0123     		movs	r3, #1
 4110 00a0 2A46     		mov	r2, r5
 4111 00a2 FFF7FEFF 		bl	disk_read
 4112 00a6 0646     		mov	r6, r0
 4113 00a8 0028     		cmp	r0, #0
 4114 00aa 40F08D80 		bne	.L1045
 4115 00ae 2562     		str	r5, [r4, #32]
 4116              	.L1026:
 4117 00b0 3046     		mov	r0, r6
 4118 00b2 05B0     		add	sp, sp, #20
 4119              		@ sp needed
 4120 00b4 BDE8F08F 		pop	{r4, r5, r6, r7, r8, r9, r10, fp, pc}
 4121              	.L1027:
 4122 00b8 E368     		ldr	r3, [r4, #12]
 4123 00ba AB42     		cmp	r3, r5
 4124 00bc 04D2     		bcs	.L1046
 4125 00be 227D     		ldrb	r2, [r4, #20]	@ zero_extendqisi2
 4126 00c0 12F0020F 		tst	r2, #2
 4127 00c4 08BF     		it	eq
 4128 00c6 1D46     		moveq	r5, r3
 4129              	.L1046:
 4130 00c8 0022     		movs	r2, #0
 4131 00ca A369     		ldr	r3, [r4, #24]
 4132 00cc A261     		str	r2, [r4, #24]
 4133 00ce 002D     		cmp	r5, #0
 4134 00d0 EED0     		beq	.L1026
 4135 00d2 039A     		ldr	r2, [sp, #12]
 4136 00d4 B2F80A80 		ldrh	r8, [r2, #10]
 4137 00d8 4FEA4828 		lsl	r8, r8, #9
 4138 00dc 002B     		cmp	r3, #0
 4139 00de 33D0     		beq	.L1047
 4140 00e0 013B     		subs	r3, r3, #1
 4141 00e2 6A1E     		subs	r2, r5, #1
 4142 00e4 B3FBF8F1 		udiv	r1, r3, r8
 4143 00e8 B2FBF8F2 		udiv	r2, r2, r8
 4144 00ec 8A42     		cmp	r2, r1
 4145 00ee 2BD3     		bcc	.L1047
 4146 00f0 C8F10002 		rsb	r2, r8, #0
 4147 00f4 E769     		ldr	r7, [r4, #28]
 4148 00f6 1340     		ands	r3, r3, r2
 4149 00f8 ED1A     		subs	r5, r5, r3
 4150 00fa A361     		str	r3, [r4, #24]
 4151              	.L1048:
 4152 00fc 002F     		cmp	r7, #0
 4153 00fe 00F08980 		beq	.L1050
 4154 0102 4545     		cmp	r5, r8
 4155 0104 12D8     		bhi	.L1055
 4156 0106 71E0     		b	.L1051
 4157              	.L1101:
 4158 0108 FFF7FEFF 		bl	create_chain
 4159 010c 0746     		mov	r7, r0
 4160 010e 0028     		cmp	r0, #0
 4161 0110 00F0C080 		beq	.L1100
 4162              	.L1053:
ARM GAS  /var/folders/lg/77ksxqjx0n7gwph6nqpzcmcw0000gn/T//ccz0FbIE.s 			page 73


 4163 0114 7B1C     		adds	r3, r7, #1
 4164 0116 57D0     		beq	.L1045
 4165 0118 012F     		cmp	r7, #1
 4166 011a 4FD9     		bls	.L1040
 4167 011c 039B     		ldr	r3, [sp, #12]
 4168 011e 9B69     		ldr	r3, [r3, #24]
 4169 0120 BB42     		cmp	r3, r7
 4170 0122 4BD9     		bls	.L1040
 4171 0124 A845     		cmp	r8, r5
 4172 0126 A369     		ldr	r3, [r4, #24]
 4173 0128 E761     		str	r7, [r4, #28]
 4174 012a 5FD2     		bcs	.L1051
 4175              	.L1055:
 4176 012c 227D     		ldrb	r2, [r4, #20]	@ zero_extendqisi2
 4177 012e 4344     		add	r3, r3, r8
 4178 0130 3946     		mov	r1, r7
 4179 0132 2046     		mov	r0, r4
 4180 0134 9207     		lsls	r2, r2, #30
 4181 0136 A5EB0805 		sub	r5, r5, r8
 4182 013a A361     		str	r3, [r4, #24]
 4183 013c E4D4     		bmi	.L1101
 4184 013e 2068     		ldr	r0, [r4]
 4185 0140 FFF7FEFF 		bl	get_fat.isra.0
 4186 0144 0746     		mov	r7, r0
 4187 0146 E5E7     		b	.L1053
 4188              	.L1047:
 4189 0148 A768     		ldr	r7, [r4, #8]
 4190 014a 002F     		cmp	r7, #0
 4191 014c 42D0     		beq	.L1102
 4192 014e 0023     		movs	r3, #0
 4193              	.L1049:
 4194 0150 E761     		str	r7, [r4, #28]
 4195 0152 D3E7     		b	.L1048
 4196              	.L1098:
 4197 0154 1746     		mov	r7, r2
 4198 0156 D4F80880 		ldr	r8, [r4, #8]
 4199 015a 4FF00209 		mov	r9, #2
 4200 015e 57F804AB 		ldr	r10, [r7], #4
 4201 0162 B8F1000F 		cmp	r8, #0
 4202 0166 16D1     		bne	.L1034
 4203              	.L1029:
 4204 0168 D145     		cmp	r9, r10
 4205 016a C2F80090 		str	r9, [r2]
 4206 016e 73D8     		bhi	.L1061
 4207 0170 0023     		movs	r3, #0
 4208 0172 3B60     		str	r3, [r7]
 4209 0174 9CE7     		b	.L1026
 4210              	.L1104:
 4211 0176 09F10209 		add	r9, r9, #2
 4212 017a CA45     		cmp	r10, r9
 4213 017c 05D3     		bcc	.L1033
 4214 017e 3B46     		mov	r3, r7
 4215 0180 43F808BB 		str	fp, [r3], #8
 4216 0184 C7F80480 		str	r8, [r7, #4]
 4217 0188 1F46     		mov	r7, r3
 4218              	.L1033:
 4219 018a 039B     		ldr	r3, [sp, #12]
ARM GAS  /var/folders/lg/77ksxqjx0n7gwph6nqpzcmcw0000gn/T//ccz0FbIE.s 			page 74


 4220 018c 9B69     		ldr	r3, [r3, #24]
 4221 018e 8B42     		cmp	r3, r1
 4222 0190 40F28480 		bls	.L1103
 4223 0194 8846     		mov	r8, r1
 4224              	.L1034:
 4225 0196 4146     		mov	r1, r8
 4226 0198 4FF0000B 		mov	fp, #0
 4227 019c 03E0     		b	.L1032
 4228              	.L1030:
 4229 019e 481C     		adds	r0, r1, #1
 4230 01a0 12D0     		beq	.L1045
 4231 01a2 8D42     		cmp	r5, r1
 4232 01a4 E7D1     		bne	.L1104
 4233              	.L1032:
 4234 01a6 2068     		ldr	r0, [r4]
 4235 01a8 0D46     		mov	r5, r1
 4236 01aa FFF7FEFF 		bl	get_fat.isra.0
 4237 01ae 0128     		cmp	r0, #1
 4238 01b0 0BF1010B 		add	fp, fp, #1
 4239 01b4 05F10105 		add	r5, r5, #1
 4240 01b8 0146     		mov	r1, r0
 4241 01ba F0D8     		bhi	.L1030
 4242              	.L1040:
 4243 01bc 0226     		movs	r6, #2
 4244 01be 3046     		mov	r0, r6
 4245 01c0 6675     		strb	r6, [r4, #21]
 4246 01c2 05B0     		add	sp, sp, #20
 4247              		@ sp needed
 4248 01c4 BDE8F08F 		pop	{r4, r5, r6, r7, r8, r9, r10, fp, pc}
 4249              	.L1045:
 4250 01c8 0126     		movs	r6, #1
 4251 01ca 6675     		strb	r6, [r4, #21]
 4252 01cc 70E7     		b	.L1026
 4253              	.L1063:
 4254 01ce 6FF00102 		mvn	r2, #1
 4255 01d2 45E7     		b	.L1036
 4256              	.L1102:
 4257 01d4 3946     		mov	r1, r7
 4258 01d6 2046     		mov	r0, r4
 4259 01d8 FFF7FEFF 		bl	create_chain
 4260 01dc 0128     		cmp	r0, #1
 4261 01de 0746     		mov	r7, r0
 4262 01e0 ECD0     		beq	.L1040
 4263 01e2 411C     		adds	r1, r0, #1
 4264 01e4 F0D0     		beq	.L1045
 4265 01e6 A369     		ldr	r3, [r4, #24]
 4266 01e8 A060     		str	r0, [r4, #8]
 4267 01ea B1E7     		b	.L1049
 4268              	.L1051:
 4269 01ec 2B44     		add	r3, r3, r5
 4270 01ee C5F30802 		ubfx	r2, r5, #0, #9
 4271 01f2 A361     		str	r3, [r4, #24]
 4272 01f4 002A     		cmp	r2, #0
 4273 01f6 4FD0     		beq	.L1065
 4274 01f8 0399     		ldr	r1, [sp, #12]
 4275 01fa B81E     		subs	r0, r7, #2
 4276 01fc 8A69     		ldr	r2, [r1, #24]
ARM GAS  /var/folders/lg/77ksxqjx0n7gwph6nqpzcmcw0000gn/T//ccz0FbIE.s 			page 75


 4277 01fe 023A     		subs	r2, r2, #2
 4278 0200 9042     		cmp	r0, r2
 4279 0202 DBD2     		bcs	.L1040
 4280 0204 4F89     		ldrh	r7, [r1, #10]
 4281 0206 CA6A     		ldr	r2, [r1, #44]
 4282 0208 00FB0727 		mla	r7, r0, r7, r2
 4283 020c 002F     		cmp	r7, #0
 4284 020e D5D0     		beq	.L1040
 4285 0210 07EB5527 		add	r7, r7, r5, lsr #9
 4286              	.L1050:
 4287 0214 E268     		ldr	r2, [r4, #12]
 4288 0216 9A42     		cmp	r2, r3
 4289 0218 04D2     		bcs	.L1056
 4290 021a 227D     		ldrb	r2, [r4, #20]	@ zero_extendqisi2
 4291 021c E360     		str	r3, [r4, #12]
 4292 021e 42F04002 		orr	r2, r2, #64
 4293 0222 2275     		strb	r2, [r4, #20]
 4294              	.L1056:
 4295 0224 C3F30803 		ubfx	r3, r3, #0, #9
 4296 0228 002B     		cmp	r3, #0
 4297 022a 3FF441AF 		beq	.L1026
 4298 022e 226A     		ldr	r2, [r4, #32]
 4299 0230 BA42     		cmp	r2, r7
 4300 0232 3FF43DAF 		beq	.L1026
 4301 0236 94F91430 		ldrsb	r3, [r4, #20]
 4302 023a 04F13001 		add	r1, r4, #48
 4303 023e 002B     		cmp	r3, #0
 4304 0240 0CDB     		blt	.L1057
 4305              	.L1058:
 4306 0242 0398     		ldr	r0, [sp, #12]
 4307 0244 0123     		movs	r3, #1
 4308 0246 3A46     		mov	r2, r7
 4309 0248 4078     		ldrb	r0, [r0, #1]	@ zero_extendqisi2
 4310 024a FFF7FEFF 		bl	disk_read
 4311 024e 0646     		mov	r6, r0
 4312 0250 0028     		cmp	r0, #0
 4313 0252 B9D1     		bne	.L1045
 4314 0254 2762     		str	r7, [r4, #32]
 4315 0256 2BE7     		b	.L1026
 4316              	.L1061:
 4317 0258 1126     		movs	r6, #17
 4318 025a 29E7     		b	.L1026
 4319              	.L1057:
 4320 025c 0398     		ldr	r0, [sp, #12]
 4321 025e 0123     		movs	r3, #1
 4322 0260 0191     		str	r1, [sp, #4]
 4323 0262 4078     		ldrb	r0, [r0, #1]	@ zero_extendqisi2
 4324 0264 FFF7FEFF 		bl	disk_write
 4325 0268 0028     		cmp	r0, #0
 4326 026a ADD1     		bne	.L1045
 4327 026c 237D     		ldrb	r3, [r4, #20]	@ zero_extendqisi2
 4328 026e 0199     		ldr	r1, [sp, #4]
 4329 0270 03F07F03 		and	r3, r3, #127
 4330 0274 2375     		strb	r3, [r4, #20]
 4331 0276 E4E7     		b	.L1058
 4332              	.L1043:
 4333 0278 7878     		ldrb	r0, [r7, #1]	@ zero_extendqisi2
ARM GAS  /var/folders/lg/77ksxqjx0n7gwph6nqpzcmcw0000gn/T//ccz0FbIE.s 			page 76


 4334 027a 0123     		movs	r3, #1
 4335 027c 0191     		str	r1, [sp, #4]
 4336 027e FFF7FEFF 		bl	disk_write
 4337 0282 0028     		cmp	r0, #0
 4338 0284 A0D1     		bne	.L1045
 4339 0286 237D     		ldrb	r3, [r4, #20]	@ zero_extendqisi2
 4340 0288 039F     		ldr	r7, [sp, #12]
 4341 028a 03F07F03 		and	r3, r3, #127
 4342 028e 0199     		ldr	r1, [sp, #4]
 4343 0290 2375     		strb	r3, [r4, #20]
 4344 0292 03E7     		b	.L1044
 4345              	.L1100:
 4346 0294 A369     		ldr	r3, [r4, #24]
 4347 0296 BDE7     		b	.L1050
 4348              	.L1065:
 4349 0298 1746     		mov	r7, r2
 4350 029a BBE7     		b	.L1050
 4351              	.L1103:
 4352 029c E26A     		ldr	r2, [r4, #44]
 4353 029e 63E7     		b	.L1029
 4355              		.section	.text.f_opendir,"ax",%progbits
 4356              		.align	1
 4357              		.p2align 2,,3
 4358              		.global	f_opendir
 4359              		.syntax unified
 4360              		.thumb
 4361              		.thumb_func
 4362              		.fpu fpv5-d16
 4364              	f_opendir:
 4365              		@ args = 0, pretend = 0, frame = 16
 4366              		@ frame_needed = 0, uses_anonymous_args = 0
 4367 0000 30B5     		push	{r4, r5, lr}
 4368 0002 85B0     		sub	sp, sp, #20
 4369 0004 0191     		str	r1, [sp, #4]
 4370 0006 0028     		cmp	r0, #0
 4371 0008 3BD0     		beq	.L1114
 4372 000a 0546     		mov	r5, r0
 4373 000c 0022     		movs	r2, #0
 4374 000e 03A9     		add	r1, sp, #12
 4375 0010 01A8     		add	r0, sp, #4
 4376 0012 FFF7FEFF 		bl	find_volume
 4377 0016 0446     		mov	r4, r0
 4378 0018 20B1     		cbz	r0, .L1120
 4379              	.L1107:
 4380 001a 0023     		movs	r3, #0
 4381 001c 2B60     		str	r3, [r5]
 4382              	.L1106:
 4383 001e 2046     		mov	r0, r4
 4384 0020 05B0     		add	sp, sp, #20
 4385              		@ sp needed
 4386 0022 30BD     		pop	{r4, r5, pc}
 4387              	.L1120:
 4388 0024 039B     		ldr	r3, [sp, #12]
 4389 0026 2846     		mov	r0, r5
 4390 0028 0199     		ldr	r1, [sp, #4]
 4391 002a 2B60     		str	r3, [r5]
 4392 002c FFF7FEFF 		bl	follow_path
ARM GAS  /var/folders/lg/77ksxqjx0n7gwph6nqpzcmcw0000gn/T//ccz0FbIE.s 			page 77


 4393 0030 0446     		mov	r4, r0
 4394 0032 10BB     		cbnz	r0, .L1108
 4395 0034 95F92F30 		ldrsb	r3, [r5, #47]
 4396 0038 002B     		cmp	r3, #0
 4397 003a 26DB     		blt	.L1121
 4398 003c AB79     		ldrb	r3, [r5, #6]	@ zero_extendqisi2
 4399 003e DB06     		lsls	r3, r3, #27
 4400 0040 1DD5     		bpl	.L1111
 4401 0042 039A     		ldr	r2, [sp, #12]
 4402 0044 296A     		ldr	r1, [r5, #32]
 4403 0046 1078     		ldrb	r0, [r2]	@ zero_extendqisi2
 4404 0048 CC7E     		ldrb	r4, [r1, #27]	@ zero_extendqisi2
 4405 004a 8B7E     		ldrb	r3, [r1, #26]	@ zero_extendqisi2
 4406 004c 0328     		cmp	r0, #3
 4407 004e 43EA0423 		orr	r3, r3, r4, lsl #8
 4408 0052 05D1     		bne	.L1112
 4409 0054 487D     		ldrb	r0, [r1, #21]	@ zero_extendqisi2
 4410 0056 097D     		ldrb	r1, [r1, #20]	@ zero_extendqisi2
 4411 0058 41EA0021 		orr	r1, r1, r0, lsl #8
 4412 005c 43EA0143 		orr	r3, r3, r1, lsl #16
 4413              	.L1112:
 4414 0060 AB60     		str	r3, [r5, #8]
 4415              	.L1110:
 4416 0062 D388     		ldrh	r3, [r2, #6]
 4417 0064 0021     		movs	r1, #0
 4418 0066 2846     		mov	r0, r5
 4419 0068 AB80     		strh	r3, [r5, #4]	@ movhi
 4420 006a FFF7FEFF 		bl	dir_sdi
 4421 006e 0446     		mov	r4, r0
 4422 0070 18B9     		cbnz	r0, .L1108
 4423 0072 AB68     		ldr	r3, [r5, #8]
 4424 0074 5BB9     		cbnz	r3, .L1122
 4425 0076 2861     		str	r0, [r5, #16]
 4426 0078 D1E7     		b	.L1106
 4427              	.L1108:
 4428 007a 042C     		cmp	r4, #4
 4429 007c CDD1     		bne	.L1107
 4430              	.L1111:
 4431 007e 0524     		movs	r4, #5
 4432 0080 CBE7     		b	.L1107
 4433              	.L1114:
 4434 0082 0924     		movs	r4, #9
 4435 0084 2046     		mov	r0, r4
 4436 0086 05B0     		add	sp, sp, #20
 4437              		@ sp needed
 4438 0088 30BD     		pop	{r4, r5, pc}
 4439              	.L1121:
 4440 008a 039A     		ldr	r2, [sp, #12]
 4441 008c E9E7     		b	.L1110
 4442              	.L1122:
 4443 008e 0146     		mov	r1, r0
 4444 0090 2846     		mov	r0, r5
 4445 0092 FFF7FEFF 		bl	inc_lock
 4446 0096 2861     		str	r0, [r5, #16]
 4447 0098 0028     		cmp	r0, #0
 4448 009a C0D1     		bne	.L1106
 4449 009c 1224     		movs	r4, #18
ARM GAS  /var/folders/lg/77ksxqjx0n7gwph6nqpzcmcw0000gn/T//ccz0FbIE.s 			page 78


 4450 009e BCE7     		b	.L1107
 4452              		.section	.text.f_closedir,"ax",%progbits
 4453              		.align	1
 4454              		.p2align 2,,3
 4455              		.global	f_closedir
 4456              		.syntax unified
 4457              		.thumb
 4458              		.thumb_func
 4459              		.fpu fpv5-d16
 4461              	f_closedir:
 4462              		@ args = 0, pretend = 0, frame = 8
 4463              		@ frame_needed = 0, uses_anonymous_args = 0
 4464 0000 30B5     		push	{r4, r5, lr}
 4465 0002 83B0     		sub	sp, sp, #12
 4466 0004 0446     		mov	r4, r0
 4467 0006 01A9     		add	r1, sp, #4
 4468 0008 FFF7FEFF 		bl	validate
 4469 000c 98B9     		cbnz	r0, .L1124
 4470 000e 2369     		ldr	r3, [r4, #16]
 4471 0010 7BB1     		cbz	r3, .L1126
 4472 0012 013B     		subs	r3, r3, #1
 4473 0014 012B     		cmp	r3, #1
 4474 0016 10D8     		bhi	.L1132
 4475 0018 0B49     		ldr	r1, .L1138
 4476 001a 1D01     		lsls	r5, r3, #4
 4477 001c 01EB0313 		add	r3, r1, r3, lsl #4
 4478 0020 9A89     		ldrh	r2, [r3, #12]
 4479 0022 B2F5807F 		cmp	r2, #256
 4480 0026 0BD0     		beq	.L1137
 4481 0028 5AB1     		cbz	r2, .L1128
 4482 002a 013A     		subs	r2, r2, #1
 4483 002c 92B2     		uxth	r2, r2
 4484 002e 9A81     		strh	r2, [r3, #12]	@ movhi
 4485 0030 3AB1     		cbz	r2, .L1128
 4486              	.L1126:
 4487 0032 0023     		movs	r3, #0
 4488 0034 2360     		str	r3, [r4]
 4489              	.L1124:
 4490 0036 03B0     		add	sp, sp, #12
 4491              		@ sp needed
 4492 0038 30BD     		pop	{r4, r5, pc}
 4493              	.L1132:
 4494 003a 0220     		movs	r0, #2
 4495 003c 03B0     		add	sp, sp, #12
 4496              		@ sp needed
 4497 003e 30BD     		pop	{r4, r5, pc}
 4498              	.L1137:
 4499 0040 9881     		strh	r0, [r3, #12]	@ movhi
 4500              	.L1128:
 4501 0042 0023     		movs	r3, #0
 4502 0044 4B51     		str	r3, [r1, r5]
 4503 0046 F4E7     		b	.L1126
 4504              	.L1139:
 4505              		.align	2
 4506              	.L1138:
 4507 0048 00000000 		.word	.LANCHOR0
 4509              		.section	.text.f_readdir,"ax",%progbits
ARM GAS  /var/folders/lg/77ksxqjx0n7gwph6nqpzcmcw0000gn/T//ccz0FbIE.s 			page 79


 4510              		.align	1
 4511              		.p2align 2,,3
 4512              		.global	f_readdir
 4513              		.syntax unified
 4514              		.thumb
 4515              		.thumb_func
 4516              		.fpu fpv5-d16
 4518              	f_readdir:
 4519              		@ args = 0, pretend = 0, frame = 8
 4520              		@ frame_needed = 0, uses_anonymous_args = 0
 4521 0000 70B5     		push	{r4, r5, r6, lr}
 4522 0002 82B0     		sub	sp, sp, #8
 4523 0004 0D46     		mov	r5, r1
 4524 0006 0446     		mov	r4, r0
 4525 0008 01A9     		add	r1, sp, #4
 4526 000a FFF7FEFF 		bl	validate
 4527 000e 88B9     		cbnz	r0, .L1141
 4528 0010 95B1     		cbz	r5, .L1144
 4529 0012 2046     		mov	r0, r4
 4530 0014 FFF7FEFF 		bl	dir_read.constprop.0
 4531 0018 10F0FB06 		ands	r6, r0, #251
 4532 001c 0AD1     		bne	.L1141
 4533 001e 2946     		mov	r1, r5
 4534 0020 2046     		mov	r0, r4
 4535 0022 FFF7FEFF 		bl	get_fileinfo
 4536 0026 3146     		mov	r1, r6
 4537 0028 2046     		mov	r0, r4
 4538 002a FFF7FEFF 		bl	dir_next
 4539 002e 0428     		cmp	r0, #4
 4540 0030 08BF     		it	eq
 4541 0032 0020     		moveq	r0, #0
 4542              	.L1141:
 4543 0034 02B0     		add	sp, sp, #8
 4544              		@ sp needed
 4545 0036 70BD     		pop	{r4, r5, r6, pc}
 4546              	.L1144:
 4547 0038 0146     		mov	r1, r0
 4548 003a 2046     		mov	r0, r4
 4549 003c FFF7FEFF 		bl	dir_sdi
 4550 0040 02B0     		add	sp, sp, #8
 4551              		@ sp needed
 4552 0042 70BD     		pop	{r4, r5, r6, pc}
 4554              		.section	.text.f_stat,"ax",%progbits
 4555              		.align	1
 4556              		.p2align 2,,3
 4557              		.global	f_stat
 4558              		.syntax unified
 4559              		.thumb
 4560              		.thumb_func
 4561              		.fpu fpv5-d16
 4563              	f_stat:
 4564              		@ args = 0, pretend = 0, frame = 64
 4565              		@ frame_needed = 0, uses_anonymous_args = 0
 4566 0000 30B5     		push	{r4, r5, lr}
 4567 0002 91B0     		sub	sp, sp, #68
 4568 0004 0D46     		mov	r5, r1
 4569 0006 0022     		movs	r2, #0
ARM GAS  /var/folders/lg/77ksxqjx0n7gwph6nqpzcmcw0000gn/T//ccz0FbIE.s 			page 80


 4570 0008 0190     		str	r0, [sp, #4]
 4571 000a 03A9     		add	r1, sp, #12
 4572 000c 01A8     		add	r0, sp, #4
 4573 000e FFF7FEFF 		bl	find_volume
 4574 0012 0446     		mov	r4, r0
 4575 0014 10B1     		cbz	r0, .L1152
 4576              	.L1146:
 4577 0016 2046     		mov	r0, r4
 4578 0018 11B0     		add	sp, sp, #68
 4579              		@ sp needed
 4580 001a 30BD     		pop	{r4, r5, pc}
 4581              	.L1152:
 4582 001c 0199     		ldr	r1, [sp, #4]
 4583 001e 03A8     		add	r0, sp, #12
 4584 0020 FFF7FEFF 		bl	follow_path
 4585 0024 0446     		mov	r4, r0
 4586 0026 0028     		cmp	r0, #0
 4587 0028 F5D1     		bne	.L1146
 4588 002a 9DF93B30 		ldrsb	r3, [sp, #59]
 4589 002e 002B     		cmp	r3, #0
 4590 0030 06DB     		blt	.L1147
 4591 0032 002D     		cmp	r5, #0
 4592 0034 EFD0     		beq	.L1146
 4593 0036 2946     		mov	r1, r5
 4594 0038 03A8     		add	r0, sp, #12
 4595 003a FFF7FEFF 		bl	get_fileinfo
 4596 003e EAE7     		b	.L1146
 4597              	.L1147:
 4598 0040 0624     		movs	r4, #6
 4599 0042 E8E7     		b	.L1146
 4601              		.section	.text.f_getfree,"ax",%progbits
 4602              		.align	1
 4603              		.p2align 2,,3
 4604              		.global	f_getfree
 4605              		.syntax unified
 4606              		.thumb
 4607              		.thumb_func
 4608              		.fpu fpv5-d16
 4610              	f_getfree:
 4611              		@ args = 0, pretend = 0, frame = 16
 4612              		@ frame_needed = 0, uses_anonymous_args = 0
 4613 0000 2DE9F047 		push	{r4, r5, r6, r7, r8, r9, r10, lr}
 4614 0004 84B0     		sub	sp, sp, #16
 4615 0006 8846     		mov	r8, r1
 4616 0008 1646     		mov	r6, r2
 4617 000a 0022     		movs	r2, #0
 4618 000c 0190     		str	r0, [sp, #4]
 4619 000e 03A9     		add	r1, sp, #12
 4620 0010 01A8     		add	r0, sp, #4
 4621 0012 FFF7FEFF 		bl	find_volume
 4622 0016 8146     		mov	r9, r0
 4623 0018 40B9     		cbnz	r0, .L1154
 4624 001a 039C     		ldr	r4, [sp, #12]
 4625 001c D4E90535 		ldrd	r3, r5, [r4, #20]
 4626 0020 3460     		str	r4, [r6]
 4627 0022 AA1E     		subs	r2, r5, #2
 4628 0024 9342     		cmp	r3, r2
ARM GAS  /var/folders/lg/77ksxqjx0n7gwph6nqpzcmcw0000gn/T//ccz0FbIE.s 			page 81


 4629 0026 05D8     		bhi	.L1155
 4630 0028 C8F80030 		str	r3, [r8]
 4631              	.L1154:
 4632 002c 4846     		mov	r0, r9
 4633 002e 04B0     		add	sp, sp, #16
 4634              		@ sp needed
 4635 0030 BDE8F087 		pop	{r4, r5, r6, r7, r8, r9, r10, pc}
 4636              	.L1155:
 4637 0034 2378     		ldrb	r3, [r4]	@ zero_extendqisi2
 4638 0036 012B     		cmp	r3, #1
 4639 0038 33D0     		beq	.L1173
 4640 003a 616A     		ldr	r1, [r4, #36]
 4641 003c 0346     		mov	r3, r0
 4642 003e 0246     		mov	r2, r0
 4643 0040 8246     		mov	r10, r0
 4644              	.L1169:
 4645 0042 72B9     		cbnz	r2, .L1162
 4646 0044 236B     		ldr	r3, [r4, #48]
 4647 0046 4E1C     		adds	r6, r1, #1
 4648 0048 9942     		cmp	r1, r3
 4649 004a 05D0     		beq	.L1163
 4650 004c 2046     		mov	r0, r4
 4651 004e FFF7FEFF 		bl	move_window.part.0
 4652 0052 0028     		cmp	r0, #0
 4653 0054 47D1     		bne	.L1174
 4654 0056 039C     		ldr	r4, [sp, #12]
 4655              	.L1163:
 4656 0058 3146     		mov	r1, r6
 4657 005a 04F13403 		add	r3, r4, #52
 4658 005e 4FF40072 		mov	r2, #512
 4659              	.L1162:
 4660 0062 2078     		ldrb	r0, [r4]	@ zero_extendqisi2
 4661 0064 0228     		cmp	r0, #2
 4662 0066 34D0     		beq	.L1175
 4663 0068 5888     		ldrh	r0, [r3, #2]	@ unaligned
 4664 006a 043A     		subs	r2, r2, #4
 4665 006c 5F78     		ldrb	r7, [r3, #1]	@ zero_extendqisi2
 4666 006e 0433     		adds	r3, r3, #4
 4667 0070 13F8046C 		ldrb	r6, [r3, #-4]	@ zero_extendqisi2
 4668 0074 47EA0027 		orr	r7, r7, r0, lsl #8
 4669 0078 46EA0726 		orr	r6, r6, r7, lsl #8
 4670 007c 36F07040 		bics	r0, r6, #-268435456
 4671 0080 08BF     		it	eq
 4672 0082 0AF1010A 		addeq	r10, r10, #1
 4673              	.L1167:
 4674 0086 013D     		subs	r5, r5, #1
 4675 0088 DBD1     		bne	.L1169
 4676              	.L1159:
 4677 008a C8F800A0 		str	r10, [r8]
 4678 008e 4846     		mov	r0, r9
 4679 0090 2379     		ldrb	r3, [r4, #4]	@ zero_extendqisi2
 4680 0092 C4F814A0 		str	r10, [r4, #20]
 4681 0096 43F00103 		orr	r3, r3, #1
 4682 009a 2371     		strb	r3, [r4, #4]
 4683 009c 04B0     		add	sp, sp, #16
 4684              		@ sp needed
 4685 009e BDE8F087 		pop	{r4, r5, r6, r7, r8, r9, r10, pc}
ARM GAS  /var/folders/lg/77ksxqjx0n7gwph6nqpzcmcw0000gn/T//ccz0FbIE.s 			page 82


 4686              	.L1173:
 4687 00a2 0225     		movs	r5, #2
 4688 00a4 8246     		mov	r10, r0
 4689 00a6 08E0     		b	.L1161
 4690              	.L1178:
 4691 00a8 0128     		cmp	r0, #1
 4692 00aa 1FD0     		beq	.L1176
 4693 00ac 08B9     		cbnz	r0, .L1160
 4694 00ae 0AF1010A 		add	r10, r10, #1
 4695              	.L1160:
 4696 00b2 039B     		ldr	r3, [sp, #12]
 4697 00b4 9A69     		ldr	r2, [r3, #24]
 4698 00b6 AA42     		cmp	r2, r5
 4699 00b8 1CD9     		bls	.L1177
 4700              	.L1161:
 4701 00ba 2946     		mov	r1, r5
 4702 00bc 2046     		mov	r0, r4
 4703 00be FFF7FEFF 		bl	get_fat.isra.0
 4704 00c2 431C     		adds	r3, r0, #1
 4705 00c4 05F10105 		add	r5, r5, #1
 4706 00c8 EED1     		bne	.L1178
 4707 00ca 039C     		ldr	r4, [sp, #12]
 4708 00cc 4FF00109 		mov	r9, #1
 4709 00d0 DBE7     		b	.L1159
 4710              	.L1175:
 4711 00d2 5E78     		ldrb	r6, [r3, #1]	@ zero_extendqisi2
 4712 00d4 023A     		subs	r2, r2, #2
 4713 00d6 1878     		ldrb	r0, [r3]	@ zero_extendqisi2
 4714 00d8 0233     		adds	r3, r3, #2
 4715 00da 50EA0620 		orrs	r0, r0, r6, lsl #8
 4716 00de 08BF     		it	eq
 4717 00e0 0AF1010A 		addeq	r10, r10, #1
 4718 00e4 CFE7     		b	.L1167
 4719              	.L1174:
 4720 00e6 8146     		mov	r9, r0
 4721 00e8 039C     		ldr	r4, [sp, #12]
 4722 00ea CEE7     		b	.L1159
 4723              	.L1176:
 4724 00ec 039C     		ldr	r4, [sp, #12]
 4725 00ee 4FF00209 		mov	r9, #2
 4726 00f2 CAE7     		b	.L1159
 4727              	.L1177:
 4728 00f4 1C46     		mov	r4, r3
 4729 00f6 C8E7     		b	.L1159
 4731              		.section	.text.f_truncate,"ax",%progbits
 4732              		.align	1
 4733              		.p2align 2,,3
 4734              		.global	f_truncate
 4735              		.syntax unified
 4736              		.thumb
 4737              		.thumb_func
 4738              		.fpu fpv5-d16
 4740              	f_truncate:
 4741              		@ args = 0, pretend = 0, frame = 8
 4742              		@ frame_needed = 0, uses_anonymous_args = 0
 4743 0000 30B5     		push	{r4, r5, lr}
 4744 0002 83B0     		sub	sp, sp, #12
ARM GAS  /var/folders/lg/77ksxqjx0n7gwph6nqpzcmcw0000gn/T//ccz0FbIE.s 			page 83


 4745 0004 0546     		mov	r5, r0
 4746 0006 01A9     		add	r1, sp, #4
 4747 0008 FFF7FEFF 		bl	validate
 4748 000c 0446     		mov	r4, r0
 4749 000e C0B9     		cbnz	r0, .L1193
 4750 0010 6C7D     		ldrb	r4, [r5, #21]	@ zero_extendqisi2
 4751 0012 B4B9     		cbnz	r4, .L1193
 4752 0014 2B7D     		ldrb	r3, [r5, #20]	@ zero_extendqisi2
 4753 0016 9907     		lsls	r1, r3, #30
 4754 0018 16D5     		bpl	.L1189
 4755 001a AB69     		ldr	r3, [r5, #24]
 4756 001c EA68     		ldr	r2, [r5, #12]
 4757 001e 9342     		cmp	r3, r2
 4758 0020 0FD2     		bcs	.L1193
 4759 0022 9BB9     		cbnz	r3, .L1182
 4760 0024 2246     		mov	r2, r4
 4761 0026 A968     		ldr	r1, [r5, #8]
 4762 0028 2846     		mov	r0, r5
 4763 002a FFF7FEFF 		bl	remove_chain
 4764 002e AC60     		str	r4, [r5, #8]
 4765              	.L1183:
 4766 0030 2B7D     		ldrb	r3, [r5, #20]	@ zero_extendqisi2
 4767 0032 AA69     		ldr	r2, [r5, #24]
 4768 0034 43F04003 		orr	r3, r3, #64
 4769 0038 EA60     		str	r2, [r5, #12]
 4770 003a 2B75     		strb	r3, [r5, #20]
 4771 003c 00BB     		cbnz	r0, .L1187
 4772              	.L1186:
 4773 003e 1B06     		lsls	r3, r3, #24
 4774 0040 21D4     		bmi	.L1195
 4775              	.L1193:
 4776 0042 2046     		mov	r0, r4
 4777 0044 03B0     		add	sp, sp, #12
 4778              		@ sp needed
 4779 0046 30BD     		pop	{r4, r5, pc}
 4780              	.L1189:
 4781 0048 0724     		movs	r4, #7
 4782 004a FAE7     		b	.L1193
 4783              	.L1182:
 4784 004c E969     		ldr	r1, [r5, #28]
 4785 004e 2868     		ldr	r0, [r5]
 4786 0050 FFF7FEFF 		bl	get_fat.isra.0
 4787 0054 421C     		adds	r2, r0, #1
 4788 0056 25D0     		beq	.L1190
 4789 0058 0128     		cmp	r0, #1
 4790 005a 0AD0     		beq	.L1191
 4791 005c 019B     		ldr	r3, [sp, #4]
 4792 005e 9B69     		ldr	r3, [r3, #24]
 4793 0060 8342     		cmp	r3, r0
 4794 0062 21D8     		bhi	.L1185
 4795 0064 2B7D     		ldrb	r3, [r5, #20]	@ zero_extendqisi2
 4796 0066 AA69     		ldr	r2, [r5, #24]
 4797 0068 43F04003 		orr	r3, r3, #64
 4798 006c EA60     		str	r2, [r5, #12]
 4799 006e 2B75     		strb	r3, [r5, #20]
 4800 0070 E5E7     		b	.L1186
 4801              	.L1191:
ARM GAS  /var/folders/lg/77ksxqjx0n7gwph6nqpzcmcw0000gn/T//ccz0FbIE.s 			page 84


 4802 0072 0220     		movs	r0, #2
 4803              	.L1184:
 4804 0074 2B7D     		ldrb	r3, [r5, #20]	@ zero_extendqisi2
 4805 0076 AA69     		ldr	r2, [r5, #24]
 4806 0078 43F04003 		orr	r3, r3, #64
 4807 007c EA60     		str	r2, [r5, #12]
 4808 007e 2B75     		strb	r3, [r5, #20]
 4809              	.L1187:
 4810 0080 0446     		mov	r4, r0
 4811 0082 6875     		strb	r0, [r5, #21]
 4812 0084 DDE7     		b	.L1193
 4813              	.L1195:
 4814 0086 0198     		ldr	r0, [sp, #4]
 4815 0088 0123     		movs	r3, #1
 4816 008a 2A6A     		ldr	r2, [r5, #32]
 4817 008c 05F13001 		add	r1, r5, #48
 4818 0090 4078     		ldrb	r0, [r0, #1]	@ zero_extendqisi2
 4819 0092 FFF7FEFF 		bl	disk_write
 4820 0096 0446     		mov	r4, r0
 4821 0098 60B9     		cbnz	r0, .L1192
 4822 009a 2B7D     		ldrb	r3, [r5, #20]	@ zero_extendqisi2
 4823 009c 03F07F03 		and	r3, r3, #127
 4824 00a0 2B75     		strb	r3, [r5, #20]
 4825 00a2 CEE7     		b	.L1193
 4826              	.L1190:
 4827 00a4 0120     		movs	r0, #1
 4828 00a6 E5E7     		b	.L1184
 4829              	.L1185:
 4830 00a8 0146     		mov	r1, r0
 4831 00aa EA69     		ldr	r2, [r5, #28]
 4832 00ac 2846     		mov	r0, r5
 4833 00ae FFF7FEFF 		bl	remove_chain
 4834 00b2 BDE7     		b	.L1183
 4835              	.L1192:
 4836 00b4 0120     		movs	r0, #1
 4837 00b6 E3E7     		b	.L1187
 4839              		.section	.text.f_unlink,"ax",%progbits
 4840              		.align	1
 4841              		.p2align 2,,3
 4842              		.global	f_unlink
 4843              		.syntax unified
 4844              		.thumb
 4845              		.thumb_func
 4846              		.fpu fpv5-d16
 4848              	f_unlink:
 4849              		@ args = 0, pretend = 0, frame = 120
 4850              		@ frame_needed = 0, uses_anonymous_args = 0
 4851 0000 30B5     		push	{r4, r5, lr}
 4852 0002 9FB0     		sub	sp, sp, #124
 4853 0004 0222     		movs	r2, #2
 4854 0006 0190     		str	r0, [sp, #4]
 4855 0008 03A9     		add	r1, sp, #12
 4856 000a 01A8     		add	r0, sp, #4
 4857 000c FFF7FEFF 		bl	find_volume
 4858 0010 039B     		ldr	r3, [sp, #12]
 4859 0012 0493     		str	r3, [sp, #16]
 4860 0014 08B1     		cbz	r0, .L1217
ARM GAS  /var/folders/lg/77ksxqjx0n7gwph6nqpzcmcw0000gn/T//ccz0FbIE.s 			page 85


 4861              	.L1197:
 4862 0016 1FB0     		add	sp, sp, #124
 4863              		@ sp needed
 4864 0018 30BD     		pop	{r4, r5, pc}
 4865              	.L1217:
 4866 001a 0199     		ldr	r1, [sp, #4]
 4867 001c 04A8     		add	r0, sp, #16
 4868 001e FFF7FEFF 		bl	follow_path
 4869 0022 0028     		cmp	r0, #0
 4870 0024 F7D1     		bne	.L1197
 4871 0026 0221     		movs	r1, #2
 4872 0028 04A8     		add	r0, sp, #16
 4873 002a FFF7FEFF 		bl	chk_lock
 4874 002e 0028     		cmp	r0, #0
 4875 0030 F1D1     		bne	.L1197
 4876 0032 9DF93F30 		ldrsb	r3, [sp, #63]
 4877 0036 002B     		cmp	r3, #0
 4878 0038 26DB     		blt	.L1206
 4879 003a 9DF81630 		ldrb	r3, [sp, #22]	@ zero_extendqisi2
 4880 003e DA07     		lsls	r2, r3, #31
 4881 0040 20D4     		bmi	.L1204
 4882 0042 0398     		ldr	r0, [sp, #12]
 4883 0044 0C9A     		ldr	r2, [sp, #48]
 4884 0046 0178     		ldrb	r1, [r0]	@ zero_extendqisi2
 4885 0048 D57E     		ldrb	r5, [r2, #27]	@ zero_extendqisi2
 4886 004a 947E     		ldrb	r4, [r2, #26]	@ zero_extendqisi2
 4887 004c 0329     		cmp	r1, #3
 4888 004e 44EA0524 		orr	r4, r4, r5, lsl #8
 4889 0052 05D1     		bne	.L1199
 4890 0054 517D     		ldrb	r1, [r2, #21]	@ zero_extendqisi2
 4891 0056 127D     		ldrb	r2, [r2, #20]	@ zero_extendqisi2
 4892 0058 42EA0122 		orr	r2, r2, r1, lsl #8
 4893 005c 44EA0244 		orr	r4, r4, r2, lsl #16
 4894              	.L1199:
 4895 0060 DB06     		lsls	r3, r3, #27
 4896 0062 13D4     		bmi	.L1200
 4897              	.L1205:
 4898 0064 04A8     		add	r0, sp, #16
 4899 0066 FFF7FEFF 		bl	dir_remove
 4900 006a 28B9     		cbnz	r0, .L1203
 4901 006c 24B1     		cbz	r4, .L1203
 4902 006e 2146     		mov	r1, r4
 4903 0070 04A8     		add	r0, sp, #16
 4904 0072 0022     		movs	r2, #0
 4905 0074 FFF7FEFF 		bl	remove_chain
 4906              	.L1203:
 4907 0078 0028     		cmp	r0, #0
 4908 007a CCD1     		bne	.L1197
 4909 007c 0398     		ldr	r0, [sp, #12]
 4910 007e FFF7FEFF 		bl	sync_fs
 4911 0082 C8E7     		b	.L1197
 4912              	.L1204:
 4913 0084 0720     		movs	r0, #7
 4914 0086 C6E7     		b	.L1197
 4915              	.L1206:
 4916 0088 0620     		movs	r0, #6
 4917 008a C4E7     		b	.L1197
ARM GAS  /var/folders/lg/77ksxqjx0n7gwph6nqpzcmcw0000gn/T//ccz0FbIE.s 			page 86


 4918              	.L1200:
 4919 008c 1190     		str	r0, [sp, #68]
 4920 008e 0021     		movs	r1, #0
 4921 0090 11A8     		add	r0, sp, #68
 4922 0092 1394     		str	r4, [sp, #76]
 4923 0094 FFF7FEFF 		bl	dir_sdi
 4924 0098 0028     		cmp	r0, #0
 4925 009a BCD1     		bne	.L1197
 4926 009c 11A8     		add	r0, sp, #68
 4927 009e FFF7FEFF 		bl	dir_read.constprop.0
 4928 00a2 0028     		cmp	r0, #0
 4929 00a4 EED0     		beq	.L1204
 4930 00a6 0428     		cmp	r0, #4
 4931 00a8 B5D1     		bne	.L1197
 4932 00aa DBE7     		b	.L1205
 4934              		.section	.text.f_mkdir,"ax",%progbits
 4935              		.align	1
 4936              		.p2align 2,,3
 4937              		.global	f_mkdir
 4938              		.syntax unified
 4939              		.thumb
 4940              		.thumb_func
 4941              		.fpu fpv5-d16
 4943              	f_mkdir:
 4944              		@ args = 0, pretend = 0, frame = 88
 4945              		@ frame_needed = 0, uses_anonymous_args = 0
 4946 0000 2DE9F04F 		push	{r4, r5, r6, r7, r8, r9, r10, fp, lr}
 4947 0004 97B0     		sub	sp, sp, #92
 4948 0006 0222     		movs	r2, #2
 4949 0008 0790     		str	r0, [sp, #28]
 4950 000a 08A9     		add	r1, sp, #32
 4951 000c 07A8     		add	r0, sp, #28
 4952 000e FFF7FEFF 		bl	find_volume
 4953 0012 089B     		ldr	r3, [sp, #32]
 4954 0014 0446     		mov	r4, r0
 4955 0016 0993     		str	r3, [sp, #36]
 4956 0018 18B1     		cbz	r0, .L1255
 4957              	.L1244:
 4958 001a 2046     		mov	r0, r4
 4959 001c 17B0     		add	sp, sp, #92
 4960              		@ sp needed
 4961 001e BDE8F08F 		pop	{r4, r5, r6, r7, r8, r9, r10, fp, pc}
 4962              	.L1255:
 4963 0022 0799     		ldr	r1, [sp, #28]
 4964 0024 09A8     		add	r0, sp, #36
 4965 0026 FFF7FEFF 		bl	follow_path
 4966 002a 30B1     		cbz	r0, .L1236
 4967 002c 0428     		cmp	r0, #4
 4968 002e 09D0     		beq	.L1256
 4969 0030 0446     		mov	r4, r0
 4970 0032 2046     		mov	r0, r4
 4971 0034 17B0     		add	sp, sp, #92
 4972              		@ sp needed
 4973 0036 BDE8F08F 		pop	{r4, r5, r6, r7, r8, r9, r10, fp, pc}
 4974              	.L1236:
 4975 003a 0824     		movs	r4, #8
 4976 003c 2046     		mov	r0, r4
ARM GAS  /var/folders/lg/77ksxqjx0n7gwph6nqpzcmcw0000gn/T//ccz0FbIE.s 			page 87


 4977 003e 17B0     		add	sp, sp, #92
 4978              		@ sp needed
 4979 0040 BDE8F08F 		pop	{r4, r5, r6, r7, r8, r9, r10, fp, pc}
 4980              	.L1256:
 4981 0044 2146     		mov	r1, r4
 4982 0046 09A8     		add	r0, sp, #36
 4983 0048 FFF7FEFF 		bl	create_chain
 4984 004c 089A     		ldr	r2, [sp, #32]
 4985 004e 0646     		mov	r6, r0
 4986 0050 5389     		ldrh	r3, [r2, #10]
 4987 0052 5B02     		lsls	r3, r3, #9
 4988 0054 0C93     		str	r3, [sp, #48]
 4989 0056 0028     		cmp	r0, #0
 4990 0058 00F0B680 		beq	.L1238
 4991 005c 0128     		cmp	r0, #1
 4992 005e 00F0D280 		beq	.L1239
 4993 0062 431C     		adds	r3, r0, #1
 4994 0064 00F0D180 		beq	.L1240
 4995 0068 D378     		ldrb	r3, [r2, #3]	@ zero_extendqisi2
 4996 006a 002B     		cmp	r3, #0
 4997 006c 40F0B580 		bne	.L1221
 4998 0070 FFF7FEFF 		bl	get_fattime
 4999              	.L1222:
 5000 0074 089F     		ldr	r7, [sp, #32]
 5001 0076 B21E     		subs	r2, r6, #2
 5002 0078 BB69     		ldr	r3, [r7, #24]
 5003 007a 023B     		subs	r3, r3, #2
 5004 007c 9A42     		cmp	r2, r3
 5005 007e 80F0BF80 		bcs	.L1242
 5006 0082 7989     		ldrh	r1, [r7, #10]
 5007 0084 FB6A     		ldr	r3, [r7, #44]
 5008 0086 02FB0139 		mla	r9, r2, r1, r3
 5009              	.L1224:
 5010 008a 07F13408 		add	r8, r7, #52
 5011 008e 07F50D75 		add	r5, r7, #564
 5012 0092 0021     		movs	r1, #0
 5013 0094 4246     		mov	r2, r8
 5014              	.L1225:
 5015 0096 02F8011B 		strb	r1, [r2], #1
 5016 009a 9542     		cmp	r5, r2
 5017 009c FBD1     		bne	.L1225
 5018 009e 07F13F0C 		add	ip, r7, #63
 5019 00a2 4246     		mov	r2, r8
 5020 00a4 2021     		movs	r1, #32
 5021              	.L1226:
 5022 00a6 02F8011B 		strb	r1, [r2], #1
 5023 00aa 9445     		cmp	ip, r2
 5024 00ac FBD1     		bne	.L1226
 5025 00ae C0F30722 		ubfx	r2, r0, #8, #8
 5026 00b2 C3B2     		uxtb	r3, r0
 5027 00b4 5FFA86FC 		uxtb	ip, r6
 5028 00b8 4FF02E0E 		mov	lr, #46
 5029 00bc 0392     		str	r2, [sp, #12]
 5030 00be C0F30742 		ubfx	r2, r0, #16, #8
 5031 00c2 87F84A30 		strb	r3, [r7, #74]
 5032 00c6 000E     		lsrs	r0, r0, #24
 5033 00c8 0593     		str	r3, [sp, #20]
ARM GAS  /var/folders/lg/77ksxqjx0n7gwph6nqpzcmcw0000gn/T//ccz0FbIE.s 			page 88


 5034 00ca 1021     		movs	r1, #16
 5035 00cc 039B     		ldr	r3, [sp, #12]
 5036 00ce 0492     		str	r2, [sp, #16]
 5037 00d0 87F84B30 		strb	r3, [r7, #75]
 5038 00d4 049B     		ldr	r3, [sp, #16]
 5039 00d6 CDF804C0 		str	ip, [sp, #4]
 5040 00da C6F3072C 		ubfx	ip, r6, #8, #8
 5041 00de 87F84C30 		strb	r3, [r7, #76]
 5042 00e2 089A     		ldr	r2, [sp, #32]
 5043 00e4 019B     		ldr	r3, [sp, #4]
 5044 00e6 87F834E0 		strb	lr, [r7, #52]
 5045 00ea 87F83F10 		strb	r1, [r7, #63]
 5046 00ee 87F84D00 		strb	r0, [r7, #77]
 5047 00f2 87F84E30 		strb	r3, [r7, #78]
 5048 00f6 87F84FC0 		strb	ip, [r7, #79]
 5049 00fa 1278     		ldrb	r2, [r2]	@ zero_extendqisi2
 5050 00fc 0690     		str	r0, [sp, #24]
 5051 00fe 032A     		cmp	r2, #3
 5052 0100 CDF808C0 		str	ip, [sp, #8]
 5053 0104 05D1     		bne	.L1227
 5054 0106 320C     		lsrs	r2, r6, #16
 5055 0108 110A     		lsrs	r1, r2, #8
 5056 010a 87F84820 		strb	r2, [r7, #72]
 5057 010e 87F84910 		strb	r1, [r7, #73]
 5058              	.L1227:
 5059 0112 2022     		movs	r2, #32
 5060 0114 4146     		mov	r1, r8
 5061 0116 07F15400 		add	r0, r7, #84
 5062 011a FFF7FEFF 		bl	mem_cpy.part.0
 5063 011e 2E22     		movs	r2, #46
 5064 0120 0898     		ldr	r0, [sp, #32]
 5065 0122 87F85520 		strb	r2, [r7, #85]
 5066 0126 0178     		ldrb	r1, [r0]	@ zero_extendqisi2
 5067 0128 0B9A     		ldr	r2, [sp, #44]
 5068 012a 0329     		cmp	r1, #3
 5069 012c 62D0     		beq	.L1228
 5070              	.L1254:
 5071 012e D4B2     		uxtb	r4, r2
 5072 0130 C2F30721 		ubfx	r1, r2, #8, #8
 5073              	.L1229:
 5074 0134 87F86E40 		strb	r4, [r7, #110]
 5075 0138 87F86F10 		strb	r1, [r7, #111]
 5076 013c 0178     		ldrb	r1, [r0]	@ zero_extendqisi2
 5077 013e 0329     		cmp	r1, #3
 5078 0140 05D1     		bne	.L1230
 5079 0142 120C     		lsrs	r2, r2, #16
 5080 0144 110A     		lsrs	r1, r2, #8
 5081 0146 87F86820 		strb	r2, [r7, #104]
 5082 014a 87F86910 		strb	r1, [r7, #105]
 5083              	.L1230:
 5084 014e 4289     		ldrh	r2, [r0, #10]
 5085 0150 C2B1     		cbz	r2, .L1231
 5086 0152 013A     		subs	r2, r2, #1
 5087 0154 4FF0010A 		mov	r10, #1
 5088 0158 4FF0000B 		mov	fp, #0
 5089 015c 4C46     		mov	r4, r9
 5090 015e 02EB0907 		add	r7, r2, r9
ARM GAS  /var/folders/lg/77ksxqjx0n7gwph6nqpzcmcw0000gn/T//ccz0FbIE.s 			page 89


 5091              	.L1233:
 5092 0162 0463     		str	r4, [r0, #48]
 5093 0164 80F803A0 		strb	r10, [r0, #3]
 5094 0168 FFF7FEFF 		bl	sync_window.part.0
 5095 016c 0028     		cmp	r0, #0
 5096 016e 3FD1     		bne	.L1251
 5097 0170 4346     		mov	r3, r8
 5098              	.L1232:
 5099 0172 03F801BB 		strb	fp, [r3], #1
 5100 0176 9D42     		cmp	r5, r3
 5101 0178 FBD1     		bne	.L1232
 5102 017a A742     		cmp	r7, r4
 5103 017c 02D0     		beq	.L1231
 5104 017e 0134     		adds	r4, r4, #1
 5105 0180 0898     		ldr	r0, [sp, #32]
 5106 0182 EEE7     		b	.L1233
 5107              	.L1231:
 5108 0184 09A8     		add	r0, sp, #36
 5109 0186 FFF7FEFF 		bl	dir_register
 5110 018a 0446     		mov	r4, r0
 5111 018c F8B9     		cbnz	r0, .L1223
 5112 018e 119B     		ldr	r3, [sp, #68]
 5113 0190 059A     		ldr	r2, [sp, #20]
 5114 0192 0898     		ldr	r0, [sp, #32]
 5115 0194 9A75     		strb	r2, [r3, #22]
 5116 0196 039A     		ldr	r2, [sp, #12]
 5117 0198 DA75     		strb	r2, [r3, #23]
 5118 019a 049A     		ldr	r2, [sp, #16]
 5119 019c 1A76     		strb	r2, [r3, #24]
 5120 019e 069A     		ldr	r2, [sp, #24]
 5121 01a0 5A76     		strb	r2, [r3, #25]
 5122 01a2 019A     		ldr	r2, [sp, #4]
 5123 01a4 9A76     		strb	r2, [r3, #26]
 5124 01a6 029A     		ldr	r2, [sp, #8]
 5125 01a8 DA76     		strb	r2, [r3, #27]
 5126 01aa 0278     		ldrb	r2, [r0]	@ zero_extendqisi2
 5127 01ac 032A     		cmp	r2, #3
 5128 01ae 03D1     		bne	.L1234
 5129 01b0 360C     		lsrs	r6, r6, #16
 5130 01b2 320A     		lsrs	r2, r6, #8
 5131 01b4 1E75     		strb	r6, [r3, #20]
 5132 01b6 5A75     		strb	r2, [r3, #21]
 5133              	.L1234:
 5134 01b8 1021     		movs	r1, #16
 5135 01ba 0122     		movs	r2, #1
 5136 01bc D972     		strb	r1, [r3, #11]
 5137 01be C270     		strb	r2, [r0, #3]
 5138 01c0 FFF7FEFF 		bl	sync_fs
 5139 01c4 0446     		mov	r4, r0
 5140 01c6 28E7     		b	.L1244
 5141              	.L1238:
 5142 01c8 0724     		movs	r4, #7
 5143              	.L1220:
 5144 01ca FFF7FEFF 		bl	get_fattime
 5145              	.L1223:
 5146 01ce 3146     		mov	r1, r6
 5147 01d0 09A8     		add	r0, sp, #36
ARM GAS  /var/folders/lg/77ksxqjx0n7gwph6nqpzcmcw0000gn/T//ccz0FbIE.s 			page 90


 5148 01d2 0022     		movs	r2, #0
 5149 01d4 FFF7FEFF 		bl	remove_chain
 5150 01d8 1FE7     		b	.L1244
 5151              	.L1221:
 5152 01da 1046     		mov	r0, r2
 5153 01dc FFF7FEFF 		bl	sync_window.part.0
 5154 01e0 0546     		mov	r5, r0
 5155 01e2 FFF7FEFF 		bl	get_fattime
 5156 01e6 002D     		cmp	r5, #0
 5157 01e8 3FF444AF 		beq	.L1222
 5158 01ec 2C46     		mov	r4, r5
 5159 01ee EEE7     		b	.L1223
 5160              	.L1251:
 5161 01f0 0446     		mov	r4, r0
 5162 01f2 ECE7     		b	.L1223
 5163              	.L1228:
 5164 01f4 816A     		ldr	r1, [r0, #40]
 5165 01f6 9142     		cmp	r1, r2
 5166 01f8 99D1     		bne	.L1254
 5167 01fa 0021     		movs	r1, #0
 5168 01fc 0A46     		mov	r2, r1
 5169 01fe 99E7     		b	.L1229
 5170              	.L1242:
 5171 0200 4FF00009 		mov	r9, #0
 5172 0204 41E7     		b	.L1224
 5173              	.L1239:
 5174 0206 0224     		movs	r4, #2
 5175 0208 DFE7     		b	.L1220
 5176              	.L1240:
 5177 020a 0124     		movs	r4, #1
 5178 020c DDE7     		b	.L1220
 5180 020e 00BF     		.section	.text.f_rename,"ax",%progbits
 5181              		.align	1
 5182              		.p2align 2,,3
 5183              		.global	f_rename
 5184              		.syntax unified
 5185              		.thumb
 5186              		.thumb_func
 5187              		.fpu fpv5-d16
 5189              	f_rename:
 5190              		@ args = 0, pretend = 0, frame = 144
 5191              		@ frame_needed = 0, uses_anonymous_args = 0
 5192 0000 10B5     		push	{r4, lr}
 5193 0002 A4B0     		sub	sp, sp, #144
 5194 0004 0190     		str	r0, [sp, #4]
 5195 0006 6846     		mov	r0, sp
 5196 0008 0091     		str	r1, [sp]
 5197 000a FFF7FEFF 		bl	get_ldnumber
 5198 000e 0222     		movs	r2, #2
 5199 0010 03A9     		add	r1, sp, #12
 5200 0012 01A8     		add	r0, sp, #4
 5201 0014 FFF7FEFF 		bl	find_volume
 5202 0018 08B1     		cbz	r0, .L1272
 5203              	.L1258:
 5204 001a 24B0     		add	sp, sp, #144
 5205              		@ sp needed
 5206 001c 10BD     		pop	{r4, pc}
ARM GAS  /var/folders/lg/77ksxqjx0n7gwph6nqpzcmcw0000gn/T//ccz0FbIE.s 			page 91


 5207              	.L1272:
 5208 001e 039B     		ldr	r3, [sp, #12]
 5209 0020 0AA8     		add	r0, sp, #40
 5210 0022 0199     		ldr	r1, [sp, #4]
 5211 0024 0A93     		str	r3, [sp, #40]
 5212 0026 FFF7FEFF 		bl	follow_path
 5213 002a 0028     		cmp	r0, #0
 5214 002c F5D1     		bne	.L1258
 5215 002e 9DF85730 		ldrb	r3, [sp, #87]	@ zero_extendqisi2
 5216 0032 13F0A00F 		tst	r3, #160
 5217 0036 01D0     		beq	.L1273
 5218 0038 0620     		movs	r0, #6
 5219 003a EEE7     		b	.L1258
 5220              	.L1273:
 5221 003c 0221     		movs	r1, #2
 5222 003e 0AA8     		add	r0, sp, #40
 5223 0040 FFF7FEFF 		bl	chk_lock
 5224 0044 0028     		cmp	r0, #0
 5225 0046 E8D1     		bne	.L1258
 5226 0048 1299     		ldr	r1, [sp, #72]
 5227 004a 1522     		movs	r2, #21
 5228 004c 04A8     		add	r0, sp, #16
 5229 004e 0B31     		adds	r1, r1, #11
 5230 0050 FFF7FEFF 		bl	mem_cpy.part.0
 5231 0054 17A8     		add	r0, sp, #92
 5232 0056 0AA9     		add	r1, sp, #40
 5233 0058 3422     		movs	r2, #52
 5234 005a FFF7FEFF 		bl	mem_cpy.part.0
 5235 005e 17A8     		add	r0, sp, #92
 5236 0060 0099     		ldr	r1, [sp]
 5237 0062 FFF7FEFF 		bl	follow_path
 5238 0066 28B9     		cbnz	r0, .L1259
 5239 0068 199A     		ldr	r2, [sp, #100]
 5240 006a 0C9B     		ldr	r3, [sp, #48]
 5241 006c 9A42     		cmp	r2, r3
 5242 006e 4BD0     		beq	.L1274
 5243              	.L1268:
 5244 0070 0820     		movs	r0, #8
 5245 0072 D2E7     		b	.L1258
 5246              	.L1259:
 5247 0074 0428     		cmp	r0, #4
 5248 0076 D0D1     		bne	.L1258
 5249              	.L1260:
 5250 0078 17A8     		add	r0, sp, #92
 5251 007a FFF7FEFF 		bl	dir_register
 5252 007e 0028     		cmp	r0, #0
 5253 0080 CBD1     		bne	.L1258
 5254 0082 1F9C     		ldr	r4, [sp, #124]
 5255 0084 1322     		movs	r2, #19
 5256 0086 0DF11201 		add	r1, sp, #18
 5257 008a 04F10D00 		add	r0, r4, #13
 5258 008e FFF7FEFF 		bl	mem_cpy.part.0
 5259 0092 9DF81030 		ldrb	r3, [sp, #16]	@ zero_extendqisi2
 5260 0096 0398     		ldr	r0, [sp, #12]
 5261 0098 0122     		movs	r2, #1
 5262 009a 43F02003 		orr	r3, r3, #32
 5263 009e E372     		strb	r3, [r4, #11]
ARM GAS  /var/folders/lg/77ksxqjx0n7gwph6nqpzcmcw0000gn/T//ccz0FbIE.s 			page 92


 5264 00a0 C270     		strb	r2, [r0, #3]
 5265 00a2 E37A     		ldrb	r3, [r4, #11]	@ zero_extendqisi2
 5266 00a4 DB06     		lsls	r3, r3, #27
 5267 00a6 26D5     		bpl	.L1262
 5268 00a8 0C9A     		ldr	r2, [sp, #48]
 5269 00aa 199B     		ldr	r3, [sp, #100]
 5270 00ac 9A42     		cmp	r2, r3
 5271 00ae 22D0     		beq	.L1262
 5272 00b0 0278     		ldrb	r2, [r0]	@ zero_extendqisi2
 5273 00b2 E17E     		ldrb	r1, [r4, #27]	@ zero_extendqisi2
 5274 00b4 A37E     		ldrb	r3, [r4, #26]	@ zero_extendqisi2
 5275 00b6 032A     		cmp	r2, #3
 5276 00b8 43EA0123 		orr	r3, r3, r1, lsl #8
 5277 00bc 05D1     		bne	.L1264
 5278 00be 617D     		ldrb	r1, [r4, #21]	@ zero_extendqisi2
 5279 00c0 227D     		ldrb	r2, [r4, #20]	@ zero_extendqisi2
 5280 00c2 42EA0122 		orr	r2, r2, r1, lsl #8
 5281 00c6 43EA0243 		orr	r3, r3, r2, lsl #16
 5282              	.L1264:
 5283 00ca 8269     		ldr	r2, [r0, #24]
 5284 00cc 023B     		subs	r3, r3, #2
 5285 00ce 023A     		subs	r2, r2, #2
 5286 00d0 9342     		cmp	r3, r2
 5287 00d2 1ED2     		bcs	.L1270
 5288 00d4 4289     		ldrh	r2, [r0, #10]
 5289 00d6 C16A     		ldr	r1, [r0, #44]
 5290 00d8 03FB0211 		mla	r1, r3, r2, r1
 5291 00dc C9B1     		cbz	r1, .L1270
 5292 00de 026B     		ldr	r2, [r0, #48]
 5293 00e0 9142     		cmp	r1, r2
 5294 00e2 04D0     		beq	.L1265
 5295 00e4 FFF7FEFF 		bl	move_window.part.0
 5296 00e8 0028     		cmp	r0, #0
 5297 00ea 96D1     		bne	.L1258
 5298 00ec 0398     		ldr	r0, [sp, #12]
 5299              	.L1265:
 5300 00ee 90F85530 		ldrb	r3, [r0, #85]	@ zero_extendqisi2
 5301 00f2 2E2B     		cmp	r3, #46
 5302 00f4 0FD0     		beq	.L1275
 5303              	.L1262:
 5304 00f6 0AA8     		add	r0, sp, #40
 5305 00f8 FFF7FEFF 		bl	dir_remove
 5306 00fc 0028     		cmp	r0, #0
 5307 00fe 8CD1     		bne	.L1258
 5308 0100 0398     		ldr	r0, [sp, #12]
 5309 0102 FFF7FEFF 		bl	sync_fs
 5310 0106 88E7     		b	.L1258
 5311              	.L1274:
 5312 0108 1C9A     		ldr	r2, [sp, #112]
 5313 010a 0F9B     		ldr	r3, [sp, #60]
 5314 010c 9A42     		cmp	r2, r3
 5315 010e AFD1     		bne	.L1268
 5316 0110 B2E7     		b	.L1260
 5317              	.L1270:
 5318 0112 0220     		movs	r0, #2
 5319 0114 81E7     		b	.L1258
 5320              	.L1275:
ARM GAS  /var/folders/lg/77ksxqjx0n7gwph6nqpzcmcw0000gn/T//ccz0FbIE.s 			page 93


 5321 0116 199B     		ldr	r3, [sp, #100]
 5322 0118 039A     		ldr	r2, [sp, #12]
 5323 011a C3F30721 		ubfx	r1, r3, #8, #8
 5324 011e 80F86E30 		strb	r3, [r0, #110]
 5325 0122 80F86F10 		strb	r1, [r0, #111]
 5326 0126 1178     		ldrb	r1, [r2]	@ zero_extendqisi2
 5327 0128 0329     		cmp	r1, #3
 5328 012a 05D1     		bne	.L1266
 5329 012c 1B0C     		lsrs	r3, r3, #16
 5330 012e 190A     		lsrs	r1, r3, #8
 5331 0130 80F86830 		strb	r3, [r0, #104]
 5332 0134 80F86910 		strb	r1, [r0, #105]
 5333              	.L1266:
 5334 0138 0123     		movs	r3, #1
 5335 013a D370     		strb	r3, [r2, #3]
 5336 013c DBE7     		b	.L1262
 5338 013e 00BF     		.section	.rodata.f_mkfs.str1.4,"aMS",%progbits,1
 5339              		.align	2
 5340              	.LC2:
 5341 0000 EBFE904D 		.ascii	"\353\376\220MSDOS5.0\000"
 5341      53444F53 
 5341      352E3000 
 5342              		.align	2
 5343              	.LC3:
 5344 000c 4E4F204E 		.ascii	"NO NAME    FAT32   \000"
 5344      414D4520 
 5344      20202046 
 5344      41543332 
 5344      20202000 
 5345              		.align	2
 5346              	.LC4:
 5347 0020 4E4F204E 		.ascii	"NO NAME    FAT     \000"
 5347      414D4520 
 5347      20202046 
 5347      41542020 
 5347      20202000 
 5348              		.section	.text.f_mkfs,"ax",%progbits
 5349              		.align	1
 5350              		.p2align 2,,3
 5351              		.global	f_mkfs
 5352              		.syntax unified
 5353              		.thumb
 5354              		.thumb_func
 5355              		.fpu fpv5-d16
 5357              	f_mkfs:
 5358              		@ args = 4, pretend = 0, frame = 48
 5359              		@ frame_needed = 0, uses_anonymous_args = 0
 5360 0000 2DE9F04F 		push	{r4, r5, r6, r7, r8, r9, r10, fp, lr}
 5361 0004 8DB0     		sub	sp, sp, #52
 5362 0006 0D46     		mov	r5, r1
 5363 0008 9046     		mov	r8, r2
 5364 000a 1E46     		mov	r6, r3
 5365 000c 0990     		str	r0, [sp, #36]
 5366 000e 09A8     		add	r0, sp, #36
 5367 0010 FFF7FEFF 		bl	get_ldnumber
 5368 0014 0028     		cmp	r0, #0
 5369 0016 C0F2D780 		blt	.L1331
ARM GAS  /var/folders/lg/77ksxqjx0n7gwph6nqpzcmcw0000gn/T//ccz0FbIE.s 			page 94


 5370 001a CB4B     		ldr	r3, .L1396
 5371 001c 53F82030 		ldr	r3, [r3, r0, lsl #2]
 5372 0020 0BB1     		cbz	r3, .L1278
 5373 0022 0022     		movs	r2, #0
 5374 0024 1A70     		strb	r2, [r3]
 5375              	.L1278:
 5376 0026 C4B2     		uxtb	r4, r0
 5377 0028 2046     		mov	r0, r4
 5378 002a FFF7FEFF 		bl	disk_initialize
 5379 002e C307     		lsls	r3, r0, #31
 5380 0030 00F1C680 		bmi	.L1332
 5381 0034 4707     		lsls	r7, r0, #29
 5382 0036 19D4     		bmi	.L1333
 5383 0038 0AAA     		add	r2, sp, #40
 5384 003a 0321     		movs	r1, #3
 5385 003c 2046     		mov	r0, r4
 5386 003e FFF7FEFF 		bl	disk_ioctl
 5387 0042 28B9     		cbnz	r0, .L1279
 5388 0044 0A9A     		ldr	r2, [sp, #40]
 5389 0046 531E     		subs	r3, r2, #1
 5390 0048 B3F5004F 		cmp	r3, #32768
 5391 004c C0F0B480 		bcc	.L1386
 5392              	.L1279:
 5393 0050 0123     		movs	r3, #1
 5394 0052 0A93     		str	r3, [sp, #40]
 5395              	.L1280:
 5396 0054 B8F1000F 		cmp	r8, #0
 5397 0058 11D0     		beq	.L1281
 5398 005a A8F50072 		sub	r2, r8, #512
 5399 005e BB4B     		ldr	r3, .L1396+4
 5400 0060 9A42     		cmp	r2, r3
 5401 0062 07D9     		bls	.L1282
 5402              	.L1283:
 5403 0064 1320     		movs	r0, #19
 5404 0066 0DB0     		add	sp, sp, #52
 5405              		@ sp needed
 5406 0068 BDE8F08F 		pop	{r4, r5, r6, r7, r8, r9, r10, fp, pc}
 5407              	.L1333:
 5408 006c 0A20     		movs	r0, #10
 5409              	.L1377:
 5410 006e 0DB0     		add	sp, sp, #52
 5411              		@ sp needed
 5412 0070 BDE8F08F 		pop	{r4, r5, r6, r7, r8, r9, r10, fp, pc}
 5413              	.L1282:
 5414 0074 08F1FF33 		add	r3, r8, #-1
 5415 0078 13EA080F 		tst	r3, r8
 5416 007c F2D1     		bne	.L1283
 5417              	.L1281:
 5418 007e B44F     		ldr	r7, .L1396+8
 5419 0080 169B     		ldr	r3, [sp, #88]
 5420 0082 1F40     		ands	r7, r7, r3
 5421 0084 002F     		cmp	r7, #0
 5422 0086 00F09380 		beq	.L1286
 5423 008a 0BAA     		add	r2, sp, #44
 5424 008c 0121     		movs	r1, #1
 5425 008e 2046     		mov	r0, r4
 5426 0090 FFF7FEFF 		bl	disk_ioctl
ARM GAS  /var/folders/lg/77ksxqjx0n7gwph6nqpzcmcw0000gn/T//ccz0FbIE.s 			page 95


 5427 0094 8246     		mov	r10, r0
 5428 0096 0028     		cmp	r0, #0
 5429 0098 40F07181 		bne	.L1334
 5430 009c 15F00803 		ands	r3, r5, #8
 5431 00a0 0B99     		ldr	r1, [sp, #44]
 5432 00a2 0493     		str	r3, [sp, #16]
 5433 00a4 40F06D81 		bne	.L1285
 5434 00a8 3E29     		cmp	r1, #62
 5435 00aa 40F28180 		bls	.L1286
 5436 00ae 3F39     		subs	r1, r1, #63
 5437 00b0 4FF03F09 		mov	r9, #63
 5438              	.L1330:
 5439 00b4 7F29     		cmp	r1, #127
 5440 00b6 0B91     		str	r1, [sp, #44]
 5441 00b8 7AD9     		bls	.L1286
 5442 00ba B8F5813F 		cmp	r8, #66048
 5443 00be D1D2     		bcs	.L1283
 5444 00c0 15F00203 		ands	r3, r5, #2
 5445 00c4 4FEA5822 		lsr	r2, r8, #9
 5446 00c8 0693     		str	r3, [sp, #24]
 5447 00ca 00F09181 		beq	.L1287
 5448 00ce 05F00703 		and	r3, r5, #7
 5449 00d2 022B     		cmp	r3, #2
 5450 00d4 00F05E81 		beq	.L1288
 5451 00d8 E807     		lsls	r0, r5, #31
 5452 00da 40F15B81 		bpl	.L1288
 5453              	.L1385:
 5454 00de DDF828E0 		ldr	lr, [sp, #40]
 5455              	.L1289:
 5456 00e2 002A     		cmp	r2, #0
 5457 00e4 00F08C81 		beq	.L1387
 5458 00e8 1546     		mov	r5, r2
 5459              	.L1294:
 5460 00ea 40F6F570 		movw	r0, #4085
 5461 00ee B1FBF5F3 		udiv	r3, r1, r5
 5462 00f2 8342     		cmp	r3, r0
 5463 00f4 4CD9     		bls	.L1297
 5464              	.L1390:
 5465 00f6 0233     		adds	r3, r3, #2
 5466 00f8 0220     		movs	r0, #2
 5467 00fa 5B00     		lsls	r3, r3, #1
 5468 00fc 0190     		str	r0, [sp, #4]
 5469              	.L1298:
 5470 00fe 0EF1FF30 		add	r0, lr, #-1
 5471 0102 03F2FF18 		addw	r8, r3, #511
 5472 0106 09F12103 		add	r3, r9, #33
 5473 010a CEF1000C 		rsb	ip, lr, #0
 5474 010e 0290     		str	r0, [sp, #8]
 5475 0110 09F10100 		add	r0, r9, #1
 5476 0114 03EB5823 		add	r3, r3, r8, lsr #9
 5477 0118 4FF0010B 		mov	fp, #1
 5478 011c 0590     		str	r0, [sp, #20]
 5479 011e 2020     		movs	r0, #32
 5480 0120 0390     		str	r0, [sp, #12]
 5481 0122 0298     		ldr	r0, [sp, #8]
 5482 0124 1844     		add	r0, r0, r3
 5483 0126 00EA0C00 		and	r0, r0, ip
ARM GAS  /var/folders/lg/77ksxqjx0n7gwph6nqpzcmcw0000gn/T//ccz0FbIE.s 			page 96


 5484 012a A0EB0900 		sub	r0, r0, r9
 5485 012e 2138     		subs	r0, r0, #33
 5486 0130 0290     		str	r0, [sp, #8]
 5487              	.L1329:
 5488 0132 A3EB0903 		sub	r3, r3, r9
 5489 0136 03EB0513 		add	r3, r3, r5, lsl #4
 5490 013a 8B42     		cmp	r3, r1
 5491 013c 38D8     		bhi	.L1286
 5492 013e 029B     		ldr	r3, [sp, #8]
 5493 0140 0BEB0308 		add	r8, fp, r3
 5494 0144 039B     		ldr	r3, [sp, #12]
 5495 0146 A1EB0808 		sub	r8, r1, r8
 5496 014a A8EB0308 		sub	r8, r8, r3
 5497 014e 019B     		ldr	r3, [sp, #4]
 5498 0150 032B     		cmp	r3, #3
 5499 0152 B8FBF5F8 		udiv	r8, r8, r5
 5500 0156 3BD0     		beq	.L1388
 5501 0158 019B     		ldr	r3, [sp, #4]
 5502 015a 022B     		cmp	r3, #2
 5503 015c 40F01B82 		bne	.L1301
 5504 0160 4FF6F573 		movw	r3, #65525
 5505 0164 9845     		cmp	r8, r3
 5506 0166 1BD9     		bls	.L1302
 5507 0168 002A     		cmp	r2, #0
 5508 016a 40F04581 		bne	.L1303
 5509 016e 6D00     		lsls	r5, r5, #1
 5510 0170 402D     		cmp	r5, #64
 5511 0172 40F26281 		bls	.L1389
 5512 0176 069B     		ldr	r3, [sp, #24]
 5513 0178 002B     		cmp	r3, #0
 5514 017a 40F05081 		bne	.L1327
 5515 017e 802D     		cmp	r5, #128
 5516 0180 16D8     		bhi	.L1286
 5517 0182 40F6F570 		movw	r0, #4085
 5518 0186 2A46     		mov	r2, r5
 5519 0188 B1FBF5F3 		udiv	r3, r1, r5
 5520 018c 8342     		cmp	r3, r0
 5521 018e B2D8     		bhi	.L1390
 5522              	.L1297:
 5523 0190 0120     		movs	r0, #1
 5524 0192 03EB4303 		add	r3, r3, r3, lsl #1
 5525 0196 0344     		add	r3, r3, r0
 5526 0198 0190     		str	r0, [sp, #4]
 5527 019a C340     		lsrs	r3, r3, r0
 5528 019c 0333     		adds	r3, r3, #3
 5529 019e AEE7     		b	.L1298
 5530              	.L1302:
 5531 01a0 40F6F573 		movw	r3, #4085
 5532 01a4 9845     		cmp	r8, r3
 5533 01a6 18D8     		bhi	.L1300
 5534 01a8 12B9     		cbnz	r2, .L1286
 5535 01aa 6A00     		lsls	r2, r5, #1
 5536 01ac 802A     		cmp	r2, #128
 5537 01ae 98D9     		bls	.L1289
 5538              	.L1286:
 5539 01b0 0E20     		movs	r0, #14
 5540 01b2 0DB0     		add	sp, sp, #52
ARM GAS  /var/folders/lg/77ksxqjx0n7gwph6nqpzcmcw0000gn/T//ccz0FbIE.s 			page 97


 5541              		@ sp needed
 5542 01b4 BDE8F08F 		pop	{r4, r5, r6, r7, r8, r9, r10, fp, pc}
 5543              	.L1386:
 5544 01b8 1A42     		tst	r2, r3
 5545 01ba 3FF44BAF 		beq	.L1280
 5546 01be 47E7     		b	.L1279
 5547              	.L1332:
 5548 01c0 0320     		movs	r0, #3
 5549 01c2 0DB0     		add	sp, sp, #52
 5550              		@ sp needed
 5551 01c4 BDE8F08F 		pop	{r4, r5, r6, r7, r8, r9, r10, fp, pc}
 5552              	.L1331:
 5553 01c8 0B20     		movs	r0, #11
 5554 01ca 0DB0     		add	sp, sp, #52
 5555              		@ sp needed
 5556 01cc BDE8F08F 		pop	{r4, r5, r6, r7, r8, r9, r10, fp, pc}
 5557              	.L1388:
 5558 01d0 4FF6F573 		movw	r3, #65525
 5559 01d4 9845     		cmp	r8, r3
 5560 01d6 40F2D680 		bls	.L1391
 5561              	.L1300:
 5562 01da 06F50071 		add	r1, r6, #512
 5563 01de 3246     		mov	r2, r6
 5564 01e0 0023     		movs	r3, #0
 5565 01e2 0691     		str	r1, [sp, #24]
 5566              	.L1305:
 5567 01e4 02F8013B 		strb	r3, [r2], #1
 5568 01e8 8A42     		cmp	r2, r1
 5569 01ea FBD1     		bne	.L1305
 5570 01ec 0B22     		movs	r2, #11
 5571 01ee 5949     		ldr	r1, .L1396+12
 5572 01f0 3046     		mov	r0, r6
 5573 01f2 FFF7FEFF 		bl	mem_cpy.part.0
 5574 01f6 019B     		ldr	r3, [sp, #4]
 5575 01f8 4FF0020C 		mov	ip, #2
 5576 01fc 0022     		movs	r2, #0
 5577 01fe 032B     		cmp	r3, #3
 5578 0200 0B9B     		ldr	r3, [sp, #44]
 5579 0202 CBF30720 		ubfx	r0, fp, #8, #8
 5580 0206 4FF00101 		mov	r1, #1
 5581 020a 18BF     		it	ne
 5582 020c E246     		movne	r10, ip
 5583 020e B3F5803F 		cmp	r3, #65536
 5584 0212 F272     		strb	r2, [r6, #11]
 5585 0214 86F812A0 		strb	r10, [r6, #18]
 5586 0218 7573     		strb	r5, [r6, #13]
 5587 021a 86F80EB0 		strb	fp, [r6, #14]
 5588 021e F073     		strb	r0, [r6, #15]
 5589 0220 86F80CC0 		strb	ip, [r6, #12]
 5590 0224 3174     		strb	r1, [r6, #16]
 5591 0226 7274     		strb	r2, [r6, #17]
 5592 0228 80F00981 		bcs	.L1307
 5593 022c C3F30722 		ubfx	r2, r3, #8, #8
 5594 0230 F374     		strb	r3, [r6, #19]
 5595 0232 3275     		strb	r2, [r6, #20]
 5596              	.L1308:
 5597 0234 FF23     		movs	r3, #255
ARM GAS  /var/folders/lg/77ksxqjx0n7gwph6nqpzcmcw0000gn/T//ccz0FbIE.s 			page 98


 5598 0236 F821     		movs	r1, #248
 5599 0238 4FF0000A 		mov	r10, #0
 5600 023c 3F22     		movs	r2, #63
 5601 023e B376     		strb	r3, [r6, #26]
 5602 0240 019B     		ldr	r3, [sp, #4]
 5603 0242 7175     		strb	r1, [r6, #21]
 5604 0244 5FFA89F1 		uxtb	r1, r9
 5605 0248 032B     		cmp	r3, #3
 5606 024a 3276     		strb	r2, [r6, #24]
 5607 024c 0791     		str	r1, [sp, #28]
 5608 024e 86F819A0 		strb	r10, [r6, #25]
 5609 0252 86F81BA0 		strb	r10, [r6, #27]
 5610 0256 86F81DA0 		strb	r10, [r6, #29]
 5611 025a 86F81EA0 		strb	r10, [r6, #30]
 5612 025e 86F81FA0 		strb	r10, [r6, #31]
 5613 0262 3177     		strb	r1, [r6, #28]
 5614 0264 00F0F780 		beq	.L1392
 5615 0268 FFF7FEFF 		bl	get_fattime
 5616 026c 0299     		ldr	r1, [sp, #8]
 5617 026e 2923     		movs	r3, #41
 5618 0270 4FEA102C 		lsr	ip, r0, #8
 5619 0274 C1F30722 		ubfx	r2, r1, #8, #8
 5620 0278 4FF0800E 		mov	lr, #128
 5621 027c 86F82700 		strb	r0, [r6, #39]
 5622 0280 F275     		strb	r2, [r6, #23]
 5623 0282 020C     		lsrs	r2, r0, #16
 5624 0284 000E     		lsrs	r0, r0, #24
 5625 0286 B175     		strb	r1, [r6, #22]
 5626 0288 86F82920 		strb	r2, [r6, #41]
 5627 028c 1322     		movs	r2, #19
 5628 028e 3249     		ldr	r1, .L1396+16
 5629 0290 86F82A00 		strb	r0, [r6, #42]
 5630 0294 06F12B00 		add	r0, r6, #43
 5631 0298 86F82630 		strb	r3, [r6, #38]
 5632 029c 86F828C0 		strb	ip, [r6, #40]
 5633 02a0 86F824E0 		strb	lr, [r6, #36]
 5634 02a4 FFF7FEFF 		bl	mem_cpy.part.0
 5635 02a8 5522     		movs	r2, #85
 5636 02aa AA21     		movs	r1, #170
 5637 02ac 0123     		movs	r3, #1
 5638 02ae 86F8FE21 		strb	r2, [r6, #510]
 5639 02b2 2046     		mov	r0, r4
 5640 02b4 86F8FF11 		strb	r1, [r6, #511]
 5641 02b8 4A46     		mov	r2, r9
 5642 02ba 3146     		mov	r1, r6
 5643 02bc FFF7FEFF 		bl	disk_write
 5644 02c0 0028     		cmp	r0, #0
 5645 02c2 5CD1     		bne	.L1334
 5646              	.L1312:
 5647 02c4 3744     		add	r7, r7, r6
 5648 02c6 3346     		mov	r3, r6
 5649 02c8 0022     		movs	r2, #0
 5650              	.L1314:
 5651 02ca 03F8012B 		strb	r2, [r3], #1
 5652 02ce BB42     		cmp	r3, r7
 5653 02d0 FBD1     		bne	.L1314
 5654 02d2 019B     		ldr	r3, [sp, #4]
ARM GAS  /var/folders/lg/77ksxqjx0n7gwph6nqpzcmcw0000gn/T//ccz0FbIE.s 			page 99


 5655 02d4 032B     		cmp	r3, #3
 5656 02d6 00F0C281 		beq	.L1393
 5657 02da 019B     		ldr	r3, [sp, #4]
 5658 02dc F821     		movs	r1, #248
 5659 02de 012B     		cmp	r3, #1
 5660 02e0 4FF0FF03 		mov	r3, #255
 5661 02e4 3170     		strb	r1, [r6]
 5662 02e6 14BF     		ite	ne
 5663 02e8 1A46     		movne	r2, r3
 5664 02ea 0022     		moveq	r2, #0
 5665 02ec 7370     		strb	r3, [r6, #1]
 5666 02ee F270     		strb	r2, [r6, #3]
 5667 02f0 B370     		strb	r3, [r6, #2]
 5668              	.L1316:
 5669 02f2 169B     		ldr	r3, [sp, #88]
 5670 02f4 4FF00008 		mov	r8, #0
 5671 02f8 DDF808B0 		ldr	fp, [sp, #8]
 5672 02fc CDF82090 		str	r9, [sp, #32]
 5673 0300 5F0A     		lsrs	r7, r3, #9
 5674 0302 B146     		mov	r9, r6
 5675 0304 0295     		str	r5, [sp, #8]
 5676 0306 059E     		ldr	r6, [sp, #20]
 5677 0308 069D     		ldr	r5, [sp, #24]
 5678              	.L1319:
 5679 030a BB45     		cmp	fp, r7
 5680 030c DA46     		mov	r10, fp
 5681 030e 3246     		mov	r2, r6
 5682 0310 4946     		mov	r1, r9
 5683 0312 28BF     		it	cs
 5684 0314 BA46     		movcs	r10, r7
 5685 0316 2046     		mov	r0, r4
 5686 0318 5346     		mov	r3, r10
 5687 031a FFF7FEFF 		bl	disk_write
 5688 031e 70BB     		cbnz	r0, .L1334
 5689 0320 4B46     		mov	r3, r9
 5690              	.L1318:
 5691 0322 03F8018B 		strb	r8, [r3], #1
 5692 0326 AB42     		cmp	r3, r5
 5693 0328 FBD1     		bne	.L1318
 5694 032a BBEB0A0B 		subs	fp, fp, r10
 5695 032e 5644     		add	r6, r6, r10
 5696 0330 EBD1     		bne	.L1319
 5697 0332 029D     		ldr	r5, [sp, #8]
 5698 0334 B246     		mov	r10, r6
 5699 0336 039B     		ldr	r3, [sp, #12]
 5700 0338 4E46     		mov	r6, r9
 5701 033a 019A     		ldr	r2, [sp, #4]
 5702 033c DDF82090 		ldr	r9, [sp, #32]
 5703 0340 032A     		cmp	r2, #3
 5704 0342 18BF     		it	ne
 5705 0344 1D46     		movne	r5, r3
 5706 0346 0DE0     		b	.L1323
 5707              	.L1397:
 5708              		.align	2
 5709              	.L1396:
 5710 0348 00000000 		.word	.LANCHOR1
 5711 034c 00FEFF00 		.word	16776704
ARM GAS  /var/folders/lg/77ksxqjx0n7gwph6nqpzcmcw0000gn/T//ccz0FbIE.s 			page 100


 5712 0350 00FEFFFF 		.word	-512
 5713 0354 00000000 		.word	.LC2
 5714 0358 20000000 		.word	.LC4
 5715              	.L1395:
 5716 035c B5EB0805 		subs	r5, r5, r8
 5717 0360 00F02181 		beq	.L1394
 5718              	.L1323:
 5719 0364 BD42     		cmp	r5, r7
 5720 0366 A846     		mov	r8, r5
 5721 0368 5246     		mov	r2, r10
 5722 036a 3146     		mov	r1, r6
 5723 036c 28BF     		it	cs
 5724 036e B846     		movcs	r8, r7
 5725 0370 2046     		mov	r0, r4
 5726 0372 4346     		mov	r3, r8
 5727 0374 C244     		add	r10, r10, r8
 5728 0376 FFF7FEFF 		bl	disk_write
 5729 037a 0028     		cmp	r0, #0
 5730 037c EED0     		beq	.L1395
 5731              	.L1334:
 5732 037e 0120     		movs	r0, #1
 5733 0380 75E6     		b	.L1377
 5734              	.L1285:
 5735 0382 8146     		mov	r9, r0
 5736 0384 96E6     		b	.L1330
 5737              	.L1391:
 5738 0386 002A     		cmp	r2, #0
 5739 0388 7FF412AF 		bne	.L1286
 5740 038c 012D     		cmp	r5, #1
 5741 038e 7FF60FAF 		bls	.L1286
 5742 0392 6A08     		lsrs	r2, r5, #1
 5743              	.L1288:
 5744 0394 002A     		cmp	r2, #0
 5745 0396 42D0     		beq	.L1327
 5746 0398 1046     		mov	r0, r2
 5747              	.L1290:
 5748 039a BB4B     		ldr	r3, .L1398
 5749 039c DFF8F8C2 		ldr	ip, .L1398+16
 5750 03a0 B1FBF2FE 		udiv	lr, r1, r2
 5751 03a4 4FEA8E05 		lsl	r5, lr, #2
 5752 03a8 7344     		add	r3, r3, lr
 5753 03aa 05F20725 		addw	r5, r5, #519
 5754 03ae 6345     		cmp	r3, ip
 5755 03b0 4FEA5525 		lsr	r5, r5, #9
 5756 03b4 0295     		str	r5, [sp, #8]
 5757 03b6 3FF6FBAE 		bhi	.L1286
 5758 03ba 0323     		movs	r3, #3
 5759 03bc 09F12008 		add	r8, r9, #32
 5760 03c0 DDF828E0 		ldr	lr, [sp, #40]
 5761 03c4 1546     		mov	r5, r2
 5762 03c6 0193     		str	r3, [sp, #4]
 5763 03c8 0246     		mov	r2, r0
 5764 03ca 029B     		ldr	r3, [sp, #8]
 5765 03cc 0EF1FF3C 		add	ip, lr, #-1
 5766 03d0 CEF1000B 		rsb	fp, lr, #0
 5767 03d4 0020     		movs	r0, #0
 5768 03d6 4344     		add	r3, r3, r8
ARM GAS  /var/folders/lg/77ksxqjx0n7gwph6nqpzcmcw0000gn/T//ccz0FbIE.s 			page 101


 5769 03d8 0390     		str	r0, [sp, #12]
 5770 03da 9C44     		add	ip, ip, r3
 5771 03dc 0CEA0B0B 		and	fp, ip, fp
 5772 03e0 ABEB030B 		sub	fp, fp, r3
 5773 03e4 08EB0B00 		add	r0, r8, fp
 5774 03e8 0BF1200B 		add	fp, fp, #32
 5775 03ec 0590     		str	r0, [sp, #20]
 5776 03ee A0E6     		b	.L1329
 5777              	.L1287:
 5778 03f0 EB07     		lsls	r3, r5, #31
 5779 03f2 7FF537AE 		bpl	.L1283
 5780 03f6 72E6     		b	.L1385
 5781              	.L1303:
 5782 03f8 069B     		ldr	r3, [sp, #24]
 5783 03fa 002B     		cmp	r3, #0
 5784 03fc CAD1     		bne	.L1288
 5785 03fe D7E6     		b	.L1286
 5786              	.L1387:
 5787 0400 0125     		movs	r5, #1
 5788 0402 4FEA113C 		lsr	ip, r1, #12
 5789 0406 A148     		ldr	r0, .L1398+4
 5790 0408 2B46     		mov	r3, r5
 5791 040a 05E0     		b	.L1295
 5792              	.L1296:
 5793 040c 30F8023B 		ldrh	r3, [r0], #2
 5794 0410 6D00     		lsls	r5, r5, #1
 5795 0412 002B     		cmp	r3, #0
 5796 0414 3FF469AE 		beq	.L1294
 5797              	.L1295:
 5798 0418 6345     		cmp	r3, ip
 5799 041a F7D9     		bls	.L1296
 5800 041c 65E6     		b	.L1294
 5801              	.L1327:
 5802 041e 0122     		movs	r2, #1
 5803 0420 4D0C     		lsrs	r5, r1, #17
 5804 0422 9B4B     		ldr	r3, .L1398+8
 5805 0424 1046     		mov	r0, r2
 5806 0426 04E0     		b	.L1291
 5807              	.L1292:
 5808 0428 33F8020B 		ldrh	r0, [r3], #2
 5809 042c 5200     		lsls	r2, r2, #1
 5810 042e 0028     		cmp	r0, #0
 5811 0430 B3D0     		beq	.L1290
 5812              	.L1291:
 5813 0432 A842     		cmp	r0, r5
 5814 0434 F8D9     		bls	.L1292
 5815 0436 0020     		movs	r0, #0
 5816 0438 AFE7     		b	.L1290
 5817              	.L1389:
 5818 043a 2A46     		mov	r2, r5
 5819 043c 51E6     		b	.L1289
 5820              	.L1307:
 5821 043e 190A     		lsrs	r1, r3, #8
 5822 0440 86F82030 		strb	r3, [r6, #32]
 5823 0444 1A0C     		lsrs	r2, r3, #16
 5824 0446 1B0E     		lsrs	r3, r3, #24
 5825 0448 86F82110 		strb	r1, [r6, #33]
ARM GAS  /var/folders/lg/77ksxqjx0n7gwph6nqpzcmcw0000gn/T//ccz0FbIE.s 			page 102


 5826 044c 86F82220 		strb	r2, [r6, #34]
 5827 0450 86F82330 		strb	r3, [r6, #35]
 5828 0454 EEE6     		b	.L1308
 5829              	.L1392:
 5830 0456 FFF7FEFF 		bl	get_fattime
 5831 045a 0246     		mov	r2, r0
 5832 045c 029B     		ldr	r3, [sp, #8]
 5833 045e 4FF0010B 		mov	fp, #1
 5834 0462 4FEA122E 		lsr	lr, r2, #8
 5835 0466 86F84320 		strb	r2, [r6, #67]
 5836 046a 4FEA124C 		lsr	ip, r2, #16
 5837 046e 86F82430 		strb	r3, [r6, #36]
 5838 0472 120E     		lsrs	r2, r2, #24
 5839 0474 86F82DA0 		strb	r10, [r6, #45]
 5840 0478 190A     		lsrs	r1, r3, #8
 5841 047a 86F82EA0 		strb	r10, [r6, #46]
 5842 047e 180C     		lsrs	r0, r3, #16
 5843 0480 86F82FA0 		strb	r10, [r6, #47]
 5844 0484 86F831A0 		strb	r10, [r6, #49]
 5845 0488 86F833A0 		strb	r10, [r6, #51]
 5846 048c 4FF0290A 		mov	r10, #41
 5847 0490 86F844E0 		strb	lr, [r6, #68]
 5848 0494 4FF0060E 		mov	lr, #6
 5849 0498 86F845C0 		strb	ip, [r6, #69]
 5850 049c 4FF0800C 		mov	ip, #128
 5851 04a0 86F84620 		strb	r2, [r6, #70]
 5852 04a4 1A0E     		lsrs	r2, r3, #24
 5853 04a6 4FF00203 		mov	r3, #2
 5854 04aa 86F82510 		strb	r1, [r6, #37]
 5855 04ae 86F82600 		strb	r0, [r6, #38]
 5856 04b2 06F14700 		add	r0, r6, #71
 5857 04b6 7749     		ldr	r1, .L1398+12
 5858 04b8 86F82720 		strb	r2, [r6, #39]
 5859 04bc 1322     		movs	r2, #19
 5860 04be 86F82C30 		strb	r3, [r6, #44]
 5861 04c2 86F832E0 		strb	lr, [r6, #50]
 5862 04c6 86F840C0 		strb	ip, [r6, #64]
 5863 04ca 86F842A0 		strb	r10, [r6, #66]
 5864 04ce 86F830B0 		strb	fp, [r6, #48]
 5865 04d2 FFF7FEFF 		bl	mem_cpy.part.0
 5866 04d6 5522     		movs	r2, #85
 5867 04d8 AA21     		movs	r1, #170
 5868 04da 5B46     		mov	r3, fp
 5869 04dc 86F8FE21 		strb	r2, [r6, #510]
 5870 04e0 2046     		mov	r0, r4
 5871 04e2 86F8FF11 		strb	r1, [r6, #511]
 5872 04e6 4A46     		mov	r2, r9
 5873 04e8 3146     		mov	r1, r6
 5874 04ea FFF7FEFF 		bl	disk_write
 5875 04ee 8246     		mov	r10, r0
 5876 04f0 0028     		cmp	r0, #0
 5877 04f2 7FF444AF 		bne	.L1334
 5878 04f6 5B46     		mov	r3, fp
 5879 04f8 09F10602 		add	r2, r9, #6
 5880 04fc 3146     		mov	r1, r6
 5881 04fe 2046     		mov	r0, r4
 5882 0500 FFF7FEFF 		bl	disk_write
ARM GAS  /var/folders/lg/77ksxqjx0n7gwph6nqpzcmcw0000gn/T//ccz0FbIE.s 			page 103


 5883 0504 3346     		mov	r3, r6
 5884 0506 069A     		ldr	r2, [sp, #24]
 5885              	.L1313:
 5886 0508 03F801AB 		strb	r10, [r3], #1
 5887 050c 9342     		cmp	r3, r2
 5888 050e FBD1     		bne	.L1313
 5889 0510 08F1FF38 		add	r8, r8, #-1
 5890 0514 4FF0410C 		mov	ip, #65
 5891 0518 4FF0720E 		mov	lr, #114
 5892 051c 5222     		movs	r2, #82
 5893 051e 4FEA1820 		lsr	r0, r8, #8
 5894 0522 86F8E881 		strb	r8, [r6, #488]
 5895 0526 4FEA1841 		lsr	r1, r8, #16
 5896 052a 6123     		movs	r3, #97
 5897 052c 4FEA1868 		lsr	r8, r8, #24
 5898 0530 86F8EDA1 		strb	r10, [r6, #493]
 5899 0534 86F8EEA1 		strb	r10, [r6, #494]
 5900 0538 86F8EFA1 		strb	r10, [r6, #495]
 5901 053c 4FF0550A 		mov	r10, #85
 5902 0540 86F8E901 		strb	r0, [r6, #489]
 5903 0544 0220     		movs	r0, #2
 5904 0546 86F8EB81 		strb	r8, [r6, #491]
 5905 054a 4FF0AA08 		mov	r8, #170
 5906 054e 86F8EA11 		strb	r1, [r6, #490]
 5907 0552 3146     		mov	r1, r6
 5908 0554 3270     		strb	r2, [r6]
 5909 0556 7270     		strb	r2, [r6, #1]
 5910 0558 09F10702 		add	r2, r9, #7
 5911 055c B370     		strb	r3, [r6, #2]
 5912 055e 86F8E731 		strb	r3, [r6, #487]
 5913 0562 0123     		movs	r3, #1
 5914 0564 86F8EC01 		strb	r0, [r6, #492]
 5915 0568 2046     		mov	r0, r4
 5916 056a 86F803C0 		strb	ip, [r6, #3]
 5917 056e 86F8E6C1 		strb	ip, [r6, #486]
 5918 0572 86F8E4E1 		strb	lr, [r6, #484]
 5919 0576 86F8E5E1 		strb	lr, [r6, #485]
 5920 057a 86F8FEA1 		strb	r10, [r6, #510]
 5921 057e 86F8FF81 		strb	r8, [r6, #511]
 5922 0582 FFF7FEFF 		bl	disk_write
 5923 0586 0123     		movs	r3, #1
 5924 0588 3146     		mov	r1, r6
 5925 058a 2046     		mov	r0, r4
 5926 058c 09EB0302 		add	r2, r9, r3
 5927 0590 FFF7FEFF 		bl	disk_write
 5928 0594 96E6     		b	.L1312
 5929              	.L1301:
 5930 0596 40F6F573 		movw	r3, #4085
 5931 059a 9845     		cmp	r8, r3
 5932 059c 3FF608AE 		bhi	.L1286
 5933 05a0 0123     		movs	r3, #1
 5934 05a2 0193     		str	r3, [sp, #4]
 5935 05a4 19E6     		b	.L1300
 5936              	.L1394:
 5937 05a6 019A     		ldr	r2, [sp, #4]
 5938 05a8 032A     		cmp	r2, #3
 5939 05aa 6AD0     		beq	.L1341
ARM GAS  /var/folders/lg/77ksxqjx0n7gwph6nqpzcmcw0000gn/T//ccz0FbIE.s 			page 104


 5940 05ac 0B9B     		ldr	r3, [sp, #44]
 5941 05ae B3F5803F 		cmp	r3, #65536
 5942 05b2 64D2     		bcs	.L1342
 5943 05b4 022A     		cmp	r2, #2
 5944 05b6 0CBF     		ite	eq
 5945 05b8 0421     		moveq	r1, #4
 5946 05ba 0121     		movne	r1, #1
 5947              	.L1324:
 5948 05bc 049B     		ldr	r3, [sp, #16]
 5949 05be 002B     		cmp	r3, #0
 5950 05c0 44D1     		bne	.L1326
 5951 05c2 049A     		ldr	r2, [sp, #16]
 5952 05c4 3346     		mov	r3, r6
 5953 05c6 0698     		ldr	r0, [sp, #24]
 5954              	.L1325:
 5955 05c8 03F8012B 		strb	r2, [r3], #1
 5956 05cc 8342     		cmp	r3, r0
 5957 05ce FBD1     		bne	.L1325
 5958 05d0 0B9B     		ldr	r3, [sp, #44]
 5959 05d2 43F6C165 		movw	r5, #16065
 5960 05d6 86F8C211 		strb	r1, [r6, #450]
 5961 05da 03EB0900 		add	r0, r3, r9
 5962 05de 0799     		ldr	r1, [sp, #28]
 5963 05e0 1F0A     		lsrs	r7, r3, #8
 5964 05e2 86F8BE21 		strb	r2, [r6, #446]
 5965 05e6 86F8C121 		strb	r2, [r6, #449]
 5966 05ea 86F8C611 		strb	r1, [r6, #454]
 5967 05ee 190C     		lsrs	r1, r3, #16
 5968 05f0 86F8C721 		strb	r2, [r6, #455]
 5969 05f4 86F8C821 		strb	r2, [r6, #456]
 5970 05f8 86F8C921 		strb	r2, [r6, #457]
 5971 05fc 5522     		movs	r2, #85
 5972 05fe 86F8CA31 		strb	r3, [r6, #458]
 5973 0602 1B0E     		lsrs	r3, r3, #24
 5974 0604 86F8CC11 		strb	r1, [r6, #460]
 5975 0608 AA21     		movs	r1, #170
 5976 060a 86F8CD31 		strb	r3, [r6, #461]
 5977 060e 0123     		movs	r3, #1
 5978 0610 86F8FE21 		strb	r2, [r6, #510]
 5979 0614 FE22     		movs	r2, #254
 5980 0616 86F8FF11 		strb	r1, [r6, #511]
 5981 061a 3146     		mov	r1, r6
 5982 061c 86F8C321 		strb	r2, [r6, #451]
 5983 0620 0022     		movs	r2, #0
 5984 0622 86F8CB71 		strb	r7, [r6, #459]
 5985 0626 86F8BF31 		strb	r3, [r6, #447]
 5986 062a 86F8C031 		strb	r3, [r6, #448]
 5987 062e B0FBF5F0 		udiv	r0, r0, r5
 5988 0632 8508     		lsrs	r5, r0, #2
 5989 0634 86F8C501 		strb	r0, [r6, #453]
 5990 0638 2046     		mov	r0, r4
 5991 063a 45F03F05 		orr	r5, r5, #63
 5992 063e 86F8C451 		strb	r5, [r6, #452]
 5993 0642 FFF7FEFF 		bl	disk_write
 5994 0646 0028     		cmp	r0, #0
 5995 0648 7FF499AE 		bne	.L1334
 5996              	.L1326:
ARM GAS  /var/folders/lg/77ksxqjx0n7gwph6nqpzcmcw0000gn/T//ccz0FbIE.s 			page 105


 5997 064c 0022     		movs	r2, #0
 5998 064e 2046     		mov	r0, r4
 5999 0650 1146     		mov	r1, r2
 6000 0652 FFF7FEFF 		bl	disk_ioctl
 6001 0656 0038     		subs	r0, r0, #0
 6002 0658 18BF     		it	ne
 6003 065a 0120     		movne	r0, #1
 6004 065c 07E5     		b	.L1377
 6005              	.L1393:
 6006 065e FF23     		movs	r3, #255
 6007 0660 F821     		movs	r1, #248
 6008 0662 0F22     		movs	r2, #15
 6009 0664 3170     		strb	r1, [r6]
 6010 0666 7370     		strb	r3, [r6, #1]
 6011 0668 B370     		strb	r3, [r6, #2]
 6012 066a F370     		strb	r3, [r6, #3]
 6013 066c 3371     		strb	r3, [r6, #4]
 6014 066e 7371     		strb	r3, [r6, #5]
 6015 0670 B371     		strb	r3, [r6, #6]
 6016 0672 F371     		strb	r3, [r6, #7]
 6017 0674 3372     		strb	r3, [r6, #8]
 6018 0676 7372     		strb	r3, [r6, #9]
 6019 0678 B372     		strb	r3, [r6, #10]
 6020 067a F272     		strb	r2, [r6, #11]
 6021 067c 39E6     		b	.L1316
 6022              	.L1342:
 6023 067e 0621     		movs	r1, #6
 6024 0680 9CE7     		b	.L1324
 6025              	.L1341:
 6026 0682 0C21     		movs	r1, #12
 6027 0684 9AE7     		b	.L1324
 6028              	.L1399:
 6029 0686 00BF     		.align	2
 6030              	.L1398:
 6031 0688 0A00FFFF 		.word	-65526
 6032 068c 02000000 		.word	.LANCHOR7+2
 6033 0690 02000000 		.word	.LANCHOR6+2
 6034 0694 0C000000 		.word	.LC3
 6035 0698 FFFFFE0F 		.word	268369919
 6037              		.section	.text.f_gets,"ax",%progbits
 6038              		.align	1
 6039              		.p2align 2,,3
 6040              		.global	f_gets
 6041              		.syntax unified
 6042              		.thumb
 6043              		.thumb_func
 6044              		.fpu fpv5-d16
 6046              	f_gets:
 6047              		@ args = 0, pretend = 0, frame = 8
 6048              		@ frame_needed = 0, uses_anonymous_args = 0
 6049 0000 2DE9F041 		push	{r4, r5, r6, r7, r8, lr}
 6050 0004 0024     		movs	r4, #0
 6051 0006 82B0     		sub	sp, sp, #8
 6052 0008 8046     		mov	r8, r0
 6053 000a 4F1E     		subs	r7, r1, #1
 6054 000c 1646     		mov	r6, r2
 6055 000e 0546     		mov	r5, r0
ARM GAS  /var/folders/lg/77ksxqjx0n7gwph6nqpzcmcw0000gn/T//ccz0FbIE.s 			page 106


 6056              	.L1405:
 6057 0010 BC42     		cmp	r4, r7
 6058 0012 01AB     		add	r3, sp, #4
 6059 0014 4FF00102 		mov	r2, #1
 6060 0018 6946     		mov	r1, sp
 6061 001a 3046     		mov	r0, r6
 6062 001c 14DA     		bge	.L1408
 6063 001e FFF7FEFF 		bl	f_read
 6064 0022 019B     		ldr	r3, [sp, #4]
 6065 0024 012B     		cmp	r3, #1
 6066 0026 0FD1     		bne	.L1408
 6067 0028 9DF80030 		ldrb	r3, [sp]	@ zero_extendqisi2
 6068 002c 0D2B     		cmp	r3, #13
 6069 002e EFD0     		beq	.L1405
 6070 0030 0A2B     		cmp	r3, #10
 6071 0032 04F10104 		add	r4, r4, #1
 6072 0036 05F8013B 		strb	r3, [r5], #1
 6073 003a E9D1     		bne	.L1405
 6074 003c 0023     		movs	r3, #0
 6075 003e 4046     		mov	r0, r8
 6076 0040 2B70     		strb	r3, [r5]
 6077 0042 02B0     		add	sp, sp, #8
 6078              		@ sp needed
 6079 0044 BDE8F081 		pop	{r4, r5, r6, r7, r8, pc}
 6080              	.L1408:
 6081 0048 0023     		movs	r3, #0
 6082 004a 002C     		cmp	r4, #0
 6083 004c 08BF     		it	eq
 6084 004e 9846     		moveq	r8, r3
 6085 0050 2B70     		strb	r3, [r5]
 6086 0052 4046     		mov	r0, r8
 6087 0054 02B0     		add	sp, sp, #8
 6088              		@ sp needed
 6089 0056 BDE8F081 		pop	{r4, r5, r6, r7, r8, pc}
 6091 005a 00BF     		.section	.text.f_putc,"ax",%progbits
 6092              		.align	1
 6093              		.p2align 2,,3
 6094              		.global	f_putc
 6095              		.syntax unified
 6096              		.thumb
 6097              		.thumb_func
 6098              		.fpu fpv5-d16
 6100              	f_putc:
 6101              		@ args = 0, pretend = 0, frame = 80
 6102              		@ frame_needed = 0, uses_anonymous_args = 0
 6103 0000 00B5     		push	{lr}
 6104 0002 95B0     		sub	sp, sp, #84
 6105 0004 0A46     		mov	r2, r1
 6106 0006 0023     		movs	r3, #0
 6107 0008 0146     		mov	r1, r0
 6108 000a 01A8     		add	r0, sp, #4
 6109 000c 0393     		str	r3, [sp, #12]
 6110 000e CDE90123 		strd	r2, r3, [sp, #4]
 6111 0012 FFF7FEFF 		bl	putc_bfd
 6112 0016 01A8     		add	r0, sp, #4
 6113 0018 FFF7FEFF 		bl	putc_flush
 6114 001c 15B0     		add	sp, sp, #84
ARM GAS  /var/folders/lg/77ksxqjx0n7gwph6nqpzcmcw0000gn/T//ccz0FbIE.s 			page 107


 6115              		@ sp needed
 6116 001e 5DF804FB 		ldr	pc, [sp], #4
 6118 0022 00BF     		.section	.text.f_puts,"ax",%progbits
 6119              		.align	1
 6120              		.p2align 2,,3
 6121              		.global	f_puts
 6122              		.syntax unified
 6123              		.thumb
 6124              		.thumb_func
 6125              		.fpu fpv5-d16
 6127              	f_puts:
 6128              		@ args = 0, pretend = 0, frame = 80
 6129              		@ frame_needed = 0, uses_anonymous_args = 0
 6130 0000 30B5     		push	{r4, r5, lr}
 6131 0002 0023     		movs	r3, #0
 6132 0004 95B0     		sub	sp, sp, #84
 6133 0006 CDE90113 		strd	r1, r3, [sp, #4]
 6134 000a 0178     		ldrb	r1, [r0]	@ zero_extendqisi2
 6135 000c 0393     		str	r3, [sp, #12]
 6136 000e 69B1     		cbz	r1, .L1423
 6137 0010 0446     		mov	r4, r0
 6138 0012 01AD     		add	r5, sp, #4
 6139              	.L1417:
 6140 0014 2846     		mov	r0, r5
 6141 0016 FFF7FEFF 		bl	putc_bfd
 6142 001a 14F8011F 		ldrb	r1, [r4, #1]!	@ zero_extendqisi2
 6143 001e 0029     		cmp	r1, #0
 6144 0020 F8D1     		bne	.L1417
 6145 0022 2846     		mov	r0, r5
 6146 0024 FFF7FEFF 		bl	putc_flush
 6147 0028 15B0     		add	sp, sp, #84
 6148              		@ sp needed
 6149 002a 30BD     		pop	{r4, r5, pc}
 6150              	.L1423:
 6151 002c 01AD     		add	r5, sp, #4
 6152 002e 2846     		mov	r0, r5
 6153 0030 FFF7FEFF 		bl	putc_flush
 6154 0034 15B0     		add	sp, sp, #84
 6155              		@ sp needed
 6156 0036 30BD     		pop	{r4, r5, pc}
 6158              		.section	.text.f_printf,"ax",%progbits
 6159              		.align	1
 6160              		.p2align 2,,3
 6161              		.global	f_printf
 6162              		.syntax unified
 6163              		.thumb
 6164              		.thumb_func
 6165              		.fpu fpv5-d16
 6167              	f_printf:
 6168              		@ args = 4, pretend = 12, frame = 120
 6169              		@ frame_needed = 0, uses_anonymous_args = 1
 6170 0000 0EB4     		push	{r1, r2, r3}
 6171 0002 2DE9F04F 		push	{r4, r5, r6, r7, r8, r9, r10, fp, lr}
 6172 0006 9EB0     		sub	sp, sp, #120
 6173 0008 0024     		movs	r4, #0
 6174 000a 27AA     		add	r2, sp, #156
 6175 000c 0DF12C08 		add	r8, sp, #44
ARM GAS  /var/folders/lg/77ksxqjx0n7gwph6nqpzcmcw0000gn/T//ccz0FbIE.s 			page 108


 6176 0010 0B90     		str	r0, [sp, #44]
 6177 0012 52F8047B 		ldr	r7, [r2], #4
 6178 0016 0C94     		str	r4, [sp, #48]
 6179 0018 3B46     		mov	r3, r7
 6180 001a 0292     		str	r2, [sp, #8]
 6181 001c 0D94     		str	r4, [sp, #52]
 6182 001e 13F8011B 		ldrb	r1, [r3], #1	@ zero_extendqisi2
 6183 0022 49B9     		cbnz	r1, .L1426
 6184 0024 5AE0     		b	.L1425
 6185              	.L1522:
 6186 0026 4046     		mov	r0, r8
 6187 0028 1F46     		mov	r7, r3
 6188 002a FFF7FEFF 		bl	putc_bfd
 6189              	.L1428:
 6190 002e 3B46     		mov	r3, r7
 6191 0030 13F8011B 		ldrb	r1, [r3], #1	@ zero_extendqisi2
 6192 0034 0029     		cmp	r1, #0
 6193 0036 51D0     		beq	.L1425
 6194              	.L1426:
 6195 0038 2529     		cmp	r1, #37
 6196 003a F4D1     		bne	.L1522
 6197 003c 7978     		ldrb	r1, [r7, #1]	@ zero_extendqisi2
 6198 003e 3029     		cmp	r1, #48
 6199 0040 00F01081 		beq	.L1523
 6200 0044 2D29     		cmp	r1, #45
 6201 0046 00F01281 		beq	.L1524
 6202 004a 0237     		adds	r7, r7, #2
 6203 004c 4FF0000A 		mov	r10, #0
 6204              	.L1430:
 6205 0050 A1F13003 		sub	r3, r1, #48
 6206 0054 0024     		movs	r4, #0
 6207 0056 092B     		cmp	r3, #9
 6208 0058 0AD8     		bhi	.L1433
 6209              	.L1432:
 6210 005a 04EB8404 		add	r4, r4, r4, lsl #2
 6211 005e 01EB4404 		add	r4, r1, r4, lsl #1
 6212 0062 17F8011B 		ldrb	r1, [r7], #1	@ zero_extendqisi2
 6213 0066 A1F13003 		sub	r3, r1, #48
 6214 006a 303C     		subs	r4, r4, #48
 6215 006c 092B     		cmp	r3, #9
 6216 006e F4D9     		bls	.L1432
 6217              	.L1433:
 6218 0070 01F0DF03 		and	r3, r1, #223
 6219 0074 4C2B     		cmp	r3, #76
 6220 0076 03D1     		bne	.L1434
 6221 0078 4AF0040A 		orr	r10, r10, #4
 6222 007c 17F8011B 		ldrb	r1, [r7], #1	@ zero_extendqisi2
 6223              	.L1434:
 6224 0080 61B3     		cbz	r1, .L1425
 6225 0082 A1F16103 		sub	r3, r1, #97
 6226 0086 192B     		cmp	r3, #25
 6227 0088 00F2EA80 		bhi	.L1472
 6228 008c A1F12000 		sub	r0, r1, #32
 6229 0090 C0B2     		uxtb	r0, r0
 6230              	.L1435:
 6231 0092 A0F14203 		sub	r3, r0, #66
 6232 0096 162B     		cmp	r3, #22
ARM GAS  /var/folders/lg/77ksxqjx0n7gwph6nqpzcmcw0000gn/T//ccz0FbIE.s 			page 109


 6233 0098 18D8     		bhi	.L1436
 6234 009a DFE813F0 		tbh	[pc, r3, lsl #1]
 6235              	.L1438:
 6236 009e F500     		.2byte	(.L1473-.L1438)/2
 6237 00a0 3B00     		.2byte	(.L1442-.L1438)/2
 6238 00a2 2700     		.2byte	(.L1439-.L1438)/2
 6239 00a4 1700     		.2byte	(.L1436-.L1438)/2
 6240 00a6 1700     		.2byte	(.L1436-.L1438)/2
 6241 00a8 1700     		.2byte	(.L1436-.L1438)/2
 6242 00aa 1700     		.2byte	(.L1436-.L1438)/2
 6243 00ac 1700     		.2byte	(.L1436-.L1438)/2
 6244 00ae 1700     		.2byte	(.L1436-.L1438)/2
 6245 00b0 1700     		.2byte	(.L1436-.L1438)/2
 6246 00b2 1700     		.2byte	(.L1436-.L1438)/2
 6247 00b4 1700     		.2byte	(.L1436-.L1438)/2
 6248 00b6 1700     		.2byte	(.L1436-.L1438)/2
 6249 00b8 6D00     		.2byte	(.L1441-.L1438)/2
 6250 00ba 1700     		.2byte	(.L1436-.L1438)/2
 6251 00bc 1700     		.2byte	(.L1436-.L1438)/2
 6252 00be 1700     		.2byte	(.L1436-.L1438)/2
 6253 00c0 4300     		.2byte	(.L1440-.L1438)/2
 6254 00c2 1700     		.2byte	(.L1436-.L1438)/2
 6255 00c4 2700     		.2byte	(.L1439-.L1438)/2
 6256 00c6 1700     		.2byte	(.L1436-.L1438)/2
 6257 00c8 1700     		.2byte	(.L1436-.L1438)/2
 6258 00ca F700     		.2byte	(.L1437-.L1438)/2
 6259              		.p2align 1
 6260              	.L1436:
 6261 00cc 4046     		mov	r0, r8
 6262 00ce FFF7FEFF 		bl	putc_bfd
 6263 00d2 3B46     		mov	r3, r7
 6264 00d4 13F8011B 		ldrb	r1, [r3], #1	@ zero_extendqisi2
 6265 00d8 0029     		cmp	r1, #0
 6266 00da ADD1     		bne	.L1426
 6267              	.L1425:
 6268 00dc 4046     		mov	r0, r8
 6269 00de FFF7FEFF 		bl	putc_flush
 6270 00e2 1EB0     		add	sp, sp, #120
 6271              		@ sp needed
 6272 00e4 BDE8F04F 		pop	{r4, r5, r6, r7, r8, r9, r10, fp, lr}
 6273 00e8 03B0     		add	sp, sp, #12
 6274 00ea 7047     		bx	lr
 6275              	.L1439:
 6276 00ec 1AF0040F 		tst	r10, #4
 6277 00f0 40F0CE80 		bne	.L1525
 6278 00f4 4428     		cmp	r0, #68
 6279 00f6 40F0BF80 		bne	.L1475
 6280 00fa 029B     		ldr	r3, [sp, #8]
 6281 00fc 4428     		cmp	r0, #68
 6282 00fe 4FF00A02 		mov	r2, #10
 6283 0102 03F10406 		add	r6, r3, #4
 6284 0106 1D68     		ldr	r5, [r3]
 6285 0108 0296     		str	r6, [sp, #8]
 6286 010a 2B46     		mov	r3, r5
 6287 010c 40D0     		beq	.L1526
 6288              	.L1476:
 6289 010e 0020     		movs	r0, #0
ARM GAS  /var/folders/lg/77ksxqjx0n7gwph6nqpzcmcw0000gn/T//ccz0FbIE.s 			page 110


 6290 0110 0190     		str	r0, [sp, #4]
 6291 0112 44E0     		b	.L1455
 6292              	.L1442:
 6293 0114 029B     		ldr	r3, [sp, #8]
 6294 0116 4046     		mov	r0, r8
 6295 0118 1A1D     		adds	r2, r3, #4
 6296 011a 1978     		ldrb	r1, [r3]	@ zero_extendqisi2
 6297 011c 0292     		str	r2, [sp, #8]
 6298 011e FFF7FEFF 		bl	putc_bfd
 6299 0122 84E7     		b	.L1428
 6300              	.L1440:
 6301 0124 029B     		ldr	r3, [sp, #8]
 6302 0126 1E68     		ldr	r6, [r3]
 6303 0128 0433     		adds	r3, r3, #4
 6304 012a 3178     		ldrb	r1, [r6]	@ zero_extendqisi2
 6305 012c 0293     		str	r3, [sp, #8]
 6306 012e 0029     		cmp	r1, #0
 6307 0130 00F0D180 		beq	.L1444
 6308 0134 3346     		mov	r3, r6
 6309 0136 C6F10100 		rsb	r0, r6, #1
 6310              	.L1445:
 6311 013a 00EB0309 		add	r9, r0, r3
 6312 013e 13F8012F 		ldrb	r2, [r3, #1]!	@ zero_extendqisi2
 6313 0142 002A     		cmp	r2, #0
 6314 0144 F9D1     		bne	.L1445
 6315 0146 1AF0020F 		tst	r10, #2
 6316 014a 00F0A380 		beq	.L1527
 6317 014e 09F10105 		add	r5, r9, #1
 6318              	.L1450:
 6319 0152 4046     		mov	r0, r8
 6320 0154 FFF7FEFF 		bl	putc_bfd
 6321 0158 16F8011F 		ldrb	r1, [r6, #1]!	@ zero_extendqisi2
 6322 015c 0029     		cmp	r1, #0
 6323 015e F8D1     		bne	.L1450
 6324              	.L1449:
 6325 0160 A145     		cmp	r9, r4
 6326 0162 BFF464AF 		bcs	.L1428
 6327              	.L1451:
 6328 0166 2021     		movs	r1, #32
 6329 0168 4046     		mov	r0, r8
 6330 016a FFF7FEFF 		bl	putc_bfd
 6331 016e AC42     		cmp	r4, r5
 6332 0170 05F10105 		add	r5, r5, #1
 6333 0174 F7D8     		bhi	.L1451
 6334 0176 5AE7     		b	.L1428
 6335              	.L1441:
 6336 0178 0822     		movs	r2, #8
 6337              	.L1521:
 6338 017a 1AF0040F 		tst	r10, #4
 6339 017e 7CD0     		beq	.L1454
 6340              	.L1466:
 6341 0180 029B     		ldr	r3, [sp, #8]
 6342 0182 4428     		cmp	r0, #68
 6343 0184 03F10406 		add	r6, r3, #4
 6344 0188 1D68     		ldr	r5, [r3]
 6345 018a 0296     		str	r6, [sp, #8]
 6346 018c 2B46     		mov	r3, r5
ARM GAS  /var/folders/lg/77ksxqjx0n7gwph6nqpzcmcw0000gn/T//ccz0FbIE.s 			page 111


 6347 018e BED1     		bne	.L1476
 6348              	.L1526:
 6349 0190 002D     		cmp	r5, #0
 6350 0192 BCDA     		bge	.L1476
 6351 0194 0820     		movs	r0, #8
 6352 0196 6B42     		rsbs	r3, r5, #0
 6353 0198 4AF0080A 		orr	r10, r10, #8
 6354 019c 0190     		str	r0, [sp, #4]
 6355              	.L1455:
 6356 019e 7829     		cmp	r1, #120
 6357 01a0 0DF10C09 		add	r9, sp, #12
 6358 01a4 4FF00000 		mov	r0, #0
 6359 01a8 0CBF     		ite	eq
 6360 01aa 4FF0270E 		moveq	lr, #39
 6361 01ae 4FF0070E 		movne	lr, #7
 6362 01b2 4946     		mov	r1, r9
 6363 01b4 00E0     		b	.L1457
 6364              	.L1477:
 6365 01b6 3046     		mov	r0, r6
 6366              	.L1457:
 6367 01b8 9C46     		mov	ip, r3
 6368 01ba 461C     		adds	r6, r0, #1
 6369 01bc B3FBF2F5 		udiv	r5, r3, r2
 6370 01c0 02FB153B 		mls	fp, r2, r5, r3
 6371 01c4 2B46     		mov	r3, r5
 6372 01c6 5FFA8BF5 		uxtb	r5, fp
 6373 01ca BBF1090F 		cmp	fp, #9
 6374 01ce 0EEB050B 		add	fp, lr, r5
 6375 01d2 88BF     		it	hi
 6376 01d4 5FFA8BF5 		uxtbhi	r5, fp
 6377 01d8 9445     		cmp	ip, r2
 6378 01da 05F13005 		add	r5, r5, #48
 6379 01de EDB2     		uxtb	r5, r5
 6380 01e0 01F8015B 		strb	r5, [r1], #1
 6381 01e4 01D3     		bcc	.L1482
 6382 01e6 1F2E     		cmp	r6, #31
 6383 01e8 E5D9     		bls	.L1477
 6384              	.L1482:
 6385 01ea 019B     		ldr	r3, [sp, #4]
 6386 01ec 3BB1     		cbz	r3, .L1459
 6387 01ee 1EAB     		add	r3, sp, #120
 6388 01f0 4FF02D02 		mov	r2, #45
 6389 01f4 2D25     		movs	r5, #45
 6390 01f6 3344     		add	r3, r3, r6
 6391 01f8 861C     		adds	r6, r0, #2
 6392 01fa 03F86C2C 		strb	r2, [r3, #-108]
 6393              	.L1459:
 6394 01fe 1AF0010F 		tst	r10, #1
 6395 0202 14BF     		ite	ne
 6396 0204 4FF0300B 		movne	fp, #48
 6397 0208 4FF0200B 		moveq	fp, #32
 6398 020c 1AF0020F 		tst	r10, #2
 6399 0210 5FD1     		bne	.L1479
 6400 0212 A642     		cmp	r6, r4
 6401 0214 06F1010A 		add	r10, r6, #1
 6402 0218 09D2     		bcs	.L1461
 6403              	.L1462:
ARM GAS  /var/folders/lg/77ksxqjx0n7gwph6nqpzcmcw0000gn/T//ccz0FbIE.s 			page 112


 6404 021a 5946     		mov	r1, fp
 6405 021c 4046     		mov	r0, r8
 6406 021e FFF7FEFF 		bl	putc_bfd
 6407 0222 5445     		cmp	r4, r10
 6408 0224 0AF1010A 		add	r10, r10, #1
 6409 0228 F7D1     		bne	.L1462
 6410 022a 04F1010A 		add	r10, r4, #1
 6411              	.L1461:
 6412 022e 013E     		subs	r6, r6, #1
 6413 0230 2946     		mov	r1, r5
 6414 0232 4E44     		add	r6, r6, r9
 6415 0234 01E0     		b	.L1464
 6416              	.L1528:
 6417 0236 16F8011D 		ldrb	r1, [r6, #-1]!	@ zero_extendqisi2
 6418              	.L1464:
 6419 023a 4046     		mov	r0, r8
 6420 023c FFF7FEFF 		bl	putc_bfd
 6421 0240 4E45     		cmp	r6, r9
 6422 0242 F8D1     		bne	.L1528
 6423 0244 A245     		cmp	r10, r4
 6424 0246 0AF10105 		add	r5, r10, #1
 6425 024a BFF4F0AE 		bcs	.L1428
 6426              	.L1465:
 6427 024e 5946     		mov	r1, fp
 6428 0250 4046     		mov	r0, r8
 6429 0252 FFF7FEFF 		bl	putc_bfd
 6430 0256 AC42     		cmp	r4, r5
 6431 0258 05F10105 		add	r5, r5, #1
 6432 025c F7D1     		bne	.L1465
 6433 025e E6E6     		b	.L1428
 6434              	.L1472:
 6435 0260 0846     		mov	r0, r1
 6436 0262 16E7     		b	.L1435
 6437              	.L1523:
 6438 0264 B978     		ldrb	r1, [r7, #2]	@ zero_extendqisi2
 6439 0266 4FF0010A 		mov	r10, #1
 6440 026a 0337     		adds	r7, r7, #3
 6441 026c F0E6     		b	.L1430
 6442              	.L1524:
 6443 026e B978     		ldrb	r1, [r7, #2]	@ zero_extendqisi2
 6444 0270 4FF0020A 		mov	r10, #2
 6445 0274 0337     		adds	r7, r7, #3
 6446 0276 EBE6     		b	.L1430
 6447              	.L1475:
 6448 0278 0A22     		movs	r2, #10
 6449              	.L1454:
 6450 027a 029B     		ldr	r3, [sp, #8]
 6451 027c 0020     		movs	r0, #0
 6452 027e 0190     		str	r0, [sp, #4]
 6453 0280 181D     		adds	r0, r3, #4
 6454 0282 1B68     		ldr	r3, [r3]
 6455 0284 0290     		str	r0, [sp, #8]
 6456 0286 8AE7     		b	.L1455
 6457              	.L1473:
 6458 0288 0222     		movs	r2, #2
 6459 028a 76E7     		b	.L1521
 6460              	.L1437:
ARM GAS  /var/folders/lg/77ksxqjx0n7gwph6nqpzcmcw0000gn/T//ccz0FbIE.s 			page 113


 6461 028c 1022     		movs	r2, #16
 6462 028e 74E7     		b	.L1521
 6463              	.L1525:
 6464 0290 0A22     		movs	r2, #10
 6465 0292 75E7     		b	.L1466
 6466              	.L1527:
 6467 0294 A145     		cmp	r9, r4
 6468 0296 09F1010A 		add	r10, r9, #1
 6469 029a 09F10205 		add	r5, r9, #2
 6470 029e 20D2     		bcs	.L1529
 6471              	.L1470:
 6472 02a0 5546     		mov	r5, r10
 6473              	.L1448:
 6474 02a2 2021     		movs	r1, #32
 6475 02a4 4046     		mov	r0, r8
 6476 02a6 FFF7FEFF 		bl	putc_bfd
 6477 02aa AC42     		cmp	r4, r5
 6478 02ac 05F10105 		add	r5, r5, #1
 6479 02b0 F7D8     		bhi	.L1448
 6480 02b2 A4EB0A09 		sub	r9, r4, r10
 6481 02b6 0AF10103 		add	r3, r10, #1
 6482 02ba 3178     		ldrb	r1, [r6]	@ zero_extendqisi2
 6483 02bc 5445     		cmp	r4, r10
 6484 02be 38BF     		it	cc
 6485 02c0 4FF00009 		movcc	r9, #0
 6486 02c4 9944     		add	r9, r9, r3
 6487 02c6 09F10105 		add	r5, r9, #1
 6488 02ca 0029     		cmp	r1, #0
 6489 02cc 7FF441AF 		bne	.L1450
 6490 02d0 46E7     		b	.L1449
 6491              	.L1479:
 6492 02d2 B246     		mov	r10, r6
 6493 02d4 ABE7     		b	.L1461
 6494              	.L1444:
 6495 02d6 1AF0020F 		tst	r10, #2
 6496 02da 04D0     		beq	.L1469
 6497 02dc 8946     		mov	r9, r1
 6498 02de 0125     		movs	r5, #1
 6499 02e0 3EE7     		b	.L1449
 6500              	.L1529:
 6501 02e2 D146     		mov	r9, r10
 6502 02e4 35E7     		b	.L1450
 6503              	.L1469:
 6504 02e6 002C     		cmp	r4, #0
 6505 02e8 3FF4A1AE 		beq	.L1428
 6506 02ec 4FF0010A 		mov	r10, #1
 6507 02f0 D6E7     		b	.L1470
 6509 02f2 00BF     		.section	.bss.FatFs,"aw",%nobits
 6510              		.align	2
 6511              		.set	.LANCHOR1,. + 0
 6514              	FatFs:
 6515 0000 00000000 		.space	4
 6516              		.section	.bss.Files,"aw",%nobits
 6517              		.align	2
 6518              		.set	.LANCHOR0,. + 0
 6521              	Files:
 6522 0000 00000000 		.space	32
ARM GAS  /var/folders/lg/77ksxqjx0n7gwph6nqpzcmcw0000gn/T//ccz0FbIE.s 			page 114


 6522      00000000 
 6522      00000000 
 6522      00000000 
 6522      00000000 
 6523              		.section	.bss.Fsid,"aw",%nobits
 6524              		.align	1
 6525              		.set	.LANCHOR2,. + 0
 6528              	Fsid:
 6529 0000 0000     		.space	2
 6530              		.section	.bss.LfnBuf,"aw",%nobits
 6531              		.align	2
 6532              		.set	.LANCHOR3,. + 0
 6535              	LfnBuf:
 6536 0000 00000000 		.space	512
 6536      00000000 
 6536      00000000 
 6536      00000000 
 6536      00000000 
 6537              		.section	.rodata.ExCvt,"a"
 6538              		.align	2
 6539              		.set	.LANCHOR5,. + 0
 6542              	ExCvt:
 6543 0000 43554541 		.ascii	"CUEAAAACEEEIIIAAE\222\222OOOUUYOUO\234O\236\237AIOU"
 6543      41414143 
 6543      45454549 
 6543      49494141 
 6543      4592924F 
 6544 0024 A5A5A6A7 		.ascii	"\245\245\246\247\250\251\252\253\254\255\256\257\260"
 6544      A8A9AAAB 
 6544      ACADAEAF 
 6544      B0
 6545 0031 B1B2B3B4 		.ascii	"\261\262\263\264AAA\270\271\272\273\274\275\276\277"
 6545      414141B8 
 6545      B9BABBBC 
 6545      BDBEBF
 6546 0040 C0C1C2C3 		.ascii	"\300\301\302\303\304\305AA\310\311\312\313\314\315\316"
 6546      C4C54141 
 6546      C8C9CACB 
 6546      CCCDCE
 6547 004f CFD1D145 		.ascii	"\317\321\321EEEIIII\331\332\333\334\335I\337O\341OO"
 6547      45454949 
 6547      4949D9DA 
 6547      DBDCDD49 
 6547      DF4FE14F 
 6548 0064 4F4FE6E8 		.ascii	"OO\346\350\350UUUYY\356\357\360\361\362\363\364\365"
 6548      E8555555 
 6548      5959EEEF 
 6548      F0F1F2F3 
 6548      F4F5
 6549 0076 F6F7F8F9 		.ascii	"\366\367\370\371\372\373\374\375\376\377"
 6549      FAFBFCFD 
 6549      FEFF
 6550              		.section	.rodata.LfnOfs,"a"
 6551              		.align	2
 6552              		.set	.LANCHOR4,. + 0
 6555              	LfnOfs:
 6556 0000 01030507 		.ascii	"\001\003\005\007\011\016\020\022\024\026\030\034\036"
ARM GAS  /var/folders/lg/77ksxqjx0n7gwph6nqpzcmcw0000gn/T//ccz0FbIE.s 			page 115


 6556      090E1012 
 6556      1416181C 
 6556      1E
 6557              		.section	.rodata.cst.19080,"a"
 6558              		.align	2
 6559              		.set	.LANCHOR7,. + 0
 6562              	cst.19080:
 6563 0000 0100     		.short	1
 6564 0002 0400     		.short	4
 6565 0004 1000     		.short	16
 6566 0006 4000     		.short	64
 6567 0008 0001     		.short	256
 6568 000a 0002     		.short	512
 6569 000c 0000     		.short	0
 6570              		.section	.rodata.cst32.19081,"a"
 6571              		.align	2
 6572              		.set	.LANCHOR6,. + 0
 6575              	cst32.19081:
 6576 0000 0100     		.short	1
 6577 0002 0200     		.short	2
 6578 0004 0400     		.short	4
 6579 0006 0800     		.short	8
 6580 0008 1000     		.short	16
 6581 000a 2000     		.short	32
 6582 000c 0000     		.short	0
 6583              		.ident	"GCC: (GNU Arm Embedded Toolchain 9-2020-q2-update) 9.3.1 20200408 (release)"
ARM GAS  /var/folders/lg/77ksxqjx0n7gwph6nqpzcmcw0000gn/T//ccz0FbIE.s 			page 116

