ARM GAS  /var/folders/lg/77ksxqjx0n7gwph6nqpzcmcw0000gn/T//ccn5JkAm.s 			page 1


   1              		.cpu cortex-m7
   2              		.eabi_attribute 28, 1
   3              		.eabi_attribute 20, 1
   4              		.eabi_attribute 21, 1
   5              		.eabi_attribute 23, 3
   6              		.eabi_attribute 24, 1
   7              		.eabi_attribute 25, 1
   8              		.eabi_attribute 26, 1
   9              		.eabi_attribute 30, 2
  10              		.eabi_attribute 34, 1
  11              		.eabi_attribute 18, 4
  12              		.file	"MultiEffect.cpp"
  13              		.text
  14              		.section	.text._ZN7daisysp3SvfD2Ev,"axG",%progbits,_ZN7daisysp3SvfD5Ev,comdat
  15              		.align	1
  16              		.p2align 2,,3
  17              		.weak	_ZN7daisysp3SvfD2Ev
  18              		.arch armv7e-m
  19              		.syntax unified
  20              		.thumb
  21              		.thumb_func
  22              		.fpu fpv5-d16
  24              	_ZN7daisysp3SvfD2Ev:
  25              		@ args = 0, pretend = 0, frame = 0
  26              		@ frame_needed = 0, uses_anonymous_args = 0
  27              		@ link register save eliminated.
  28 0000 7047     		bx	lr
  30              		.weak	_ZN7daisysp3SvfD1Ev
  31              		.thumb_set _ZN7daisysp3SvfD1Ev,_ZN7daisysp3SvfD2Ev
  32 0002 00BF     		.section	.text._ZN7daisysp8ReverbScD2Ev,"axG",%progbits,_ZN7daisysp8ReverbScD5Ev,comdat
  33              		.align	1
  34              		.p2align 2,,3
  35              		.weak	_ZN7daisysp8ReverbScD2Ev
  36              		.syntax unified
  37              		.thumb
  38              		.thumb_func
  39              		.fpu fpv5-d16
  41              	_ZN7daisysp8ReverbScD2Ev:
  42              		@ args = 0, pretend = 0, frame = 0
  43              		@ frame_needed = 0, uses_anonymous_args = 0
  44              		@ link register save eliminated.
  45 0000 7047     		bx	lr
  47              		.weak	_ZN7daisysp8ReverbScD1Ev
  48              		.thumb_set _ZN7daisysp8ReverbScD1Ev,_ZN7daisysp8ReverbScD2Ev
  49 0002 00BF     		.section	.text._ZN7daisysp6BiquadD2Ev,"axG",%progbits,_ZN7daisysp6BiquadD5Ev,comdat
  50              		.align	1
  51              		.p2align 2,,3
  52              		.weak	_ZN7daisysp6BiquadD2Ev
  53              		.syntax unified
  54              		.thumb
  55              		.thumb_func
  56              		.fpu fpv5-d16
  58              	_ZN7daisysp6BiquadD2Ev:
  59              		@ args = 0, pretend = 0, frame = 0
  60              		@ frame_needed = 0, uses_anonymous_args = 0
  61              		@ link register save eliminated.
  62 0000 7047     		bx	lr
ARM GAS  /var/folders/lg/77ksxqjx0n7gwph6nqpzcmcw0000gn/T//ccn5JkAm.s 			page 2


  64              		.weak	_ZN7daisysp6BiquadD1Ev
  65              		.thumb_set _ZN7daisysp6BiquadD1Ev,_ZN7daisysp6BiquadD2Ev
  66 0002 00BF     		.section	.text._ZN7daisysp4ToneD2Ev,"axG",%progbits,_ZN7daisysp4ToneD5Ev,comdat
  67              		.align	1
  68              		.p2align 2,,3
  69              		.weak	_ZN7daisysp4ToneD2Ev
  70              		.syntax unified
  71              		.thumb
  72              		.thumb_func
  73              		.fpu fpv5-d16
  75              	_ZN7daisysp4ToneD2Ev:
  76              		@ args = 0, pretend = 0, frame = 0
  77              		@ frame_needed = 0, uses_anonymous_args = 0
  78              		@ link register save eliminated.
  79 0000 7047     		bx	lr
  81              		.weak	_ZN7daisysp4ToneD1Ev
  82              		.thumb_set _ZN7daisysp4ToneD1Ev,_ZN7daisysp4ToneD2Ev
  83 0002 00BF     		.section	.text._ZN7daisysp7DcBlockD2Ev,"axG",%progbits,_ZN7daisysp7DcBlockD5Ev,comdat
  84              		.align	1
  85              		.p2align 2,,3
  86              		.weak	_ZN7daisysp7DcBlockD2Ev
  87              		.syntax unified
  88              		.thumb
  89              		.thumb_func
  90              		.fpu fpv5-d16
  92              	_ZN7daisysp7DcBlockD2Ev:
  93              		@ args = 0, pretend = 0, frame = 0
  94              		@ frame_needed = 0, uses_anonymous_args = 0
  95              		@ link register save eliminated.
  96 0000 7047     		bx	lr
  98              		.weak	_ZN7daisysp7DcBlockD1Ev
  99              		.thumb_set _ZN7daisysp7DcBlockD1Ev,_ZN7daisysp7DcBlockD2Ev
 100 0002 00BF     		.section	.text._ZN5daisy9ParameterD2Ev,"axG",%progbits,_ZN5daisy9ParameterD5Ev,comdat
 101              		.align	1
 102              		.p2align 2,,3
 103              		.weak	_ZN5daisy9ParameterD2Ev
 104              		.syntax unified
 105              		.thumb
 106              		.thumb_func
 107              		.fpu fpv5-d16
 109              	_ZN5daisy9ParameterD2Ev:
 110              		@ args = 0, pretend = 0, frame = 0
 111              		@ frame_needed = 0, uses_anonymous_args = 0
 112              		@ link register save eliminated.
 113 0000 7047     		bx	lr
 115              		.weak	_ZN5daisy9ParameterD1Ev
 116              		.thumb_set _ZN5daisy9ParameterD1Ev,_ZN5daisy9ParameterD2Ev
 117 0002 00BF     		.section	.text._ZN5daisy11DaisyVersioD2Ev,"axG",%progbits,_ZN5daisy11DaisyVersioD5Ev,comdat
 118              		.align	1
 119              		.p2align 2,,3
 120              		.weak	_ZN5daisy11DaisyVersioD2Ev
 121              		.syntax unified
 122              		.thumb
 123              		.thumb_func
 124              		.fpu fpv5-d16
 126              	_ZN5daisy11DaisyVersioD2Ev:
 127              		@ args = 0, pretend = 0, frame = 0
ARM GAS  /var/folders/lg/77ksxqjx0n7gwph6nqpzcmcw0000gn/T//ccn5JkAm.s 			page 3


 128              		@ frame_needed = 0, uses_anonymous_args = 0
 129              		@ link register save eliminated.
 130 0000 7047     		bx	lr
 132              		.weak	_ZN5daisy11DaisyVersioD1Ev
 133              		.thumb_set _ZN5daisy11DaisyVersioD1Ev,_ZN5daisy11DaisyVersioD2Ev
 134 0002 00BF     		.section	.text._ZN6stmlib3SvfD2Ev,"axG",%progbits,_ZN6stmlib3SvfD5Ev,comdat
 135              		.align	1
 136              		.p2align 2,,3
 137              		.weak	_ZN6stmlib3SvfD2Ev
 138              		.syntax unified
 139              		.thumb
 140              		.thumb_func
 141              		.fpu fpv5-d16
 143              	_ZN6stmlib3SvfD2Ev:
 144              		@ args = 0, pretend = 0, frame = 0
 145              		@ frame_needed = 0, uses_anonymous_args = 0
 146              		@ link register save eliminated.
 147 0000 7047     		bx	lr
 149              		.weak	_ZN6stmlib3SvfD1Ev
 150              		.thumb_set _ZN6stmlib3SvfD1Ev,_ZN6stmlib3SvfD2Ev
 151 0002 00BF     		.section	.text._ZN11LedsControlD2Ev,"axG",%progbits,_ZN11LedsControlD5Ev,comdat
 152              		.align	1
 153              		.p2align 2,,3
 154              		.weak	_ZN11LedsControlD2Ev
 155              		.syntax unified
 156              		.thumb
 157              		.thumb_func
 158              		.fpu fpv5-d16
 160              	_ZN11LedsControlD2Ev:
 161              		@ args = 0, pretend = 0, frame = 0
 162              		@ frame_needed = 0, uses_anonymous_args = 0
 163              		@ link register save eliminated.
 164 0000 7047     		bx	lr
 166              		.weak	_ZN11LedsControlD1Ev
 167              		.thumb_set _ZN11LedsControlD1Ev,_ZN11LedsControlD2Ev
 168 0002 00BF     		.section	.text._ZN7OscBankD2Ev,"axG",%progbits,_ZN7OscBankD5Ev,comdat
 169              		.align	1
 170              		.p2align 2,,3
 171              		.weak	_ZN7OscBankD2Ev
 172              		.syntax unified
 173              		.thumb
 174              		.thumb_func
 175              		.fpu fpv5-d16
 177              	_ZN7OscBankD2Ev:
 178              		@ args = 0, pretend = 0, frame = 0
 179              		@ frame_needed = 0, uses_anonymous_args = 0
 180              		@ link register save eliminated.
 181 0000 7047     		bx	lr
 183              		.weak	_ZN7OscBankD1Ev
 184              		.thumb_set _ZN7OscBankD1Ev,_ZN7OscBankD2Ev
 185 0002 00BF     		.section	.text._ZN8AveragerD2Ev,"axG",%progbits,_ZN8AveragerD5Ev,comdat
 186              		.align	1
 187              		.p2align 2,,3
 188              		.weak	_ZN8AveragerD2Ev
 189              		.syntax unified
 190              		.thumb
 191              		.thumb_func
ARM GAS  /var/folders/lg/77ksxqjx0n7gwph6nqpzcmcw0000gn/T//ccn5JkAm.s 			page 4


 192              		.fpu fpv5-d16
 194              	_ZN8AveragerD2Ev:
 195              		@ args = 0, pretend = 0, frame = 0
 196              		@ frame_needed = 0, uses_anonymous_args = 0
 197              		@ link register save eliminated.
 198 0000 7047     		bx	lr
 200              		.weak	_ZN8AveragerD1Ev
 201              		.thumb_set _ZN8AveragerD1Ev,_ZN8AveragerD2Ev
 202 0002 00BF     		.section	.text.__tcf_0,"ax",%progbits
 203              		.align	1
 204              		.p2align 2,,3
 205              		.syntax unified
 206              		.thumb
 207              		.thumb_func
 208              		.fpu fpv5-d16
 210              	__tcf_0:
 211              		@ args = 0, pretend = 0, frame = 0
 212              		@ frame_needed = 0, uses_anonymous_args = 0
 213              		@ link register save eliminated.
 214 0000 7047     		bx	lr
 216 0002 00BF     		.section	.text._ZN7daisysp9DelayLineIfLj120000EED2Ev,"axG",%progbits,_ZN7daisysp9DelayLineIfLj1200
 217              		.align	1
 218              		.p2align 2,,3
 219              		.weak	_ZN7daisysp9DelayLineIfLj120000EED2Ev
 220              		.syntax unified
 221              		.thumb
 222              		.thumb_func
 223              		.fpu fpv5-d16
 225              	_ZN7daisysp9DelayLineIfLj120000EED2Ev:
 226              		@ args = 0, pretend = 0, frame = 0
 227              		@ frame_needed = 0, uses_anonymous_args = 0
 228              		@ link register save eliminated.
 229 0000 7047     		bx	lr
 231              		.weak	_ZN7daisysp9DelayLineIfLj120000EED1Ev
 232              		.thumb_set _ZN7daisysp9DelayLineIfLj120000EED1Ev,_ZN7daisysp9DelayLineIfLj120000EED2Ev
 233 0002 00BF     		.section	.text.startup._ZNSt7__cxx1112basic_stringIcSt11char_traitsIcESaIcEEC2EPKcRKS3_.isra.0.con
 234              		.align	1
 235              		.p2align 2,,3
 236              		.syntax unified
 237              		.thumb
 238              		.thumb_func
 239              		.fpu fpv5-d16
 241              	_ZNSt7__cxx1112basic_stringIcSt11char_traitsIcESaIcEEC2EPKcRKS3_.isra.0.constprop.0:
 242              		@ args = 0, pretend = 0, frame = 0
 243              		@ frame_needed = 0, uses_anonymous_args = 0
 244              		@ link register save eliminated.
 245 0000 0022     		movs	r2, #0
 246 0002 00F10801 		add	r1, r0, #8
 247 0006 4260     		str	r2, [r0, #4]
 248 0008 0272     		strb	r2, [r0, #8]
 249 000a 0160     		str	r1, [r0]
 250 000c 7047     		bx	lr
 252 000e 00BF     		.section	.text._Z5clampfff,"ax",%progbits
 253              		.align	1
 254              		.p2align 2,,3
 255              		.global	_Z5clampfff
 256              		.syntax unified
ARM GAS  /var/folders/lg/77ksxqjx0n7gwph6nqpzcmcw0000gn/T//ccn5JkAm.s 			page 5


 257              		.thumb
 258              		.thumb_func
 259              		.fpu fpv5-d16
 261              	_Z5clampfff:
 262              		@ args = 0, pretend = 0, frame = 0
 263              		@ frame_needed = 0, uses_anonymous_args = 0
 264              		@ link register save eliminated.
 265 0000 B4EEE00A 		vcmpe.f32	s0, s1
 266 0004 F1EE10FA 		vmrs	APSR_nzcv, FPSCR
 267 0008 06D4     		bmi	.L19
 268 000a B4EEC10A 		vcmpe.f32	s0, s2
 269 000e F1EE10FA 		vmrs	APSR_nzcv, FPSCR
 270 0012 31FE000A 		vselgt.f32	s0, s2, s0
 271 0016 7047     		bx	lr
 272              	.L19:
 273 0018 B0EE600A 		vmov.f32	s0, s1
 274 001c 7047     		bx	lr
 276 001e 00BF     		.section	.text._Z3mapfffff,"ax",%progbits
 277              		.align	1
 278              		.p2align 2,,3
 279              		.global	_Z3mapfffff
 280              		.syntax unified
 281              		.thumb
 282              		.thumb_func
 283              		.fpu fpv5-d16
 285              	_Z3mapfffff:
 286              		@ args = 0, pretend = 0, frame = 0
 287              		@ frame_needed = 0, uses_anonymous_args = 0
 288              		@ link register save eliminated.
 289 0000 30EE600A 		vsub.f32	s0, s0, s1
 290 0004 32EE612A 		vsub.f32	s4, s4, s3
 291 0008 71EE600A 		vsub.f32	s1, s2, s1
 292 000c 22EE002A 		vmul.f32	s4, s4, s0
 293 0010 82EE200A 		vdiv.f32	s0, s4, s1
 294 0014 30EE210A 		vadd.f32	s0, s0, s3
 295 0018 7047     		bx	lr
 297 001a 00BF     		.section	.text._Z15leftRotatebyOnePfi,"ax",%progbits
 298              		.align	1
 299              		.p2align 2,,3
 300              		.global	_Z15leftRotatebyOnePfi
 301              		.syntax unified
 302              		.thumb
 303              		.thumb_func
 304              		.fpu fpv5-d16
 306              	_Z15leftRotatebyOnePfi:
 307              		@ args = 0, pretend = 0, frame = 0
 308              		@ frame_needed = 0, uses_anonymous_args = 0
 309              		@ link register save eliminated.
 310 0000 0129     		cmp	r1, #1
 311 0002 30B4     		push	{r4, r5}
 312 0004 0568     		ldr	r5, [r0]	@ float
 313 0006 08DD     		ble	.L24
 314 0008 00EB8104 		add	r4, r0, r1, lsl #2
 315 000c 0346     		mov	r3, r0
 316 000e 043C     		subs	r4, r4, #4
 317              	.L25:
 318 0010 5A68     		ldr	r2, [r3, #4]	@ float
ARM GAS  /var/folders/lg/77ksxqjx0n7gwph6nqpzcmcw0000gn/T//ccn5JkAm.s 			page 6


 319 0012 43F8042B 		str	r2, [r3], #4	@ float
 320 0016 A342     		cmp	r3, r4
 321 0018 FAD1     		bne	.L25
 322              	.L24:
 323 001a 00EB8100 		add	r0, r0, r1, lsl #2
 324 001e 40F8045C 		str	r5, [r0, #-4]	@ float
 325 0022 30BC     		pop	{r4, r5}
 326 0024 7047     		bx	lr
 328 0026 00BF     		.section	.text._Z16rightRotatebyOnePfi,"ax",%progbits
 329              		.align	1
 330              		.p2align 2,,3
 331              		.global	_Z16rightRotatebyOnePfi
 332              		.syntax unified
 333              		.thumb
 334              		.thumb_func
 335              		.fpu fpv5-d16
 337              	_Z16rightRotatebyOnePfi:
 338              		@ args = 0, pretend = 0, frame = 0
 339              		@ frame_needed = 0, uses_anonymous_args = 0
 340              		@ link register save eliminated.
 341 0000 6FF04043 		mvn	r3, #-1073741824
 342 0004 0129     		cmp	r1, #1
 343 0006 0B44     		add	r3, r3, r1
 344 0008 00EB8303 		add	r3, r0, r3, lsl #2
 345 000c 10B4     		push	{r4}
 346 000e 1C68     		ldr	r4, [r3]	@ float
 347 0010 04DD     		ble	.L29
 348              	.L30:
 349 0012 53F8042D 		ldr	r2, [r3, #-4]!	@ float
 350 0016 9842     		cmp	r0, r3
 351 0018 5A60     		str	r2, [r3, #4]	@ float
 352 001a FAD1     		bne	.L30
 353              	.L29:
 354 001c 0460     		str	r4, [r0]	@ float
 355 001e 5DF8044B 		ldr	r4, [sp], #4
 356 0022 7047     		bx	lr
 358              		.section	.text._Z10leftRotatePffi,"ax",%progbits
 359              		.align	1
 360              		.p2align 2,,3
 361              		.global	_Z10leftRotatePffi
 362              		.syntax unified
 363              		.thumb
 364              		.thumb_func
 365              		.fpu fpv5-d16
 367              	_Z10leftRotatePffi:
 368              		@ args = 0, pretend = 0, frame = 0
 369              		@ frame_needed = 0, uses_anonymous_args = 0
 370              		@ link register save eliminated.
 371 0000 07EE901A 		vmov	s15, r1	@ int
 372 0004 F8EEE77A 		vcvt.f32.s32	s15, s15
 373 0008 27EE800A 		vmul.f32	s0, s15, s0
 374 000c B5EEC00A 		vcmpe.f32	s0, #0
 375 0010 F1EE10FA 		vmrs	APSR_nzcv, FPSCR
 376 0014 1DDD     		ble	.L42
 377 0016 F0B4     		push	{r4, r5, r6, r7}
 378 0018 6FF04044 		mvn	r4, #-1073741824
 379 001c 0025     		movs	r5, #0
ARM GAS  /var/folders/lg/77ksxqjx0n7gwph6nqpzcmcw0000gn/T//ccn5JkAm.s 			page 7


 380 001e 0C44     		add	r4, r4, r1
 381 0020 00EB8407 		add	r7, r0, r4, lsl #2
 382 0024 3C46     		mov	r4, r7
 383              	.L36:
 384 0026 0129     		cmp	r1, #1
 385 0028 0668     		ldr	r6, [r0]	@ float
 386 002a 05DD     		ble	.L38
 387 002c 0346     		mov	r3, r0
 388              	.L35:
 389 002e 5A68     		ldr	r2, [r3, #4]	@ float
 390 0030 43F8042B 		str	r2, [r3], #4	@ float
 391 0034 9C42     		cmp	r4, r3
 392 0036 FAD1     		bne	.L35
 393              	.L38:
 394 0038 0135     		adds	r5, r5, #1
 395 003a 3E60     		str	r6, [r7]	@ float
 396 003c 07EE905A 		vmov	s15, r5	@ int
 397 0040 F8EEE77A 		vcvt.f32.s32	s15, s15
 398 0044 F4EEC07A 		vcmpe.f32	s15, s0
 399 0048 F1EE10FA 		vmrs	APSR_nzcv, FPSCR
 400 004c EBD4     		bmi	.L36
 401 004e F0BC     		pop	{r4, r5, r6, r7}
 402 0050 7047     		bx	lr
 403              	.L42:
 404 0052 7047     		bx	lr
 406              		.section	.text._Z11rightRotatePffi,"ax",%progbits
 407              		.align	1
 408              		.p2align 2,,3
 409              		.global	_Z11rightRotatePffi
 410              		.syntax unified
 411              		.thumb
 412              		.thumb_func
 413              		.fpu fpv5-d16
 415              	_Z11rightRotatePffi:
 416              		@ args = 0, pretend = 0, frame = 0
 417              		@ frame_needed = 0, uses_anonymous_args = 0
 418              		@ link register save eliminated.
 419 0000 07EE901A 		vmov	s15, r1	@ int
 420 0004 F8EEE77A 		vcvt.f32.s32	s15, s15
 421 0008 27EE800A 		vmul.f32	s0, s15, s0
 422 000c B5EEC00A 		vcmpe.f32	s0, #0
 423 0010 F1EE10FA 		vmrs	APSR_nzcv, FPSCR
 424 0014 1CDD     		ble	.L54
 425 0016 70B4     		push	{r4, r5, r6}
 426 0018 6FF04045 		mvn	r5, #-1073741824
 427 001c 0024     		movs	r4, #0
 428 001e 0D44     		add	r5, r5, r1
 429 0020 00EB8505 		add	r5, r0, r5, lsl #2
 430              	.L48:
 431 0024 0129     		cmp	r1, #1
 432 0026 2E68     		ldr	r6, [r5]	@ float
 433 0028 05DD     		ble	.L50
 434 002a 2B46     		mov	r3, r5
 435              	.L51:
 436 002c 53F8042D 		ldr	r2, [r3, #-4]!	@ float
 437 0030 9842     		cmp	r0, r3
 438 0032 5A60     		str	r2, [r3, #4]	@ float
ARM GAS  /var/folders/lg/77ksxqjx0n7gwph6nqpzcmcw0000gn/T//ccn5JkAm.s 			page 8


 439 0034 FAD1     		bne	.L51
 440              	.L50:
 441 0036 0134     		adds	r4, r4, #1
 442 0038 0660     		str	r6, [r0]	@ float
 443 003a 07EE904A 		vmov	s15, r4	@ int
 444 003e F8EEE77A 		vcvt.f32.s32	s15, s15
 445 0042 F4EEC07A 		vcmpe.f32	s15, s0
 446 0046 F1EE10FA 		vmrs	APSR_nzcv, FPSCR
 447 004a EBD4     		bmi	.L48
 448 004c 70BC     		pop	{r4, r5, r6}
 449 004e 7047     		bx	lr
 450              	.L54:
 451 0050 7047     		bx	lr
 453 0052 00BF     		.section	.text._Z11findClosestPiPbiii,"ax",%progbits
 454              		.align	1
 455              		.p2align 2,,3
 456              		.global	_Z11findClosestPiPbiii
 457              		.syntax unified
 458              		.thumb
 459              		.thumb_func
 460              		.fpu fpv5-d16
 462              	_Z11findClosestPiPbiii:
 463              		@ args = 4, pretend = 0, frame = 0
 464              		@ frame_needed = 0, uses_anonymous_args = 0
 465 0000 002A     		cmp	r2, #0
 466 0002 2DE9F04F 		push	{r4, r5, r6, r7, r8, r9, r10, fp, lr}
 467 0006 40DD     		ble	.L65
 468 0008 8046     		mov	r8, r0
 469 000a 0998     		ldr	r0, [sp, #36]
 470 000c 551E     		subs	r5, r2, #1
 471 000e 099C     		ldr	r4, [sp, #36]
 472 0010 02EB4000 		add	r0, r2, r0, lsl #1
 473 0014 A8F10409 		sub	r9, r8, #4
 474 0018 2544     		add	r5, r5, r4
 475 001a 08EB8208 		add	r8, r8, r2, lsl #2
 476 001e 0138     		subs	r0, r0, #1
 477 0020 4FF0000B 		mov	fp, #0
 478              	.L63:
 479 0024 471B     		subs	r7, r0, r5
 480 0026 1B4E     		ldr	r6, .L76
 481 0028 EC17     		asrs	r4, r5, #31
 482 002a B446     		mov	ip, r6
 483 002c 86FB076E 		smull	r6, lr, r6, r7
 484 0030 FE17     		asrs	r6, r7, #31
 485 0032 8CFB05AC 		smull	r10, ip, ip, r5
 486 0036 05F1FF3A 		add	r10, r5, #-1
 487 003a C6EB6E06 		rsb	r6, r6, lr, asr #1
 488 003e C4EB6C0C 		rsb	ip, r4, ip, asr #1
 489 0042 59F8044F 		ldr	r4, [r9, #4]!
 490 0046 06EB4606 		add	r6, r6, r6, lsl #1
 491 004a 0CEB4C0C 		add	ip, ip, ip, lsl #1
 492 004e A7EB8606 		sub	r6, r7, r6, lsl #2
 493 0052 A5EB8C0C 		sub	ip, r5, ip, lsl #2
 494 0056 8E5D     		ldrb	r6, [r1, r6]	@ zero_extendqisi2
 495 0058 16B1     		cbz	r6, .L59
 496 005a 9C42     		cmp	r4, r3
 497 005c B8BF     		it	lt
ARM GAS  /var/folders/lg/77ksxqjx0n7gwph6nqpzcmcw0000gn/T//ccn5JkAm.s 			page 9


 498 005e A346     		movlt	fp, r4
 499              	.L59:
 500 0060 11F80C60 		ldrb	r6, [r1, ip]	@ zero_extendqisi2
 501 0064 58F8044D 		ldr	r4, [r8, #-4]!
 502 0068 16B1     		cbz	r6, .L61
 503 006a 9C42     		cmp	r4, r3
 504 006c C8BF     		it	gt
 505 006e 2246     		movgt	r2, r4
 506              	.L61:
 507 0070 099C     		ldr	r4, [sp, #36]
 508 0072 AC42     		cmp	r4, r5
 509 0074 5546     		mov	r5, r10
 510 0076 D5D1     		bne	.L63
 511 0078 A3EB0B00 		sub	r0, r3, fp
 512              	.L58:
 513 007c D31A     		subs	r3, r2, r3
 514 007e 8342     		cmp	r3, r0
 515 0080 D4BF     		ite	le
 516 0082 1046     		movle	r0, r2
 517 0084 5846     		movgt	r0, fp
 518 0086 BDE8F08F 		pop	{r4, r5, r6, r7, r8, r9, r10, fp, pc}
 519              	.L65:
 520 008a 1846     		mov	r0, r3
 521 008c 4FF0000B 		mov	fp, #0
 522 0090 F4E7     		b	.L58
 523              	.L77:
 524 0092 00BF     		.align	2
 525              	.L76:
 526 0094 ABAAAA2A 		.word	715827883
 528              		.section	.text._Z10getClosestiii,"ax",%progbits
 529              		.align	1
 530              		.p2align 2,,3
 531              		.global	_Z10getClosestiii
 532              		.syntax unified
 533              		.thumb
 534              		.thumb_func
 535              		.fpu fpv5-d16
 537              	_Z10getClosestiii:
 538              		@ args = 0, pretend = 0, frame = 0
 539              		@ frame_needed = 0, uses_anonymous_args = 0
 540              		@ link register save eliminated.
 541 0000 131A     		subs	r3, r2, r0
 542 0002 8A1A     		subs	r2, r1, r2
 543 0004 9342     		cmp	r3, r2
 544 0006 A8BF     		it	ge
 545 0008 0846     		movge	r0, r1
 546 000a 7047     		bx	lr
 548              		.section	.rodata._Z19SelectSpectraOctavef.str1.4,"aMS",%progbits,1
 549              		.align	2
 550              	.LC0:
 551 0000 2D3200   		.ascii	"-2\000"
 552 0003 00       		.align	2
 553              	.LC1:
 554 0004 2D3100   		.ascii	"-1\000"
 555 0007 00       		.align	2
 556              	.LC2:
 557 0008 203000   		.ascii	" 0\000"
ARM GAS  /var/folders/lg/77ksxqjx0n7gwph6nqpzcmcw0000gn/T//ccn5JkAm.s 			page 10


 558 000b 00       		.align	2
 559              	.LC3:
 560 000c 2B3100   		.ascii	"+1\000"
 561 000f 00       		.align	2
 562              	.LC4:
 563 0010 2B3200   		.ascii	"+2\000"
 564              		.section	.text._Z19SelectSpectraOctavef,"ax",%progbits
 565              		.align	1
 566              		.p2align 2,,3
 567              		.global	_Z19SelectSpectraOctavef
 568              		.syntax unified
 569              		.thumb
 570              		.thumb_func
 571              		.fpu fpv5-d16
 573              	_Z19SelectSpectraOctavef:
 574              		@ args = 0, pretend = 0, frame = 0
 575              		@ frame_needed = 0, uses_anonymous_args = 0
 576 0000 DFED317A 		vldr.32	s15, .L105
 577 0004 B4EEE70A 		vcmpe.f32	s0, s15
 578 0008 30B5     		push	{r4, r5, lr}
 579 000a F1EE10FA 		vmrs	APSR_nzcv, FPSCR
 580 000e 83B0     		sub	sp, sp, #12
 581 0010 30D4     		bmi	.L101
 582 0012 DFED2E7A 		vldr.32	s15, .L105+4
 583 0016 B4EEE70A 		vcmpe.f32	s0, s15
 584 001a F1EE10FA 		vmrs	APSR_nzcv, FPSCR
 585 001e 1BD4     		bmi	.L102
 586 0020 DFED2B7A 		vldr.32	s15, .L105+8
 587 0024 B4EEE70A 		vcmpe.f32	s0, s15
 588 0028 F1EE10FA 		vmrs	APSR_nzcv, FPSCR
 589 002c 30D4     		bmi	.L103
 590 002e DFED297A 		vldr.32	s15, .L105+12
 591 0032 B4EEE70A 		vcmpe.f32	s0, s15
 592 0036 F1EE10FA 		vmrs	APSR_nzcv, FPSCR
 593 003a 37D4     		bmi	.L104
 594 003c 18DD     		ble	.L80
 595 003e 0223     		movs	r3, #2
 596 0040 2548     		ldr	r0, .L105+16
 597 0042 4FF08145 		mov	r5, #1082130432
 598 0046 254C     		ldr	r4, .L105+20
 599 0048 4268     		ldr	r2, [r0, #4]
 600 004a 0021     		movs	r1, #0
 601 004c 0093     		str	r3, [sp]
 602 004e 244B     		ldr	r3, .L105+24
 603 0050 2560     		str	r5, [r4]	@ float
 604 0052 FFF7FEFF 		bl	_ZNSt7__cxx1112basic_stringIcSt11char_traitsIcESaIcEE10_M_replaceEjjPKcj
 605 0056 0BE0     		b	.L80
 606              	.L102:
 607 0058 0223     		movs	r3, #2
 608 005a 1F48     		ldr	r0, .L105+16
 609 005c 4FF07C55 		mov	r5, #1056964608
 610 0060 1E4C     		ldr	r4, .L105+20
 611 0062 4268     		ldr	r2, [r0, #4]
 612 0064 0021     		movs	r1, #0
 613 0066 0093     		str	r3, [sp]
 614 0068 1E4B     		ldr	r3, .L105+28
 615 006a 2560     		str	r5, [r4]	@ float
ARM GAS  /var/folders/lg/77ksxqjx0n7gwph6nqpzcmcw0000gn/T//ccn5JkAm.s 			page 11


 616 006c FFF7FEFF 		bl	_ZNSt7__cxx1112basic_stringIcSt11char_traitsIcESaIcEE10_M_replaceEjjPKcj
 617              	.L80:
 618 0070 03B0     		add	sp, sp, #12
 619              		@ sp needed
 620 0072 30BD     		pop	{r4, r5, pc}
 621              	.L101:
 622 0074 1848     		ldr	r0, .L105+16
 623 0076 0223     		movs	r3, #2
 624 0078 4FF07A55 		mov	r5, #1048576000
 625 007c 174C     		ldr	r4, .L105+20
 626 007e 4268     		ldr	r2, [r0, #4]
 627 0080 0021     		movs	r1, #0
 628 0082 0093     		str	r3, [sp]
 629 0084 184B     		ldr	r3, .L105+32
 630 0086 2560     		str	r5, [r4]	@ float
 631 0088 FFF7FEFF 		bl	_ZNSt7__cxx1112basic_stringIcSt11char_traitsIcESaIcEE10_M_replaceEjjPKcj
 632 008c 03B0     		add	sp, sp, #12
 633              		@ sp needed
 634 008e 30BD     		pop	{r4, r5, pc}
 635              	.L103:
 636 0090 1148     		ldr	r0, .L105+16
 637 0092 0223     		movs	r3, #2
 638 0094 4FF07E55 		mov	r5, #1065353216
 639 0098 104C     		ldr	r4, .L105+20
 640 009a 4268     		ldr	r2, [r0, #4]
 641 009c 0021     		movs	r1, #0
 642 009e 0093     		str	r3, [sp]
 643 00a0 124B     		ldr	r3, .L105+36
 644 00a2 2560     		str	r5, [r4]	@ float
 645 00a4 FFF7FEFF 		bl	_ZNSt7__cxx1112basic_stringIcSt11char_traitsIcESaIcEE10_M_replaceEjjPKcj
 646 00a8 03B0     		add	sp, sp, #12
 647              		@ sp needed
 648 00aa 30BD     		pop	{r4, r5, pc}
 649              	.L104:
 650 00ac 0223     		movs	r3, #2
 651 00ae 0A48     		ldr	r0, .L105+16
 652 00b0 4FF08045 		mov	r5, #1073741824
 653 00b4 094C     		ldr	r4, .L105+20
 654 00b6 4268     		ldr	r2, [r0, #4]
 655 00b8 0021     		movs	r1, #0
 656 00ba 0093     		str	r3, [sp]
 657 00bc 0C4B     		ldr	r3, .L105+40
 658 00be 2560     		str	r5, [r4]	@ float
 659 00c0 FFF7FEFF 		bl	_ZNSt7__cxx1112basic_stringIcSt11char_traitsIcESaIcEE10_M_replaceEjjPKcj
 660 00c4 D4E7     		b	.L80
 661              	.L106:
 662 00c6 00BF     		.align	2
 663              	.L105:
 664 00c8 CDCC4C3E 		.word	1045220557
 665 00cc CDCCCC3E 		.word	1053609165
 666 00d0 9A99193F 		.word	1058642330
 667 00d4 CDCC4C3F 		.word	1061997773
 668 00d8 00000000 		.word	.LANCHOR1
 669 00dc 00000000 		.word	.LANCHOR0
 670 00e0 10000000 		.word	.LC4
 671 00e4 04000000 		.word	.LC1
 672 00e8 00000000 		.word	.LC0
ARM GAS  /var/folders/lg/77ksxqjx0n7gwph6nqpzcmcw0000gn/T//ccn5JkAm.s 			page 12


 673 00ec 08000000 		.word	.LC2
 674 00f0 0C000000 		.word	.LC3
 676              		.section	.text._Z4swapPfS_,"ax",%progbits
 677              		.align	1
 678              		.p2align 2,,3
 679              		.global	_Z4swapPfS_
 680              		.syntax unified
 681              		.thumb
 682              		.thumb_func
 683              		.fpu fpv5-d16
 685              	_Z4swapPfS_:
 686              		@ args = 0, pretend = 0, frame = 0
 687              		@ frame_needed = 0, uses_anonymous_args = 0
 688              		@ link register save eliminated.
 689 0000 D0ED007A 		vldr.32	s15, [r0]
 690 0004 0B68     		ldr	r3, [r1]	@ float
 691 0006 FDEEE77A 		vcvt.s32.f32	s15, s15
 692 000a 0360     		str	r3, [r0]	@ float
 693 000c F8EEE77A 		vcvt.f32.s32	s15, s15
 694 0010 C1ED007A 		vstr.32	s15, [r1]
 695 0014 7047     		bx	lr
 697 0016 00BF     		.section	.text._Z10bubbleSortPfS_i,"ax",%progbits
 698              		.align	1
 699              		.p2align 2,,3
 700              		.global	_Z10bubbleSortPfS_i
 701              		.syntax unified
 702              		.thumb
 703              		.thumb_func
 704              		.fpu fpv5-d16
 706              	_Z10bubbleSortPfS_i:
 707              		@ args = 0, pretend = 0, frame = 0
 708              		@ frame_needed = 0, uses_anonymous_args = 0
 709              		@ link register save eliminated.
 710 0000 F0B4     		push	{r4, r5, r6, r7}
 711 0002 571E     		subs	r7, r2, #1
 712 0004 002F     		cmp	r7, #0
 713 0006 2ADD     		ble	.L108
 714 0008 031F     		subs	r3, r0, #4
 715 000a 00F1040C 		add	ip, r0, #4
 716 000e 03EB8205 		add	r5, r3, r2, lsl #2
 717              	.L113:
 718 0012 0B46     		mov	r3, r1
 719 0014 6446     		mov	r4, ip
 720 0016 0246     		mov	r2, r0
 721              	.L112:
 722 0018 F2EC017A 		vldmia.32	r2!, {s15}
 723 001c B4EC017A 		vldmia.32	r4!, {s14}
 724 0020 F4EEC77A 		vcmpe.f32	s15, s14
 725 0024 F1EE10FA 		vmrs	APSR_nzcv, FPSCR
 726 0028 11D5     		bpl	.L110
 727 002a FDEEE77A 		vcvt.s32.f32	s15, s15
 728 002e 02ED017A 		vstr.32	s14, [r2, #-4]
 729 0032 F8EEE77A 		vcvt.f32.s32	s15, s15
 730 0036 44ED017A 		vstr.32	s15, [r4, #-4]
 731 003a D3ED007A 		vldr.32	s15, [r3]
 732 003e 5E68     		ldr	r6, [r3, #4]	@ float
 733 0040 FDEEE77A 		vcvt.s32.f32	s15, s15
ARM GAS  /var/folders/lg/77ksxqjx0n7gwph6nqpzcmcw0000gn/T//ccn5JkAm.s 			page 13


 734 0044 1E60     		str	r6, [r3]	@ float
 735 0046 F8EEE77A 		vcvt.f32.s32	s15, s15
 736 004a C3ED017A 		vstr.32	s15, [r3, #4]
 737              	.L110:
 738 004e AA42     		cmp	r2, r5
 739 0050 03F10403 		add	r3, r3, #4
 740 0054 E0D1     		bne	.L112
 741 0056 013F     		subs	r7, r7, #1
 742 0058 A5F10405 		sub	r5, r5, #4
 743 005c D9D1     		bne	.L113
 744              	.L108:
 745 005e F0BC     		pop	{r4, r5, r6, r7}
 746 0060 7047     		bx	lr
 748 0062 00BF     		.section	.text._Z11ApplyWindowfjj,"ax",%progbits
 749              		.align	1
 750              		.p2align 2,,3
 751              		.global	_Z11ApplyWindowfjj
 752              		.syntax unified
 753              		.thumb
 754              		.thumb_func
 755              		.fpu fpv5-d16
 757              	_Z11ApplyWindowfjj:
 758              		@ args = 0, pretend = 0, frame = 0
 759              		@ frame_needed = 0, uses_anonymous_args = 0
 760 0000 07EE900A 		vmov	s15, r0	@ int
 761 0004 0139     		subs	r1, r1, #1
 762 0006 DFED106A 		vldr.32	s13, .L120
 763 000a B8EE677A 		vcvt.f32.u32	s14, s15
 764 000e 07EE901A 		vmov	s15, r1	@ int
 765 0012 08B5     		push	{r3, lr}
 766 0014 27EE267A 		vmul.f32	s14, s14, s13
 767 0018 2DED028B 		vpush.64	{d8}
 768 001c B0EE408A 		vmov.f32	s16, s0
 769 0020 B8EE670A 		vcvt.f32.u32	s0, s15
 770 0024 87EE000A 		vdiv.f32	s0, s14, s0
 771 0028 FFF7FEFF 		bl	cosf
 772 002c F7EE007A 		vmov.f32	s15, #1.0e+0
 773 0030 B6EE007A 		vmov.f32	s14, #5.0e-1
 774 0034 77EEC07A 		vsub.f32	s15, s15, s0
 775 0038 67EE877A 		vmul.f32	s15, s15, s14
 776 003c 27EE880A 		vmul.f32	s0, s15, s16
 777 0040 BDEC028B 		vldm	sp!, {d8}
 778 0044 08BD     		pop	{r3, pc}
 779              	.L121:
 780 0046 00BF     		.align	2
 781              	.L120:
 782 0048 DB0FC940 		.word	1086918619
 784              		.section	.text._Z21SelectResonatorOctavef,"ax",%progbits
 785              		.align	1
 786              		.p2align 2,,3
 787              		.global	_Z21SelectResonatorOctavef
 788              		.syntax unified
 789              		.thumb
 790              		.thumb_func
 791              		.fpu fpv5-d16
 793              	_Z21SelectResonatorOctavef:
 794              		@ args = 0, pretend = 0, frame = 0
ARM GAS  /var/folders/lg/77ksxqjx0n7gwph6nqpzcmcw0000gn/T//ccn5JkAm.s 			page 14


 795              		@ frame_needed = 0, uses_anonymous_args = 0
 796              		@ link register save eliminated.
 797 0000 DFED187A 		vldr.32	s15, .L143
 798 0004 B4EEE70A 		vcmpe.f32	s0, s15
 799 0008 F1EE10FA 		vmrs	APSR_nzcv, FPSCR
 800 000c 03D5     		bpl	.L138
 801 000e 164B     		ldr	r3, .L143+4
 802 0010 0122     		movs	r2, #1
 803 0012 1A60     		str	r2, [r3]
 804 0014 7047     		bx	lr
 805              	.L138:
 806 0016 DFED157A 		vldr.32	s15, .L143+8
 807 001a B4EEE70A 		vcmpe.f32	s0, s15
 808 001e F1EE10FA 		vmrs	APSR_nzcv, FPSCR
 809 0022 03D5     		bpl	.L139
 810 0024 104B     		ldr	r3, .L143+4
 811 0026 0222     		movs	r2, #2
 812 0028 1A60     		str	r2, [r3]
 813 002a 7047     		bx	lr
 814              	.L139:
 815 002c DFED107A 		vldr.32	s15, .L143+12
 816 0030 B4EEE70A 		vcmpe.f32	s0, s15
 817 0034 F1EE10FA 		vmrs	APSR_nzcv, FPSCR
 818 0038 0AD4     		bmi	.L142
 819 003a DFED0E7A 		vldr.32	s15, .L143+16
 820 003e B4EEE70A 		vcmpe.f32	s0, s15
 821 0042 F1EE10FA 		vmrs	APSR_nzcv, FPSCR
 822 0046 07D5     		bpl	.L141
 823 0048 074B     		ldr	r3, .L143+4
 824 004a 0822     		movs	r2, #8
 825 004c 1A60     		str	r2, [r3]
 826 004e 7047     		bx	lr
 827              	.L142:
 828 0050 054B     		ldr	r3, .L143+4
 829 0052 0422     		movs	r2, #4
 830 0054 1A60     		str	r2, [r3]
 831 0056 7047     		bx	lr
 832              	.L141:
 833 0058 02DD     		ble	.L122
 834 005a 034B     		ldr	r3, .L143+4
 835 005c 1022     		movs	r2, #16
 836 005e 1A60     		str	r2, [r3]
 837              	.L122:
 838 0060 7047     		bx	lr
 839              	.L144:
 840 0062 00BF     		.align	2
 841              	.L143:
 842 0064 CDCC4C3E 		.word	1045220557
 843 0068 00000000 		.word	.LANCHOR2
 844 006c CDCCCC3E 		.word	1053609165
 845 0070 9A99193F 		.word	1058642330
 846 0074 CDCC4C3F 		.word	1061997773
 848              		.section	.text._Z20SelectSpectraQualityf,"ax",%progbits
 849              		.align	1
 850              		.p2align 2,,3
 851              		.global	_Z20SelectSpectraQualityf
 852              		.syntax unified
ARM GAS  /var/folders/lg/77ksxqjx0n7gwph6nqpzcmcw0000gn/T//ccn5JkAm.s 			page 15


 853              		.thumb
 854              		.thumb_func
 855              		.fpu fpv5-d16
 857              	_Z20SelectSpectraQualityf:
 858              		@ args = 0, pretend = 0, frame = 0
 859              		@ frame_needed = 0, uses_anonymous_args = 0
 860              		@ link register save eliminated.
 861 0000 F5EE007A 		vmov.f32	s15, #2.5e-1
 862 0004 B4EEE70A 		vcmpe.f32	s0, s15
 863 0008 F1EE10FA 		vmrs	APSR_nzcv, FPSCR
 864 000c 05D5     		bpl	.L158
 865 000e 134A     		ldr	r2, .L162
 866 0010 44F6E413 		movw	r3, #18916
 867 0014 0221     		movs	r1, #2
 868 0016 D150     		str	r1, [r2, r3]
 869 0018 7047     		bx	lr
 870              	.L158:
 871 001a F6EE007A 		vmov.f32	s15, #5.0e-1
 872 001e B4EEE70A 		vcmpe.f32	s0, s15
 873 0022 F1EE10FA 		vmrs	APSR_nzcv, FPSCR
 874 0026 05D5     		bpl	.L159
 875 0028 0C4A     		ldr	r2, .L162
 876 002a 44F6E413 		movw	r3, #18916
 877 002e 0421     		movs	r1, #4
 878 0030 D150     		str	r1, [r2, r3]
 879 0032 7047     		bx	lr
 880              	.L159:
 881 0034 F6EE087A 		vmov.f32	s15, #7.5e-1
 882 0038 B4EEE70A 		vcmpe.f32	s0, s15
 883 003c F1EE10FA 		vmrs	APSR_nzcv, FPSCR
 884 0040 06D4     		bmi	.L161
 885 0042 04DD     		ble	.L145
 886 0044 054A     		ldr	r2, .L162
 887 0046 44F6E413 		movw	r3, #18916
 888 004a 1021     		movs	r1, #16
 889 004c D150     		str	r1, [r2, r3]
 890              	.L145:
 891 004e 7047     		bx	lr
 892              	.L161:
 893 0050 024A     		ldr	r2, .L162
 894 0052 44F6E413 		movw	r3, #18916
 895 0056 0821     		movs	r1, #8
 896 0058 D150     		str	r1, [r2, r3]
 897 005a 7047     		bx	lr
 898              	.L163:
 899              		.align	2
 900              	.L162:
 901 005c 00000000 		.word	_ZL15spectra_oscbank
 903              		.section	.text._Z11randomFloatv,"ax",%progbits
 904              		.align	1
 905              		.p2align 2,,3
 906              		.global	_Z11randomFloatv
 907              		.syntax unified
 908              		.thumb
 909              		.thumb_func
 910              		.fpu fpv5-d16
 912              	_Z11randomFloatv:
ARM GAS  /var/folders/lg/77ksxqjx0n7gwph6nqpzcmcw0000gn/T//ccn5JkAm.s 			page 16


 913              		@ args = 0, pretend = 0, frame = 0
 914              		@ frame_needed = 0, uses_anonymous_args = 0
 915 0000 08B5     		push	{r3, lr}
 916 0002 FFF7FEFF 		bl	rand
 917 0006 094B     		ldr	r3, .L166
 918 0008 42F21071 		movw	r1, #10000
 919 000c DFED087A 		vldr.32	s15, .L166+4
 920 0010 83FB0023 		smull	r2, r3, r3, r0
 921 0014 C217     		asrs	r2, r0, #31
 922 0016 C2EB2333 		rsb	r3, r2, r3, asr #12
 923 001a 01FB1303 		mls	r3, r1, r3, r0
 924 001e 00EE103A 		vmov	s0, r3	@ int
 925 0022 B8EEC00A 		vcvt.f32.s32	s0, s0
 926 0026 80EE270A 		vdiv.f32	s0, s0, s15
 927 002a 08BD     		pop	{r3, pc}
 928              	.L167:
 929              		.align	2
 930              	.L166:
 931 002c AD8BDB68 		.word	1759218605
 932 0030 00401C46 		.word	1176256512
 934              		.section	.text._Z19WriteShimmerBuffer1ff,"ax",%progbits
 935              		.align	1
 936              		.p2align 2,,3
 937              		.global	_Z19WriteShimmerBuffer1ff
 938              		.syntax unified
 939              		.thumb
 940              		.thumb_func
 941              		.fpu fpv5-d16
 943              	_Z19WriteShimmerBuffer1ff:
 944              		@ args = 0, pretend = 0, frame = 0
 945              		@ frame_needed = 0, uses_anonymous_args = 0
 946              		@ link register save eliminated.
 947 0000 104A     		ldr	r2, .L170
 948 0002 1149     		ldr	r1, .L170+4
 949 0004 1368     		ldr	r3, [r2]
 950 0006 0968     		ldr	r1, [r1]
 951 0008 1048     		ldr	r0, .L170+8
 952 000a F0B4     		push	{r4, r5, r6, r7}
 953 000c 5E1C     		adds	r6, r3, #1
 954 000e 0568     		ldr	r5, [r0]
 955 0010 0F4C     		ldr	r4, .L170+12
 956 0012 96FBF1F0 		sdiv	r0, r6, r1
 957 0016 2768     		ldr	r7, [r4]
 958 0018 01FB1060 		mls	r0, r1, r0, r6
 959 001c 0D49     		ldr	r1, .L170+16
 960 001e 7E1C     		adds	r6, r7, #1
 961 0020 1060     		str	r0, [r2]
 962 0022 01EB8301 		add	r1, r1, r3, lsl #2
 963 0026 0C4B     		ldr	r3, .L170+20
 964 0028 96FBF5F2 		sdiv	r2, r6, r5
 965 002c 03EB8703 		add	r3, r3, r7, lsl #2
 966 0030 05FB1262 		mls	r2, r5, r2, r6
 967 0034 81ED000A 		vstr.32	s0, [r1]
 968 0038 2260     		str	r2, [r4]
 969 003a C3ED000A 		vstr.32	s1, [r3]
 970 003e F0BC     		pop	{r4, r5, r6, r7}
 971 0040 7047     		bx	lr
ARM GAS  /var/folders/lg/77ksxqjx0n7gwph6nqpzcmcw0000gn/T//ccn5JkAm.s 			page 17


 972              	.L171:
 973 0042 00BF     		.align	2
 974              	.L170:
 975 0044 00000000 		.word	.LANCHOR3
 976 0048 00000000 		.word	.LANCHOR5
 977 004c 00000000 		.word	.LANCHOR6
 978 0050 00000000 		.word	.LANCHOR4
 979 0054 00000000 		.word	mlooper_buf_1l
 980 0058 00000000 		.word	mlooper_buf_1r
 982              		.section	.text._Z19WriteShimmerBuffer2ff,"ax",%progbits
 983              		.align	1
 984              		.p2align 2,,3
 985              		.global	_Z19WriteShimmerBuffer2ff
 986              		.syntax unified
 987              		.thumb
 988              		.thumb_func
 989              		.fpu fpv5-d16
 991              	_Z19WriteShimmerBuffer2ff:
 992              		@ args = 0, pretend = 0, frame = 0
 993              		@ frame_needed = 0, uses_anonymous_args = 0
 994              		@ link register save eliminated.
 995 0000 0B49     		ldr	r1, .L174
 996 0002 F6EE007A 		vmov.f32	s15, #5.0e-1
 997 0006 0B4B     		ldr	r3, .L174+4
 998 0008 30EE800A 		vadd.f32	s0, s1, s0
 999 000c 0868     		ldr	r0, [r1]
 1000 000e 30B4     		push	{r4, r5}
 1001 0010 1C68     		ldr	r4, [r3]
 1002 0012 451C     		adds	r5, r0, #1
 1003 0014 084B     		ldr	r3, .L174+8
 1004 0016 20EE270A 		vmul.f32	s0, s0, s15
 1005 001a 95FBF4F2 		sdiv	r2, r5, r4
 1006 001e 03EB8003 		add	r3, r3, r0, lsl #2
 1007 0022 04FB1252 		mls	r2, r4, r2, r5
 1008 0026 83ED000A 		vstr.32	s0, [r3]
 1009 002a 0A60     		str	r2, [r1]
 1010 002c 30BC     		pop	{r4, r5}
 1011 002e 7047     		bx	lr
 1012              	.L175:
 1013              		.align	2
 1014              	.L174:
 1015 0030 00000000 		.word	.LANCHOR7
 1016 0034 00000000 		.word	.LANCHOR8
 1017 0038 00000000 		.word	mlooper_frozen_buf_1l
 1019              		.section	.text._Z14CompressSamplef,"ax",%progbits
 1020              		.align	1
 1021              		.p2align 2,,3
 1022              		.global	_Z14CompressSamplef
 1023              		.syntax unified
 1024              		.thumb
 1025              		.thumb_func
 1026              		.fpu fpv5-d16
 1028              	_Z14CompressSamplef:
 1029              		@ args = 0, pretend = 0, frame = 0
 1030              		@ frame_needed = 0, uses_anonymous_args = 0
 1031              		@ link register save eliminated.
 1032 0000 9FED536B 		vldr.64	d6, .L200
ARM GAS  /var/folders/lg/77ksxqjx0n7gwph6nqpzcmcw0000gn/T//ccn5JkAm.s 			page 18


 1033 0004 B7EEC07A 		vcvt.f64.f32	d7, s0
 1034 0008 B4EEC67B 		vcmpe.f64	d7, d6
 1035 000c F1EE10FA 		vmrs	APSR_nzcv, FPSCR
 1036 0010 1FDD     		ble	.L177
 1037 0012 9FED577A 		vldr.32	s14, .L200+32
 1038 0016 DFED576A 		vldr.32	s13, .L200+36
 1039 001a 30EE477A 		vsub.f32	s14, s0, s14
 1040 001e 9FED566A 		vldr.32	s12, .L200+40
 1041 0022 DFED567A 		vldr.32	s15, .L200+44
 1042 0026 27EE267A 		vmul.f32	s14, s14, s13
 1043 002a C7EE066A 		vdiv.f32	s13, s14, s12
 1044 002e 36EEA77A 		vadd.f32	s14, s13, s15
 1045 0032 30EE470A 		vsub.f32	s0, s0, s14
 1046 0036 B4EEE70A 		vcmpe.f32	s0, s15
 1047 003a F1EE10FA 		vmrs	APSR_nzcv, FPSCR
 1048 003e 78D4     		bmi	.L191
 1049 0040 F0EE007A 		vmov.f32	s15, #2.0e+0
 1050 0044 B4EEE70A 		vcmpe.f32	s0, s15
 1051 0048 F1EE10FA 		vmrs	APSR_nzcv, FPSCR
 1052 004c 7ADC     		bgt	.L187
 1053 004e B7EEC07A 		vcvt.f64.f32	d7, s0
 1054              	.L177:
 1055 0052 9FED416B 		vldr.64	d6, .L200+8
 1056 0056 B4EEC67B 		vcmpe.f64	d7, d6
 1057 005a F1EE10FA 		vmrs	APSR_nzcv, FPSCR
 1058 005e 1DD5     		bpl	.L180
 1059 0060 F1EE047A 		vmov.f32	s15, #5.0e+0
 1060 0064 DFED436A 		vldr.32	s13, .L200+36
 1061 0068 DFED435A 		vldr.32	s11, .L200+40
 1062 006c B8EE006A 		vmov.f32	s12, #-2.0e+0
 1063 0070 70EE277A 		vadd.f32	s15, s0, s15
 1064 0074 67EEA67A 		vmul.f32	s15, s15, s13
 1065 0078 87EEA57A 		vdiv.f32	s14, s15, s11
 1066 007c 77EE667A 		vsub.f32	s15, s14, s13
 1067 0080 30EE670A 		vsub.f32	s0, s0, s15
 1068 0084 B4EEC60A 		vcmpe.f32	s0, s12
 1069 0088 F1EE10FA 		vmrs	APSR_nzcv, FPSCR
 1070 008c 57D4     		bmi	.L188
 1071 008e B5EEC00A 		vcmpe.f32	s0, #0
 1072 0092 F1EE10FA 		vmrs	APSR_nzcv, FPSCR
 1073 0096 4FDC     		bgt	.L189
 1074 0098 B7EEC07A 		vcvt.f64.f32	d7, s0
 1075              	.L180:
 1076 009c 9FED306B 		vldr.64	d6, .L200+16
 1077 00a0 B4EEC67B 		vcmpe.f64	d7, d6
 1078 00a4 F1EE10FA 		vmrs	APSR_nzcv, FPSCR
 1079 00a8 1FDD     		ble	.L182
 1080 00aa 9FED357A 		vldr.32	s14, .L200+48
 1081 00ae DFED356A 		vldr.32	s13, .L200+52
 1082 00b2 30EE477A 		vsub.f32	s14, s0, s14
 1083 00b6 9FED346A 		vldr.32	s12, .L200+56
 1084 00ba DFED307A 		vldr.32	s15, .L200+44
 1085 00be 27EE267A 		vmul.f32	s14, s14, s13
 1086 00c2 C7EE066A 		vdiv.f32	s13, s14, s12
 1087 00c6 36EEA77A 		vadd.f32	s14, s13, s15
 1088 00ca 30EE470A 		vsub.f32	s0, s0, s14
 1089 00ce B4EEE70A 		vcmpe.f32	s0, s15
ARM GAS  /var/folders/lg/77ksxqjx0n7gwph6nqpzcmcw0000gn/T//ccn5JkAm.s 			page 19


 1090 00d2 F1EE10FA 		vmrs	APSR_nzcv, FPSCR
 1091 00d6 2CD4     		bmi	.L191
 1092 00d8 DFED2C7A 		vldr.32	s15, .L200+60
 1093 00dc B4EEE70A 		vcmpe.f32	s0, s15
 1094 00e0 F1EE10FA 		vmrs	APSR_nzcv, FPSCR
 1095 00e4 25DC     		bgt	.L191
 1096 00e6 B7EEC07A 		vcvt.f64.f32	d7, s0
 1097              	.L182:
 1098 00ea 9FED1F6B 		vldr.64	d6, .L200+24
 1099 00ee B4EEC67B 		vcmpe.f64	d7, d6
 1100 00f2 F1EE10FA 		vmrs	APSR_nzcv, FPSCR
 1101 00f6 1BD5     		bpl	.L176
 1102 00f8 B0EE007A 		vmov.f32	s14, #2.0e+0
 1103 00fc DFED216A 		vldr.32	s13, .L200+52
 1104 0100 DFED215A 		vldr.32	s11, .L200+56
 1105 0104 9FED226A 		vldr.32	s12, .L200+64
 1106 0108 30EE077A 		vadd.f32	s14, s0, s14
 1107 010c 27EE267A 		vmul.f32	s14, s14, s13
 1108 0110 C7EE257A 		vdiv.f32	s15, s14, s11
 1109 0114 77EEE67A 		vsub.f32	s15, s15, s13
 1110 0118 30EE670A 		vsub.f32	s0, s0, s15
 1111 011c B4EEC60A 		vcmpe.f32	s0, s12
 1112 0120 F1EE10FA 		vmrs	APSR_nzcv, FPSCR
 1113 0124 11D4     		bmi	.L193
 1114 0126 B5EEC00A 		vcmpe.f32	s0, #0
 1115 012a F1EE10FA 		vmrs	APSR_nzcv, FPSCR
 1116 012e 03DC     		bgt	.L189
 1117              	.L176:
 1118 0130 7047     		bx	lr
 1119              	.L191:
 1120 0132 B0EE670A 		vmov.f32	s0, s15
 1121 0136 7047     		bx	lr
 1122              	.L189:
 1123 0138 9FED100A 		vldr.32	s0, .L200+44
 1124 013c 7047     		bx	lr
 1125              	.L188:
 1126 013e 9FED140A 		vldr.32	s0, .L200+64
 1127 0142 7047     		bx	lr
 1128              	.L187:
 1129 0144 9FED110A 		vldr.32	s0, .L200+60
 1130 0148 7047     		bx	lr
 1131              	.L193:
 1132 014a B0EE460A 		vmov.f32	s0, s12
 1133 014e EFE7     		b	.L176
 1134              	.L201:
 1135              		.align	3
 1136              	.L200:
 1137 0150 9A999999 		.word	2576980378
 1138 0154 9999D93F 		.word	1071225241
 1139 0158 9A999999 		.word	2576980378
 1140 015c 9999D9BF 		.word	-1076258407
 1141 0160 9A999999 		.word	2576980378
 1142 0164 9999E93F 		.word	1072273817
 1143 0168 9A999999 		.word	2576980378
 1144 016c 9999E9BF 		.word	-1075209831
 1145 0170 CDCCCC3E 		.word	1053609165
 1146 0174 9A99193F 		.word	1058642330
ARM GAS  /var/folders/lg/77ksxqjx0n7gwph6nqpzcmcw0000gn/T//ccn5JkAm.s 			page 20


 1147 0178 33339340 		.word	1083388723
 1148 017c 00000000 		.word	0
 1149 0180 CDCC4C3F 		.word	1061997773
 1150 0184 CDCCCC3D 		.word	1036831949
 1151 0188 9A99993F 		.word	1067030938
 1152 018c 6666663F 		.word	1063675494
 1153 0190 666666BF 		.word	3211159142
 1155              		.section	.text._Z15GetReverbSampleRfS_ff,"ax",%progbits
 1156              		.align	1
 1157              		.p2align 2,,3
 1158              		.global	_Z15GetReverbSampleRfS_ff
 1159              		.syntax unified
 1160              		.thumb
 1161              		.thumb_func
 1162              		.fpu fpv5-d16
 1164              	_Z15GetReverbSampleRfS_ff:
 1165              		@ args = 0, pretend = 0, frame = 16
 1166              		@ frame_needed = 0, uses_anonymous_args = 0
 1167 0000 C54B     		ldr	r3, .L285
 1168 0002 1A68     		ldr	r2, [r3]
 1169 0004 012A     		cmp	r2, #1
 1170 0006 2DE9F04F 		push	{r4, r5, r6, r7, r8, r9, r10, fp, lr}
 1171 000a 0446     		mov	r4, r0
 1172 000c 0D46     		mov	r5, r1
 1173 000e 2DED068B 		vpush.64	{d8, d9, d10}
 1174 0012 B0EE409A 		vmov.f32	s18, s0
 1175 0016 87B0     		sub	sp, sp, #28
 1176 0018 F0EE608A 		vmov.f32	s17, s1
 1177 001c 40F2AA81 		bls	.L278
 1178 0020 9FEDBEAA 		vldr.32	s20, .L285+4
 1179 0024 B0EE4A6A 		vmov.f32	s12, s20
 1180              	.L206:
 1181 0028 BD4F     		ldr	r7, .L285+8
 1182 002a BE48     		ldr	r0, .L285+12
 1183 002c 3968     		ldr	r1, [r7]
 1184 002e 0131     		adds	r1, r1, #1
 1185 0030 80FB0130 		smull	r3, r0, r0, r1
 1186 0034 CB17     		asrs	r3, r1, #31
 1187 0036 C3EBE003 		rsb	r3, r3, r0, asr #3
 1188 003a 03EB4303 		add	r3, r3, r3, lsl #1
 1189 003e A1EB0313 		sub	r3, r1, r3, lsl #4
 1190 0042 3B60     		str	r3, [r7]
 1191 0044 002B     		cmp	r3, #0
 1192 0046 00F06A82 		beq	.L211
 1193 004a B74B     		ldr	r3, .L285+16
 1194 004c B74F     		ldr	r7, .L285+20
 1195 004e 93ED008A 		vldr.32	s16, [r3]
 1196              	.L212:
 1197 0052 B749     		ldr	r1, .L285+24
 1198 0054 B74B     		ldr	r3, .L285+28
 1199 0056 D1ED007A 		vldr.32	s15, [r1]
 1200 005a D3ED006A 		vldr.32	s13, [r3]
 1201 005e 78EE674A 		vsub.f32	s9, s16, s15
 1202 0062 9FEDB55A 		vldr.32	s10, .L285+32
 1203 0066 78EE665A 		vsub.f32	s11, s16, s13
 1204 006a 9FEDB47A 		vldr.32	s14, .L285+36
 1205 006e E4EE857A 		vfma.f32	s15, s9, s10
ARM GAS  /var/folders/lg/77ksxqjx0n7gwph6nqpzcmcw0000gn/T//ccn5JkAm.s 			page 21


 1206 0072 E5EE876A 		vfma.f32	s13, s11, s14
 1207 0076 C1ED007A 		vstr.32	s15, [r1]
 1208 007a F0EE663A 		vmov.f32	s7, s13
 1209 007e C3ED006A 		vstr.32	s13, [r3]
 1210 0082 002A     		cmp	r2, #0
 1211 0084 40F09480 		bne	.L217
 1212 0088 F5EEC07A 		vcmpe.f32	s15, #0
 1213 008c F1EE10FA 		vmrs	APSR_nzcv, FPSCR
 1214 0090 00F17482 		bmi	.L246
 1215 0094 F7EE006A 		vmov.f32	s13, #1.0e+0
 1216 0098 F4EEE67A 		vcmpe.f32	s15, s13
 1217 009c F1EE10FA 		vmrs	APSR_nzcv, FPSCR
 1218 00a0 B5EEC08A 		vcmpe.f32	s16, #0
 1219 00a4 76FEA76A 		vselgt.f32	s13, s13, s15
 1220 00a8 F1EE10FA 		vmrs	APSR_nzcv, FPSCR
 1221 00ac 00F16E82 		bmi	.L248
 1222              	.L283:
 1223 00b0 B7EE007A 		vmov.f32	s14, #1.0e+0
 1224 00b4 DFED995A 		vldr.32	s11, .L285+4
 1225 00b8 B4EEC78A 		vcmpe.f32	s16, s14
 1226 00bc F1EE10FA 		vmrs	APSR_nzcv, FPSCR
 1227 00c0 F4EEE57A 		vcmpe.f32	s15, s11
 1228 00c4 37FE087A 		vselgt.f32	s14, s14, s16
 1229 00c8 F1EE10FA 		vmrs	APSR_nzcv, FPSCR
 1230 00cc 00F16882 		bmi	.L222
 1231              	.L284:
 1232 00d0 F7EE005A 		vmov.f32	s11, #1.0e+0
 1233 00d4 9A4B     		ldr	r3, .L285+40
 1234 00d6 C3ED106A 		vstr.32	s13, [r3, #64]
 1235 00da F4EEE57A 		vcmpe.f32	s15, s11
 1236 00de 83ED117A 		vstr.32	s14, [r3, #68]
 1237 00e2 F1EE10FA 		vmrs	APSR_nzcv, FPSCR
 1238 00e6 B5EEC08A 		vcmpe.f32	s16, #0
 1239 00ea D8BF     		it	le
 1240 00ec 67EEA75A 		vmulle.f32	s11, s15, s15
 1241 00f0 F1EE10FA 		vmrs	APSR_nzcv, FPSCR
 1242 00f4 C3ED125A 		vstr.32	s11, [r3, #72]
 1243 00f8 00F17B82 		bmi	.L252
 1244              	.L243:
 1245 00fc B7EE007A 		vmov.f32	s14, #1.0e+0
 1246 0100 B4EEC78A 		vcmpe.f32	s16, s14
 1247 0104 F1EE10FA 		vmrs	APSR_nzcv, FPSCR
 1248 0108 00F36B82 		bgt	.L253
 1249 010c 28EE087A 		vmul.f32	s14, s16, s16
 1250 0110 F0EE486A 		vmov.f32	s13, s16
 1251              	.L224:
 1252 0114 F5EEC07A 		vcmpe.f32	s15, #0
 1253 0118 C3ED136A 		vstr.32	s13, [r3, #76]
 1254 011c C3ED146A 		vstr.32	s13, [r3, #80]
 1255 0120 83ED157A 		vstr.32	s14, [r3, #84]
 1256 0124 F1EE10FA 		vmrs	APSR_nzcv, FPSCR
 1257 0128 00F15882 		bmi	.L255
 1258 012c F7EE006A 		vmov.f32	s13, #1.0e+0
 1259 0130 F4EEE67A 		vcmpe.f32	s15, s13
 1260 0134 F1EE10FA 		vmrs	APSR_nzcv, FPSCR
 1261 0138 76FEA76A 		vselgt.f32	s13, s13, s15
 1262              	.L225:
ARM GAS  /var/folders/lg/77ksxqjx0n7gwph6nqpzcmcw0000gn/T//ccn5JkAm.s 			page 22


 1263 013c 9FED777A 		vldr.32	s14, .L285+4
 1264 0140 B4EEC78A 		vcmpe.f32	s16, s14
 1265 0144 F1EE10FA 		vmrs	APSR_nzcv, FPSCR
 1266 0148 00F14082 		bmi	.L227
 1267 014c F7EE005A 		vmov.f32	s11, #1.0e+0
 1268 0150 B4EEE58A 		vcmpe.f32	s16, s11
 1269 0154 F1EE10FA 		vmrs	APSR_nzcv, FPSCR
 1270 0158 F4EEC77A 		vcmpe.f32	s15, s14
 1271 015c 75FE885A 		vselgt.f32	s11, s11, s16
 1272 0160 F1EE10FA 		vmrs	APSR_nzcv, FPSCR
 1273 0164 08D4     		bmi	.L230
 1274              	.L241:
 1275 0166 B7EE007A 		vmov.f32	s14, #1.0e+0
 1276 016a F4EEC77A 		vcmpe.f32	s15, s14
 1277 016e F1EE10FA 		vmrs	APSR_nzcv, FPSCR
 1278 0172 D8BF     		it	le
 1279 0174 27EEA77A 		vmulle.f32	s14, s15, s15
 1280              	.L230:
 1281 0178 B5EEC08A 		vcmpe.f32	s16, #0
 1282 017c C3ED196A 		vstr.32	s13, [r3, #100]
 1283 0180 C3ED1A5A 		vstr.32	s11, [r3, #104]
 1284 0184 83ED1B7A 		vstr.32	s14, [r3, #108]
 1285 0188 F1EE10FA 		vmrs	APSR_nzcv, FPSCR
 1286 018c 00F12C82 		bmi	.L261
 1287 0190 B7EE007A 		vmov.f32	s14, #1.0e+0
 1288 0194 B4EEC78A 		vcmpe.f32	s16, s14
 1289 0198 F1EE10FA 		vmrs	APSR_nzcv, FPSCR
 1290 019c 00F32E82 		bgt	.L262
 1291 01a0 28EE087A 		vmul.f32	s14, s16, s16
 1292              	.L231:
 1293 01a4 83ED168A 		vstr.32	s16, [r3, #88]
 1294 01a8 83ED178A 		vstr.32	s16, [r3, #92]
 1295 01ac 83ED187A 		vstr.32	s14, [r3, #96]
 1296              	.L217:
 1297 01b0 F6EE009A 		vmov.f32	s19, #5.0e-1
 1298 01b4 634A     		ldr	r2, .L285+44
 1299 01b6 644B     		ldr	r3, .L285+48
 1300 01b8 B6EE083A 		vmov.f32	s6, #7.5e-1
 1301 01bc D2ED006A 		vldr.32	s13, [r2]
 1302 01c0 B0EE694A 		vmov.f32	s8, s19
 1303 01c4 93ED007A 		vldr.32	s14, [r3]
 1304 01c8 604A     		ldr	r2, .L285+52
 1305 01ca F0EE694A 		vmov.f32	s9, s19
 1306 01ce 604B     		ldr	r3, .L285+56
 1307 01d0 27EE066A 		vmul.f32	s12, s14, s12
 1308 01d4 A6EEA94A 		vfma.f32	s8, s13, s19
 1309 01d8 D2ED005A 		vldr.32	s11, [r2]
 1310 01dc 93ED005A 		vldr.32	s10, [r3]
 1311 01e0 E7EEA94A 		vfma.f32	s9, s15, s19
 1312 01e4 DFED5B7A 		vldr.32	s15, .L285+60
 1313 01e8 27EE0A7A 		vmul.f32	s14, s14, s20
 1314 01ec 75EEC55A 		vsub.f32	s11, s11, s10
 1315 01f0 5948     		ldr	r0, .L285+64
 1316 01f2 E3EEC36A 		vfms.f32	s13, s7, s6
 1317 01f6 DFF87491 		ldr	r9, .L285+84
 1318 01fa 584E     		ldr	r6, .L285+68
 1319 01fc A5EEA75A 		vfma.f32	s10, s11, s15
ARM GAS  /var/folders/lg/77ksxqjx0n7gwph6nqpzcmcw0000gn/T//ccn5JkAm.s 			page 23


 1320 0200 DFF86C81 		ldr	r8, .L285+88
 1321 0204 26EE046A 		vmul.f32	s12, s12, s8
 1322 0208 F0EE497A 		vmov.f32	s15, s18
 1323 020c 27EE047A 		vmul.f32	s14, s14, s8
 1324 0210 C0ED006A 		vstr.32	s13, [r0]
 1325 0214 E6EE247A 		vfma.f32	s15, s12, s9
 1326 0218 83ED005A 		vstr.32	s10, [r3]
 1327 021c B0EE676A 		vmov.f32	s12, s15
 1328 0220 F0EE687A 		vmov.f32	s15, s17
 1329 0224 26EE296A 		vmul.f32	s12, s12, s19
 1330 0228 E4EE877A 		vfma.f32	s15, s9, s14
 1331 022c 26EE050A 		vmul.f32	s0, s12, s10
 1332 0230 F0EE674A 		vmov.f32	s9, s15
 1333 0234 FFF7FEFF 		bl	_Z14CompressSamplef
 1334 0238 8DED040A 		vstr.32	s0, [sp, #16]
 1335 023c 64EEA94A 		vmul.f32	s9, s9, s19
 1336 0240 24EE850A 		vmul.f32	s0, s9, s10
 1337 0244 FFF7FEFF 		bl	_Z14CompressSamplef
 1338 0248 2346     		mov	r3, r4
 1339 024a 05AA     		add	r2, sp, #20
 1340 024c 04A9     		add	r1, sp, #16
 1341 024e 0095     		str	r5, [sp]
 1342 0250 8DED050A 		vstr.32	s0, [sp, #20]
 1343 0254 FFF7FEFF 		bl	_ZN7daisysp8ReverbSc7ProcessERKfS2_PfS3_
 1344 0258 94ED008A 		vldr.32	s16, [r4]
 1345 025c D6ED006A 		vldr.32	s13, [r6]
 1346 0260 89ED008A 		vstr.32	s16, [r9]
 1347 0264 95ED006A 		vldr.32	s12, [r5]
 1348 0268 DFED3D7A 		vldr.32	s15, .L285+72
 1349 026c 26EE067A 		vmul.f32	s14, s12, s12
 1350 0270 D7F8C030 		ldr	r3, [r7, #192]
 1351 0274 F4EEE76A 		vcmpe.f32	s13, s15
 1352 0278 88ED006A 		vstr.32	s12, [r8]
 1353 027c 07EB8302 		add	r2, r7, r3, lsl #2
 1354 0280 0133     		adds	r3, r3, #1
 1355 0282 A8EE087A 		vfma.f32	s14, s16, s16
 1356 0286 F1EE10FA 		vmrs	APSR_nzcv, FPSCR
 1357 028a C7F8C030 		str	r3, [r7, #192]
 1358 028e 27EE297A 		vmul.f32	s14, s14, s19
 1359 0292 82ED007A 		vstr.32	s14, [r2]
 1360 0296 40F3F680 		ble	.L274
 1361 029a 4FF07E53 		mov	r3, #1065353216
 1362 029e DFED1F9A 		vldr.32	s19, .L285+4
 1363 02a2 3360     		str	r3, [r6]	@ float
 1364              	.L234:
 1365 02a4 A9EE298A 		vfma.f32	s16, s18, s19
 1366 02a8 DFED2E7A 		vldr.32	s15, .L285+76
 1367 02ac B6EE007A 		vmov.f32	s14, #5.0e-1
 1368 02b0 28EE278A 		vmul.f32	s16, s16, s15
 1369 02b4 84ED008A 		vstr.32	s16, [r4]
 1370 02b8 96ED000A 		vldr.32	s0, [r6]
 1371 02bc 70EE007A 		vadd.f32	s15, s0, s0
 1372 02c0 27EE877A 		vmul.f32	s14, s15, s14
 1373 02c4 B5EE407A 		vcmp.f32	s14, #0
 1374 02c8 B1EEC78A 		vsqrt.f32	s16, s14
 1375 02cc F1EE10FA 		vmrs	APSR_nzcv, FPSCR
 1376 02d0 00F1B581 		bmi	.L279
ARM GAS  /var/folders/lg/77ksxqjx0n7gwph6nqpzcmcw0000gn/T//ccn5JkAm.s 			page 24


 1377              	.L238:
 1378 02d4 B0EE000A 		vmov.f32	s0, #2.0e+0
 1379 02d8 9FED237A 		vldr.32	s14, .L285+80
 1380 02dc D8ED006A 		vldr.32	s13, [r8]
 1381 02e0 30EE670A 		vsub.f32	s0, s0, s15
 1382 02e4 28EE268A 		vmul.f32	s16, s16, s13
 1383 02e8 20EE070A 		vmul.f32	s0, s0, s14
 1384 02ec B5EE400A 		vcmp.f32	s0, #0
 1385 02f0 B1EEC09A 		vsqrt.f32	s18, s0
 1386 02f4 F1EE10FA 		vmrs	APSR_nzcv, FPSCR
 1387 02f8 00F19E81 		bmi	.L280
 1388              	.L239:
 1389 02fc A8EE898A 		vfma.f32	s16, s17, s18
 1390 0300 DFED187A 		vldr.32	s15, .L285+76
 1391 0304 28EE278A 		vmul.f32	s16, s16, s15
 1392 0308 85ED008A 		vstr.32	s16, [r5]
 1393 030c 07B0     		add	sp, sp, #28
 1394              		@ sp needed
 1395 030e BDEC068B 		vldm	sp!, {d8-d10}
 1396 0312 BDE8F08F 		pop	{r4, r5, r6, r7, r8, r9, r10, fp, pc}
 1397              	.L286:
 1398 0316 00BF     		.align	2
 1399              	.L285:
 1400 0318 00000000 		.word	.LANCHOR9
 1401 031c 00000000 		.word	0
 1402 0320 00000000 		.word	.LANCHOR13
 1403 0324 ABAAAA2A 		.word	715827883
 1404 0328 00000000 		.word	.LANCHOR14
 1405 032c 00000000 		.word	.LANCHOR15
 1406 0330 00000000 		.word	.LANCHOR16
 1407 0334 00000000 		.word	.LANCHOR17
 1408 0338 CDCCCC3D 		.word	1036831949
 1409 033c 0AD7233C 		.word	1008981770
 1410 0340 00000000 		.word	.LANCHOR18
 1411 0344 00000000 		.word	.LANCHOR19
 1412 0348 00000000 		.word	.LANCHOR20
 1413 034c 00000000 		.word	.LANCHOR22
 1414 0350 00000000 		.word	.LANCHOR21
 1415 0354 6F12833A 		.word	981668463
 1416 0358 00000000 		.word	_ZL3rev
 1417 035c 00000000 		.word	.LANCHOR25
 1418 0360 48E17A3F 		.word	1065017672
 1419 0364 3333333F 		.word	1060320051
 1420 0368 3333733F 		.word	1064514355
 1421 036c 00000000 		.word	.LANCHOR23
 1422 0370 00000000 		.word	.LANCHOR24
 1423              	.L278:
 1424 0374 DFF824B3 		ldr	fp, .L287+60
 1425 0378 B94B     		ldr	r3, .L287
 1426 037a DBF80000 		ldr	r0, [fp]
 1427 037e 1F68     		ldr	r7, [r3]
 1428 0380 B849     		ldr	r1, .L287+4
 1429 0382 3E46     		mov	r6, r7
 1430 0384 871C     		adds	r7, r0, #2
 1431 0386 0968     		ldr	r1, [r1]
 1432 0388 B74B     		ldr	r3, .L287+8
 1433 038a 06F1020A 		add	r10, r6, #2
ARM GAS  /var/folders/lg/77ksxqjx0n7gwph6nqpzcmcw0000gn/T//ccn5JkAm.s 			page 25


 1434 038e DFF810E3 		ldr	lr, .L287+64
 1435 0392 1B68     		ldr	r3, [r3]
 1436 0394 DFF80CC3 		ldr	ip, .L287+68
 1437 0398 0396     		str	r6, [sp, #12]
 1438 039a 0E46     		mov	r6, r1
 1439 039c 97FBF1F8 		sdiv	r8, r7, r1
 1440 03a0 01FB1877 		mls	r7, r1, r8, r7
 1441 03a4 DEF80010 		ldr	r1, [lr]
 1442 03a8 CBF80070 		str	r7, [fp]
 1443 03ac 01F10109 		add	r9, r1, #1
 1444 03b0 DCF80010 		ldr	r1, [ip]
 1445 03b4 9AFBF3F7 		sdiv	r7, r10, r3
 1446 03b8 01F10108 		add	r8, r1, #1
 1447 03bc 03FB17AA 		mls	r10, r3, r7, r10
 1448 03c0 A749     		ldr	r1, .L287
 1449 03c2 AA4F     		ldr	r7, .L287+12
 1450 03c4 C1F800A0 		str	r10, [r1]
 1451 03c8 07EB8000 		add	r0, r7, r0, lsl #2
 1452 03cc DEF80010 		ldr	r1, [lr]
 1453 03d0 90ED006A 		vldr.32	s12, [r0]
 1454 03d4 07EB8107 		add	r7, r7, r1, lsl #2
 1455 03d8 99FBF6F0 		sdiv	r0, r9, r6
 1456 03dc 87ED000A 		vstr.32	s0, [r7]
 1457 03e0 06FB1091 		mls	r1, r6, r0, r9
 1458 03e4 A248     		ldr	r0, .L287+16
 1459 03e6 98FBF3F7 		sdiv	r7, r8, r3
 1460 03ea CEF80010 		str	r1, [lr]
 1461 03ee 03FB1783 		mls	r3, r3, r7, r8
 1462 03f2 DCF80010 		ldr	r1, [ip]
 1463 03f6 039F     		ldr	r7, [sp, #12]
 1464 03f8 CCF80030 		str	r3, [ip]
 1465 03fc 00EB8707 		add	r7, r0, r7, lsl #2
 1466 0400 00EB8100 		add	r0, r0, r1, lsl #2
 1467 0404 97ED00AA 		vldr.32	s20, [r7]
 1468 0408 C0ED000A 		vstr.32	s1, [r0]
 1469 040c 002A     		cmp	r2, #0
 1470 040e 5DD1     		bne	.L281
 1471 0410 984F     		ldr	r7, .L287+20
 1472 0412 F1EE006A 		vmov.f32	s13, #4.0e+0
 1473 0416 9848     		ldr	r0, .L287+24
 1474 0418 B6EE007A 		vmov.f32	s14, #5.0e-1
 1475 041c D7ED007A 		vldr.32	s15, [r7]
 1476 0420 0068     		ldr	r0, [r0]
 1477 0422 FDEEE75A 		vcvt.s32.f32	s11, s15
 1478 0426 954B     		ldr	r3, .L287+28
 1479 0428 77EEA67A 		vadd.f32	s15, s15, s13
 1480 042c 06EE900A 		vmov	s13, r0	@ int
 1481 0430 15EE901A 		vmov	r1, s11	@ int
 1482 0434 F8EEE65A 		vcvt.f32.s32	s11, s13
 1483 0438 C7ED007A 		vstr.32	s15, [r7]
 1484 043c 03EB8101 		add	r1, r3, r1, lsl #2
 1485 0440 F4EEE57A 		vcmpe.f32	s15, s11
 1486 0444 D1ED006A 		vldr.32	s13, [r1]
 1487 0448 F1EE10FA 		vmrs	APSR_nzcv, FPSCR
 1488 044c A6EE876A 		vfma.f32	s12, s13, s14
 1489 0450 A6EE87AA 		vfma.f32	s20, s13, s14
 1490 0454 03DD     		ble	.L209
ARM GAS  /var/folders/lg/77ksxqjx0n7gwph6nqpzcmcw0000gn/T//ccn5JkAm.s 			page 26


 1491 0456 77EEE57A 		vsub.f32	s15, s15, s11
 1492 045a C7ED007A 		vstr.32	s15, [r7]
 1493              	.L209:
 1494 045e 884F     		ldr	r7, .L287+32
 1495 0460 79EE287A 		vadd.f32	s15, s18, s17
 1496 0464 B6EE007A 		vmov.f32	s14, #5.0e-1
 1497 0468 3968     		ldr	r1, [r7]
 1498 046a 01F1010C 		add	ip, r1, #1
 1499 046e 03EB8103 		add	r3, r3, r1, lsl #2
 1500 0472 67EE877A 		vmul.f32	s15, s15, s14
 1501 0476 9CFBF0F1 		sdiv	r1, ip, r0
 1502 047a 00FB11C1 		mls	r1, r0, r1, ip
 1503 047e C3ED007A 		vstr.32	s15, [r3]
 1504 0482 3960     		str	r1, [r7]
 1505 0484 D0E5     		b	.L206
 1506              	.L274:
 1507 0486 76EEA66A 		vadd.f32	s13, s13, s13
 1508 048a 26EEA90A 		vmul.f32	s0, s13, s19
 1509 048e B5EE400A 		vcmp.f32	s0, #0
 1510 0492 F1EEC09A 		vsqrt.f32	s19, s0
 1511 0496 F1EE10FA 		vmrs	APSR_nzcv, FPSCR
 1512 049a 00F1BB80 		bmi	.L275
 1513 049e B0EE000A 		vmov.f32	s0, #2.0e+0
 1514 04a2 DFED787A 		vldr.32	s15, .L287+36
 1515 04a6 70EE666A 		vsub.f32	s13, s0, s13
 1516 04aa 66EEA76A 		vmul.f32	s13, s13, s15
 1517              	.L237:
 1518 04ae F5EE406A 		vcmp.f32	s13, #0
 1519 04b2 28EE298A 		vmul.f32	s16, s16, s19
 1520 04b6 F1EEE69A 		vsqrt.f32	s19, s13
 1521 04ba F1EE10FA 		vmrs	APSR_nzcv, FPSCR
 1522 04be 7FF5F1AE 		bpl	.L234
 1523 04c2 B0EE660A 		vmov.f32	s0, s13
 1524 04c6 FFF7FEFF 		bl	sqrtf
 1525 04ca EBE6     		b	.L234
 1526              	.L281:
 1527 04cc 012A     		cmp	r2, #1
 1528 04ce 7FF4ABAD 		bne	.L206
 1529 04d2 684F     		ldr	r7, .L287+20
 1530 04d4 B6EE007A 		vmov.f32	s14, #5.0e-1
 1531 04d8 6748     		ldr	r0, .L287+24
 1532 04da D7ED007A 		vldr.32	s15, [r7]
 1533 04de 0068     		ldr	r0, [r0]
 1534 04e0 FDEEE76A 		vcvt.s32.f32	s13, s15
 1535 04e4 654B     		ldr	r3, .L287+28
 1536 04e6 77EE877A 		vadd.f32	s15, s15, s14
 1537 04ea 07EE100A 		vmov	s14, r0	@ int
 1538 04ee 16EE901A 		vmov	r1, s13	@ int
 1539 04f2 F8EEC76A 		vcvt.f32.s32	s13, s14
 1540 04f6 C7ED007A 		vstr.32	s15, [r7]
 1541 04fa 03EB8101 		add	r1, r3, r1, lsl #2
 1542 04fe F4EEE67A 		vcmpe.f32	s15, s13
 1543 0502 91ED007A 		vldr.32	s14, [r1]
 1544 0506 F1EE10FA 		vmrs	APSR_nzcv, FPSCR
 1545 050a 36EE076A 		vadd.f32	s12, s12, s14
 1546 050e 3AEE07AA 		vadd.f32	s20, s20, s14
 1547 0512 A4DD     		ble	.L209
ARM GAS  /var/folders/lg/77ksxqjx0n7gwph6nqpzcmcw0000gn/T//ccn5JkAm.s 			page 27


 1548 0514 77EEE67A 		vsub.f32	s15, s15, s13
 1549 0518 C7ED007A 		vstr.32	s15, [r7]
 1550 051c 9FE7     		b	.L209
 1551              	.L211:
 1552 051e 5A4F     		ldr	r7, .L287+40
 1553 0520 D7F8C020 		ldr	r2, [r7, #192]
 1554 0524 002A     		cmp	r2, #0
 1555 0526 40F38480 		ble	.L245
 1556 052a 3B46     		mov	r3, r7
 1557 052c 07EB8201 		add	r1, r7, r2, lsl #2
 1558 0530 DFED567A 		vldr.32	s15, .L287+44
 1559              	.L214:
 1560 0534 B3EC017A 		vldmia.32	r3!, {s14}
 1561 0538 9942     		cmp	r1, r3
 1562 053a 77EE877A 		vadd.f32	s15, s15, s14
 1563 053e F9D1     		bne	.L214
 1564              	.L213:
 1565 0540 07EE102A 		vmov	s14, r2	@ int
 1566 0544 B8EEC77A 		vcvt.f32.s32	s14, s14
 1567 0548 87EE870A 		vdiv.f32	s0, s15, s14
 1568 054c B5EE400A 		vcmp.f32	s0, #0
 1569 0550 B1EEC08A 		vsqrt.f32	s16, s0
 1570 0554 F1EE10FA 		vmrs	APSR_nzcv, FPSCR
 1571 0558 7AD4     		bmi	.L282
 1572              	.L215:
 1573 055a 4B4B     		ldr	r3, .L287+40
 1574 055c 03F1C001 		add	r1, r3, #192
 1575              	.L216:
 1576 0560 0022     		movs	r2, #0
 1577 0562 43F8042B 		str	r2, [r3], #4	@ float
 1578 0566 8B42     		cmp	r3, r1
 1579 0568 FAD1     		bne	.L216
 1580 056a 494B     		ldr	r3, .L287+48
 1581 056c 0021     		movs	r1, #0
 1582 056e 1A68     		ldr	r2, [r3]
 1583 0570 484B     		ldr	r3, .L287+52
 1584 0572 C7F8C010 		str	r1, [r7, #192]
 1585 0576 83ED008A 		vstr.32	s16, [r3]
 1586 057a 6AE5     		b	.L212
 1587              	.L246:
 1588 057c B5EEC08A 		vcmpe.f32	s16, #0
 1589 0580 DFED426A 		vldr.32	s13, .L287+44
 1590 0584 F1EE10FA 		vmrs	APSR_nzcv, FPSCR
 1591 0588 7FF592AD 		bpl	.L283
 1592              	.L248:
 1593 058c DFED3F5A 		vldr.32	s11, .L287+44
 1594 0590 9FED3E7A 		vldr.32	s14, .L287+44
 1595 0594 F4EEE57A 		vcmpe.f32	s15, s11
 1596 0598 F1EE10FA 		vmrs	APSR_nzcv, FPSCR
 1597 059c 7FF598AD 		bpl	.L284
 1598              	.L222:
 1599 05a0 B5EEC08A 		vcmpe.f32	s16, #0
 1600 05a4 3C4B     		ldr	r3, .L287+56
 1601 05a6 C3ED106A 		vstr.32	s13, [r3, #64]
 1602 05aa F1EE10FA 		vmrs	APSR_nzcv, FPSCR
 1603 05ae 83ED117A 		vstr.32	s14, [r3, #68]
 1604 05b2 C3ED125A 		vstr.32	s11, [r3, #72]
ARM GAS  /var/folders/lg/77ksxqjx0n7gwph6nqpzcmcw0000gn/T//ccn5JkAm.s 			page 28


 1605 05b6 7FF5A1AD 		bpl	.L243
 1606 05ba F0EE656A 		vmov.f32	s13, s11
 1607 05be C3ED135A 		vstr.32	s11, [r3, #76]
 1608 05c2 C3ED145A 		vstr.32	s11, [r3, #80]
 1609 05c6 C3ED155A 		vstr.32	s11, [r3, #84]
 1610 05ca B7E5     		b	.L225
 1611              	.L227:
 1612 05cc F5EEC07A 		vcmpe.f32	s15, #0
 1613 05d0 F1EE10FA 		vmrs	APSR_nzcv, FPSCR
 1614 05d4 15D4     		bmi	.L240
 1615 05d6 F0EE475A 		vmov.f32	s11, s14
 1616 05da C4E5     		b	.L241
 1617              	.L255:
 1618 05dc DFED2B6A 		vldr.32	s13, .L287+44
 1619 05e0 ACE5     		b	.L225
 1620              	.L253:
 1621 05e2 F0EE476A 		vmov.f32	s13, s14
 1622 05e6 95E5     		b	.L224
 1623              	.L261:
 1624 05e8 9FED288A 		vldr.32	s16, .L287+44
 1625 05ec B0EE487A 		vmov.f32	s14, s16
 1626 05f0 D8E5     		b	.L231
 1627              	.L252:
 1628 05f2 9FED267A 		vldr.32	s14, .L287+44
 1629 05f6 F0EE476A 		vmov.f32	s13, s14
 1630 05fa 8BE5     		b	.L224
 1631              	.L262:
 1632 05fc B0EE478A 		vmov.f32	s16, s14
 1633 0600 D0E5     		b	.L231
 1634              	.L240:
 1635 0602 B0EE478A 		vmov.f32	s16, s14
 1636 0606 C3ED196A 		vstr.32	s13, [r3, #100]
 1637 060a 83ED1A7A 		vstr.32	s14, [r3, #104]
 1638 060e 83ED1B7A 		vstr.32	s14, [r3, #108]
 1639 0612 C7E5     		b	.L231
 1640              	.L275:
 1641 0614 FFF7FEFF 		bl	sqrtf
 1642 0618 F0EE007A 		vmov.f32	s15, #2.0e+0
 1643 061c 96ED007A 		vldr.32	s14, [r6]
 1644 0620 DFED186A 		vldr.32	s13, .L287+36
 1645 0624 E7EE677A 		vfms.f32	s15, s14, s15
 1646 0628 99ED008A 		vldr.32	s16, [r9]
 1647 062c 67EEA66A 		vmul.f32	s13, s15, s13
 1648 0630 3DE7     		b	.L237
 1649              	.L245:
 1650 0632 DFED167A 		vldr.32	s15, .L287+44
 1651 0636 83E7     		b	.L213
 1652              	.L280:
 1653 0638 FFF7FEFF 		bl	sqrtf
 1654 063c 5EE6     		b	.L239
 1655              	.L279:
 1656 063e B0EE470A 		vmov.f32	s0, s14
 1657 0642 FFF7FEFF 		bl	sqrtf
 1658 0646 96ED000A 		vldr.32	s0, [r6]
 1659 064a 70EE007A 		vadd.f32	s15, s0, s0
 1660 064e 41E6     		b	.L238
 1661              	.L282:
ARM GAS  /var/folders/lg/77ksxqjx0n7gwph6nqpzcmcw0000gn/T//ccn5JkAm.s 			page 29


 1662 0650 8DED036A 		vstr.32	s12, [sp, #12]	@ int
 1663 0654 FFF7FEFF 		bl	sqrtf
 1664 0658 9DED036A 		vldr.32	s12, [sp, #12]	@ int
 1665 065c 7DE7     		b	.L215
 1666              	.L288:
 1667 065e 00BF     		.align	2
 1668              	.L287:
 1669 0660 00000000 		.word	.LANCHOR11
 1670 0664 00000000 		.word	.LANCHOR5
 1671 0668 00000000 		.word	.LANCHOR6
 1672 066c 00000000 		.word	mlooper_buf_1l
 1673 0670 00000000 		.word	mlooper_buf_1r
 1674 0674 00000000 		.word	.LANCHOR12
 1675 0678 00000000 		.word	.LANCHOR8
 1676 067c 00000000 		.word	mlooper_frozen_buf_1l
 1677 0680 00000000 		.word	.LANCHOR7
 1678 0684 3333733F 		.word	1064514355
 1679 0688 00000000 		.word	.LANCHOR15
 1680 068c 00000000 		.word	0
 1681 0690 00000000 		.word	.LANCHOR9
 1682 0694 00000000 		.word	.LANCHOR14
 1683 0698 00000000 		.word	.LANCHOR18
 1684 069c 00000000 		.word	.LANCHOR10
 1685 06a0 00000000 		.word	.LANCHOR3
 1686 06a4 00000000 		.word	.LANCHOR4
 1688              		.section	.text._Z18GetResonatorSampleRfS_ff,"ax",%progbits
 1689              		.align	1
 1690              		.p2align 2,,3
 1691              		.global	_Z18GetResonatorSampleRfS_ff
 1692              		.syntax unified
 1693              		.thumb
 1694              		.thumb_func
 1695              		.fpu fpv5-d16
 1697              	_Z18GetResonatorSampleRfS_ff:
 1698              		@ args = 0, pretend = 0, frame = 16
 1699              		@ frame_needed = 0, uses_anonymous_args = 0
 1700 0000 EB4B     		ldr	r3, .L340+16
 1701 0002 B2EE087A 		vmov.f32	s14, #1.2e+1
 1702 0006 DFEDEB6A 		vldr.32	s13, .L340+20
 1703 000a D3ED007A 		vldr.32	s15, [r3]
 1704 000e EA4B     		ldr	r3, .L340+24
 1705 0010 77EEE67A 		vsub.f32	s15, s15, s13
 1706 0014 2DE9F04F 		push	{r4, r5, r6, r7, r8, r9, r10, fp, lr}
 1707 0018 2DED088B 		vpush.64	{d8, d9, d10, d11}
 1708 001c 85B0     		sub	sp, sp, #20
 1709 001e B0EE409A 		vmov.f32	s18, s0
 1710 0022 F0EE608A 		vmov.f32	s17, s1
 1711 0026 93ED008A 		vldr.32	s16, [r3]
 1712 002a C7EE870A 		vdiv.f32	s1, s15, s14
 1713 002e 0E46     		mov	r6, r1
 1714 0030 0090     		str	r0, [sp]
 1715 0032 E24F     		ldr	r7, .L340+28
 1716 0034 E24C     		ldr	r4, .L340+32
 1717 0036 E34D     		ldr	r5, .L340+36
 1718 0038 B0EE000A 		vmov.f32	s0, #2.0e+0
 1719 003c FFF7FEFF 		bl	powf
 1720 0040 DFEDE17A 		vldr.32	s15, .L340+40
ARM GAS  /var/folders/lg/77ksxqjx0n7gwph6nqpzcmcw0000gn/T//ccn5JkAm.s 			page 30


 1721 0044 E14B     		ldr	r3, .L340+44
 1722 0046 B3EE096A 		vmov.f32	s12, #2.5e+1
 1723 004a 20EE270A 		vmul.f32	s0, s0, s15
 1724 004e E04A     		ldr	r2, .L340+48
 1725 0050 F7EE007A 		vmov.f32	s15, #1.0e+0
 1726 0054 93ED005A 		vldr.32	s10, [r3]
 1727 0058 92ED007A 		vldr.32	s14, [r2]	@ int
 1728 005c C8EE005A 		vdiv.f32	s11, s16, s0
 1729 0060 D7ED006A 		vldr.32	s13, [r7]
 1730 0064 DB48     		ldr	r0, .L340+52
 1731 0066 DC49     		ldr	r1, .L340+56
 1732 0068 0268     		ldr	r2, [r0]
 1733 006a DFF8B0E3 		ldr	lr, .L340+124
 1734 006e F0EE674A 		vmov.f32	s9, s15
 1735 0072 0132     		adds	r2, r2, #1
 1736 0074 B8EEC77A 		vcvt.f32.s32	s14, s14
 1737 0078 81FB0231 		smull	r3, r1, r1, r2
 1738 007c D317     		asrs	r3, r2, #31
 1739 007e E5EE064A 		vfma.f32	s9, s10, s12
 1740 0082 C3EBE103 		rsb	r3, r3, r1, asr #3
 1741 0086 03EB4303 		add	r3, r3, r3, lsl #1
 1742 008a A2EB0313 		sub	r3, r2, r3, lsl #4
 1743 008e 87EEA46A 		vdiv.f32	s12, s15, s9
 1744 0092 0360     		str	r3, [r0]
 1745 0094 C5EE877A 		vdiv.f32	s15, s11, s14
 1746 0098 77EEE67A 		vsub.f32	s15, s15, s13
 1747 009c E6EE276A 		vfma.f32	s13, s12, s15
 1748 00a0 FDEEE67A 		vcvt.s32.f32	s15, s13
 1749 00a4 C7ED006A 		vstr.32	s13, [r7]
 1750 00a8 17EE902A 		vmov	r2, s15	@ int
 1751 00ac B8EEE77A 		vcvt.f32.s32	s14, s15
 1752 00b0 7245     		cmp	r2, lr
 1753 00b2 76EEC76A 		vsub.f32	s13, s13, s14
 1754 00b6 28BF     		it	cs
 1755 00b8 7246     		movcs	r2, lr
 1756 00ba C4ED006A 		vstr.32	s13, [r4]
 1757 00be A260     		str	r2, [r4, #8]
 1758 00c0 AA60     		str	r2, [r5, #8]
 1759 00c2 C5ED006A 		vstr.32	s13, [r5]
 1760 00c6 002B     		cmp	r3, #0
 1761 00c8 00F09C82 		beq	.L290
 1762 00cc 9646     		mov	lr, r2
 1763 00ce C34A     		ldr	r2, .L340+60
 1764 00d0 C34B     		ldr	r3, .L340+64
 1765 00d2 7746     		mov	r7, lr
 1766 00d4 92ED008A 		vldr.32	s16, [r2]
 1767              	.L291:
 1768 00d8 C24A     		ldr	r2, .L340+68
 1769 00da DFEDC35A 		vldr.32	s11, .L340+72
 1770 00de 92ED007A 		vldr.32	s14, [r2]
 1771 00e2 C249     		ldr	r1, .L340+76
 1772 00e4 38EE475A 		vsub.f32	s10, s16, s14
 1773 00e8 9FEDC16A 		vldr.32	s12, .L340+80
 1774 00ec D1ED007A 		vldr.32	s15, [r1]
 1775 00f0 A5EE257A 		vfma.f32	s14, s10, s11
 1776 00f4 38EE678A 		vsub.f32	s16, s16, s15
 1777 00f8 E8EE067A 		vfma.f32	s15, s16, s12
ARM GAS  /var/folders/lg/77ksxqjx0n7gwph6nqpzcmcw0000gn/T//ccn5JkAm.s 			page 31


 1778 00fc B5EEC07A 		vcmpe.f32	s14, #0
 1779 0100 82ED007A 		vstr.32	s14, [r2]
 1780 0104 F1EE10FA 		vmrs	APSR_nzcv, FPSCR
 1781 0108 C1ED007A 		vstr.32	s15, [r1]
 1782 010c 00F17582 		bmi	.L321
 1783 0110 B7EE006A 		vmov.f32	s12, #1.0e+0
 1784 0114 9FEDB75A 		vldr.32	s10, .L340+84
 1785 0118 B4EEC67A 		vcmpe.f32	s14, s12
 1786 011c F1EE10FA 		vmrs	APSR_nzcv, FPSCR
 1787 0120 B4EEC57A 		vcmpe.f32	s14, s10
 1788 0124 36FE076A 		vselgt.f32	s12, s12, s14
 1789 0128 F1EE10FA 		vmrs	APSR_nzcv, FPSCR
 1790 012c D4BF     		ite	le
 1791 012e 26EE075A 		vmulle.f32	s10, s12, s14
 1792 0132 26EE055A 		vmulgt.f32	s10, s12, s10
 1793              	.L296:
 1794 0136 B049     		ldr	r1, .L340+88
 1795 0138 B2EE044A 		vmov.f32	s8, #1.0e+1
 1796 013c AF48     		ldr	r0, .L340+92
 1797 013e D1ED005A 		vldr.32	s11, [r1]	@ int
 1798 0142 80ED106A 		vstr.32	s12, [r0, #64]
 1799 0146 F8EEE55A 		vcvt.f32.s32	s11, s11
 1800 014a DFEDAD4A 		vldr.32	s9, .L340+96
 1801 014e 80ED115A 		vstr.32	s10, [r0, #68]
 1802 0152 F4EEE47A 		vcmpe.f32	s15, s9
 1803 0156 85EE846A 		vdiv.f32	s12, s11, s8
 1804 015a F1EE10FA 		vmrs	APSR_nzcv, FPSCR
 1805 015e 80ED126A 		vstr.32	s12, [r0, #72]
 1806 0162 00F13382 		bmi	.L300
 1807 0166 F7EE005A 		vmov.f32	s11, #1.0e+0
 1808 016a 9FEDA25A 		vldr.32	s10, .L340+84
 1809 016e 80ED156A 		vstr.32	s12, [r0, #84]
 1810 0172 F4EEE57A 		vcmpe.f32	s15, s11
 1811 0176 F1EE10FA 		vmrs	APSR_nzcv, FPSCR
 1812 017a F4EEC57A 		vcmpe.f32	s15, s10
 1813 017e 75FEA75A 		vselgt.f32	s11, s11, s15
 1814 0182 C0ED135A 		vstr.32	s11, [r0, #76]
 1815 0186 F1EE10FA 		vmrs	APSR_nzcv, FPSCR
 1816 018a B5EEC07A 		vcmpe.f32	s14, #0
 1817 018e D4BF     		ite	le
 1818 0190 25EEA75A 		vmulle.f32	s10, s11, s15
 1819 0194 25EE855A 		vmulgt.f32	s10, s11, s10
 1820 0198 F1EE10FA 		vmrs	APSR_nzcv, FPSCR
 1821 019c 80ED145A 		vstr.32	s10, [r0, #80]
 1822 01a0 00F1D381 		bmi	.L324
 1823              	.L319:
 1824 01a4 F7EE005A 		vmov.f32	s11, #1.0e+0
 1825 01a8 9FED925A 		vldr.32	s10, .L340+84
 1826 01ac B4EEE57A 		vcmpe.f32	s14, s11
 1827 01b0 F1EE10FA 		vmrs	APSR_nzcv, FPSCR
 1828 01b4 B4EEC57A 		vcmpe.f32	s14, s10
 1829 01b8 75FE875A 		vselgt.f32	s11, s11, s14
 1830 01bc F1EE10FA 		vmrs	APSR_nzcv, FPSCR
 1831 01c0 D4BF     		ite	le
 1832 01c2 25EE877A 		vmulle.f32	s14, s11, s14
 1833 01c6 25EE857A 		vmulgt.f32	s14, s11, s10
 1834              	.L305:
ARM GAS  /var/folders/lg/77ksxqjx0n7gwph6nqpzcmcw0000gn/T//ccn5JkAm.s 			page 32


 1835 01ca F5EEC07A 		vcmpe.f32	s15, #0
 1836 01ce C0ED195A 		vstr.32	s11, [r0, #100]
 1837 01d2 80ED1A7A 		vstr.32	s14, [r0, #104]
 1838 01d6 80ED1B6A 		vstr.32	s12, [r0, #108]
 1839 01da F1EE10FA 		vmrs	APSR_nzcv, FPSCR
 1840 01de 00F14282 		bmi	.L326
 1841 01e2 B7EE007A 		vmov.f32	s14, #1.0e+0
 1842 01e6 DFED835A 		vldr.32	s11, .L340+84
 1843 01ea F4EEC77A 		vcmpe.f32	s15, s14
 1844 01ee F1EE10FA 		vmrs	APSR_nzcv, FPSCR
 1845 01f2 F4EEE57A 		vcmpe.f32	s15, s11
 1846 01f6 37FE277A 		vselgt.f32	s14, s14, s15
 1847 01fa F1EE10FA 		vmrs	APSR_nzcv, FPSCR
 1848 01fe D4BF     		ite	le
 1849 0200 67EE277A 		vmulle.f32	s15, s14, s15
 1850 0204 67EE257A 		vmulgt.f32	s15, s14, s11
 1851              	.L309:
 1852 0208 0193     		str	r3, [sp, #4]
 1853 020a B7EE008A 		vmov.f32	s16, #1.0e+0
 1854 020e 6B68     		ldr	r3, [r5, #4]
 1855 0210 DFF80CC2 		ldr	ip, .L340+128
 1856 0214 1F44     		add	r7, r7, r3
 1857 0216 DFF80C82 		ldr	r8, .L340+132
 1858 021a 80ED186A 		vstr.32	s12, [r0, #96]
 1859 021e 07F1010A 		add	r10, r7, #1
 1860 0222 ACFB073B 		umull	r3, fp, ip, r7
 1861 0226 80ED167A 		vstr.32	s14, [r0, #88]
 1862 022a ACFB0A39 		umull	r3, r9, ip, r10
 1863 022e 4FEADB3B 		lsr	fp, fp, #15
 1864 0232 C0ED177A 		vstr.32	s15, [r0, #92]
 1865 0236 4FEAD939 		lsr	r9, r9, #15
 1866 023a 08FB1B77 		mls	r7, r8, fp, r7
 1867 023e 6068     		ldr	r0, [r4, #4]
 1868 0240 08FB19AA 		mls	r10, r8, r9, r10
 1869 0244 05EB8707 		add	r7, r5, r7, lsl #2
 1870 0248 7044     		add	r0, r0, lr
 1871 024a 0099     		ldr	r1, [sp]
 1872 024c 05EB8A0A 		add	r10, r5, r10, lsl #2
 1873 0250 D7ED037A 		vldr.32	s15, [r7, #12]
 1874 0254 471C     		adds	r7, r0, #1
 1875 0256 ACFB003E 		umull	r3, lr, ip, r0
 1876 025a 9AED037A 		vldr.32	s14, [r10, #12]
 1877 025e ACFB073C 		umull	r3, ip, ip, r7
 1878 0262 4FEADE3E 		lsr	lr, lr, #15
 1879 0266 37EE677A 		vsub.f32	s14, s14, s15
 1880 026a DFF8BCA1 		ldr	r10, .L340+136
 1881 026e 4FEADC3C 		lsr	ip, ip, #15
 1882 0272 08FB1E0E 		mls	lr, r8, lr, r0
 1883 0276 6348     		ldr	r0, .L340+100
 1884 0278 E7EE267A 		vfma.f32	s15, s14, s13
 1885 027c 08FB1C78 		mls	r8, r8, ip, r7
 1886 0280 04EB8E0E 		add	lr, r4, lr, lsl #2
 1887 0284 DFF8A4B1 		ldr	fp, .L340+140
 1888 0288 04EB880C 		add	ip, r4, r8, lsl #2
 1889 028c DFF8A091 		ldr	r9, .L340+144
 1890 0290 DFF8A081 		ldr	r8, .L340+148
 1891 0294 5C4F     		ldr	r7, .L340+104
ARM GAS  /var/folders/lg/77ksxqjx0n7gwph6nqpzcmcw0000gn/T//ccn5JkAm.s 			page 33


 1892 0296 C1ED007A 		vstr.32	s15, [r1]
 1893 029a DEED037A 		vldr.32	s15, [lr, #12]
 1894 029e 9CED037A 		vldr.32	s14, [ip, #12]
 1895 02a2 D4ED006A 		vldr.32	s13, [r4]
 1896 02a6 37EE677A 		vsub.f32	s14, s14, s15
 1897 02aa E7EE267A 		vfma.f32	s15, s14, s13
 1898 02ae C6ED007A 		vstr.32	s15, [r6]
 1899 02b2 FFF7FEFF 		bl	_ZN7daisysp4Tone7ProcessERf
 1900 02b6 5046     		mov	r0, r10
 1901 02b8 FFF7FEFF 		bl	_ZN7daisysp3Svf7ProcessEf
 1902 02bc 3146     		mov	r1, r6
 1903 02be 5348     		ldr	r0, .L340+108
 1904 02c0 FFF7FEFF 		bl	_ZN7daisysp4Tone7ProcessERf
 1905 02c4 5846     		mov	r0, fp
 1906 02c6 FFF7FEFF 		bl	_ZN7daisysp3Svf7ProcessEf
 1907 02ca 99ED003A 		vldr.32	s6, [r9]
 1908 02ce 98ED005A 		vldr.32	s10, [r8]
 1909 02d2 B7EEE84A 		vcvt.f64.f32	d4, s17
 1910 02d6 9FED467A 		vldr.32	s14, .L340+80
 1911 02da B7EEC90A 		vcvt.f64.f32	d0, s18
 1912 02de DFED4C5A 		vldr.32	s11, .L340+112
 1913 02e2 03A9     		add	r1, sp, #12
 1914 02e4 23EE076A 		vmul.f32	s12, s6, s14
 1915 02e8 D7ED009A 		vldr.32	s19, [r7]
 1916 02ec 25EE077A 		vmul.f32	s14, s10, s14
 1917 02f0 DBED0C8A 		vldr.32	s17, [fp, #48]
 1918 02f4 23EE253A 		vmul.f32	s6, s6, s11
 1919 02f8 02A8     		add	r0, sp, #8
 1920 02fa B7EEC66A 		vcvt.f64.f32	d6, s12
 1921 02fe 9AED0C9A 		vldr.32	s18, [r10, #48]
 1922 0302 B7EEC77A 		vcvt.f64.f32	d7, s14
 1923 0306 25EE255A 		vmul.f32	s10, s10, s11
 1924 030a B7EEC33A 		vcvt.f64.f32	d3, s6
 1925 030e 9FED242B 		vldr.64	d2, .L340
 1926 0312 9FED251B 		vldr.64	d1, .L340+8
 1927 0316 B7EEC55A 		vcvt.f64.f32	d5, s10
 1928 031a A4EE027B 		vfma.f64	d7, d4, d2
 1929 031e A0EE026B 		vfma.f64	d6, d0, d2
 1930 0322 A4EE015B 		vfma.f64	d5, d4, d1
 1931 0326 B0EE472B 		vmov.f64	d2, d7
 1932 032a 78EE697A 		vsub.f32	s15, s16, s19
 1933 032e A0EE013B 		vfma.f64	d3, d0, d1
 1934 0332 B7EEE77A 		vcvt.f64.f32	d7, s15
 1935 0336 B7EEE94A 		vcvt.f64.f32	d4, s19
 1936 033a DFED369A 		vldr.32	s19, .L340+116
 1937 033e 26EE076B 		vmul.f64	d6, d6, d7
 1938 0342 27EE027B 		vmul.f64	d7, d7, d2
 1939 0346 A3EE046B 		vfma.f64	d6, d3, d4
 1940 034a A4EE057B 		vfma.f64	d7, d4, d5
 1941 034e B7EEC60B 		vcvt.f32.f64	s0, d6
 1942 0352 F7EEC70B 		vcvt.f32.f64	s1, d7
 1943 0356 FFF7FEFF 		bl	_Z15GetReverbSampleRfS_ff
 1944 035a 68EEA87A 		vmul.f32	s15, s17, s17
 1945 035e 2E4A     		ldr	r2, .L340+120
 1946 0360 F6EE006A 		vmov.f32	s13, #5.0e-1
 1947 0364 019B     		ldr	r3, [sp, #4]
 1948 0366 B7EEC90A 		vcvt.f64.f32	d0, s18
ARM GAS  /var/folders/lg/77ksxqjx0n7gwph6nqpzcmcw0000gn/T//ccn5JkAm.s 			page 34


 1949 036a E9EE097A 		vfma.f32	s15, s18, s18
 1950 036e 92ED007A 		vldr.32	s14, [r2]
 1951 0372 97ED006A 		vldr.32	s12, [r7]
 1952 0376 B5EEC07A 		vcmpe.f32	s14, #0
 1953 037a D3F8C010 		ldr	r1, [r3, #192]
 1954 037e 38EE466A 		vsub.f32	s12, s16, s12
 1955 0382 184A     		ldr	r2, .L340+68
 1956 0384 03EB8100 		add	r0, r3, r1, lsl #2
 1957 0388 9DED025A 		vldr.32	s10, [sp, #8]
 1958 038c F1EE10FA 		vmrs	APSR_nzcv, FPSCR
 1959 0390 01F10101 		add	r1, r1, #1
 1960 0394 67EEA67A 		vmul.f32	s15, s15, s13
 1961 0398 4EE0     		b	.L341
 1962              	.L342:
 1963 039a 00BFAFF3 		.align	3
 1963      0080
 1964              	.L340:
 1965 03a0 2B8716D9 		.word	3642132267
 1966 03a4 CEF7EF3F 		.word	1072691150
 1967 03a8 7B14AE47 		.word	1202590843
 1968 03ac E17A843F 		.word	1065646817
 1969 03b0 00000000 		.word	.LANCHOR27
 1970 03b4 00008A42 		.word	1116340224
 1971 03b8 00000000 		.word	.LANCHOR26
 1972 03bc 00000000 		.word	.LANCHOR29
 1973 03c0 0020BF02 		.word	_ZL4delr
 1974 03c4 0C73C602 		.word	_ZL4dell
 1975 03c8 0000DC43 		.word	1138491392
 1976 03cc 00000000 		.word	.LANCHOR28
 1977 03d0 00000000 		.word	.LANCHOR2
 1978 03d4 00000000 		.word	.LANCHOR30
 1979 03d8 ABAAAA2A 		.word	715827883
 1980 03dc 00000000 		.word	.LANCHOR31
 1981 03e0 00000000 		.word	.LANCHOR32
 1982 03e4 00000000 		.word	.LANCHOR33
 1983 03e8 17B7D138 		.word	953267991
 1984 03ec 00000000 		.word	.LANCHOR34
 1985 03f0 6F12833A 		.word	981668463
 1986 03f4 CDCCCC3D 		.word	1036831949
 1987 03f8 00000000 		.word	.LANCHOR35
 1988 03fc 00000000 		.word	.LANCHOR18
 1989 0400 00000000 		.word	0
 1990 0404 00000000 		.word	.LANCHOR36
 1991 0408 00000000 		.word	.LANCHOR41
 1992 040c 00000000 		.word	.LANCHOR38
 1993 0410 3333333F 		.word	1060320051
 1994 0414 9A99593F 		.word	1062836634
 1995 0418 00000000 		.word	.LANCHOR43
 1996 041c BFD40100 		.word	119999
 1997 0420 73B2E745 		.word	1172812403
 1998 0424 C0D40100 		.word	120000
 1999 0428 00000000 		.word	.LANCHOR37
 2000 042c 00000000 		.word	.LANCHOR39
 2001 0430 00000000 		.word	.LANCHOR40
 2002 0434 00000000 		.word	.LANCHOR42
 2003              	.L341:
 2004 0438 B7EEC55A 		vcvt.f64.f32	d5, s10
ARM GAS  /var/folders/lg/77ksxqjx0n7gwph6nqpzcmcw0000gn/T//ccn5JkAm.s 			page 35


 2005 043c C3F8C010 		str	r1, [r3, #192]
 2006 0440 26EE296A 		vmul.f32	s12, s12, s19
 2007 0444 C0ED007A 		vstr.32	s15, [r0]
 2008 0448 D2ED007A 		vldr.32	s15, [r2]
 2009 044c 8E48     		ldr	r0, .L343+8
 2010 044e 40F38180 		ble	.L336
 2011 0452 B7EEC66A 		vcvt.f64.f32	d6, s12
 2012 0456 A7EEE97A 		vfms.f32	s14, s15, s19
 2013 045a 9FED89AB 		vldr.64	d10, .L343
 2014 045e 36EE0A6B 		vadd.f64	d6, d6, d10
 2015 0462 B7EEC77A 		vcvt.f64.f32	d7, s14
 2016 0466 A5EE060B 		vfma.f64	d0, d5, d6
 2017 046a 27EE000B 		vmul.f64	d0, d7, d0
 2018 046e B7EEC00B 		vcvt.f32.f64	s0, d0
 2019 0472 FFF7FEFF 		bl	_ZN7daisysp7DcBlock7ProcessEf
 2020 0476 D7ED007A 		vldr.32	s15, [r7]
 2021 047a 844A     		ldr	r2, .L343+12
 2022 047c B7EEE85A 		vcvt.f64.f32	d5, s17
 2023 0480 38EE677A 		vsub.f32	s14, s16, s15
 2024 0484 9DED034A 		vldr.32	s8, [sp, #12]
 2025 0488 D2ED007A 		vldr.32	s15, [r2]
 2026 048c B0EE40BA 		vmov.f32	s22, s0
 2027 0490 7F4A     		ldr	r2, .L343+16
 2028 0492 B7EEC44A 		vcvt.f64.f32	d4, s8
 2029 0496 27EE297A 		vmul.f32	s14, s14, s19
 2030 049a 7E48     		ldr	r0, .L343+20
 2031 049c 92ED006A 		vldr.32	s12, [r2]
 2032 04a0 A7EEE96A 		vfms.f32	s12, s15, s19
 2033 04a4 B7EEC77A 		vcvt.f64.f32	d7, s14
 2034 04a8 37EE0A7B 		vadd.f64	d7, d7, d10
 2035 04ac B7EEC66A 		vcvt.f64.f32	d6, s12
 2036 04b0 A4EE075B 		vfma.f64	d5, d4, d7
 2037 04b4 26EE056B 		vmul.f64	d6, d6, d5
 2038 04b8 B7EEC60B 		vcvt.f32.f64	s0, d6
 2039 04bc FFF7FEFF 		bl	_ZN7daisysp7DcBlock7ProcessEf
 2040 04c0 F0EE407A 		vmov.f32	s15, s0
 2041              	.L315:
 2042 04c4 9FED747A 		vldr.32	s14, .L343+24
 2043 04c8 D7ED006A 		vldr.32	s13, [r7]
 2044 04cc F4EEC76A 		vcmpe.f32	s13, s14
 2045 04d0 F1EE10FA 		vmrs	APSR_nzcv, FPSCR
 2046 04d4 02DD     		ble	.L316
 2047 04d6 4FF07E53 		mov	r3, #1065353216
 2048 04da 3B60     		str	r3, [r7]	@ float
 2049              	.L316:
 2050 04dc 6A68     		ldr	r2, [r5, #4]
 2051 04de 6068     		ldr	r0, [r4, #4]
 2052 04e0 6E49     		ldr	r1, .L343+28
 2053 04e2 05EB8207 		add	r7, r5, r2, lsl #2
 2054 04e6 6E4B     		ldr	r3, .L343+32
 2055 04e8 02EB010E 		add	lr, r2, r1
 2056 04ec 0144     		add	r1, r1, r0
 2057 04ee DFF8C4C1 		ldr	ip, .L343+52
 2058 04f2 04EB8000 		add	r0, r4, r0, lsl #2
 2059 04f6 A3FB0EA2 		umull	r10, r2, r3, lr
 2060 04fa 9FED6A5A 		vldr.32	s10, .L343+36
 2061 04fe A3FB01A3 		umull	r10, r3, r3, r1
ARM GAS  /var/folders/lg/77ksxqjx0n7gwph6nqpzcmcw0000gn/T//ccn5JkAm.s 			page 36


 2062 0502 D20B     		lsrs	r2, r2, #15
 2063 0504 29EE050A 		vmul.f32	s0, s18, s10
 2064 0508 DB0B     		lsrs	r3, r3, #15
 2065 050a C0ED037A 		vstr.32	s15, [r0, #12]
 2066 050e 0CFB12E2 		mls	r2, ip, r2, lr
 2067 0512 0CFB1313 		mls	r3, ip, r3, r1
 2068 0516 6A60     		str	r2, [r5, #4]
 2069 0518 6360     		str	r3, [r4, #4]
 2070 051a 89ED009A 		vstr.32	s18, [r9]
 2071 051e C8ED008A 		vstr.32	s17, [r8]
 2072 0522 87ED03BA 		vstr.32	s22, [r7, #12]
 2073 0526 FFF7FEFF 		bl	_Z14CompressSamplef
 2074 052a F0EE407A 		vmov.f32	s15, s0
 2075 052e 009B     		ldr	r3, [sp]
 2076 0530 28EE850A 		vmul.f32	s0, s17, s10
 2077 0534 C3ED007A 		vstr.32	s15, [r3]
 2078 0538 FFF7FEFF 		bl	_Z14CompressSamplef
 2079 053c 86ED000A 		vstr.32	s0, [r6]
 2080 0540 05B0     		add	sp, sp, #20
 2081              		@ sp needed
 2082 0542 BDEC088B 		vldm	sp!, {d8-d11}
 2083 0546 BDE8F08F 		pop	{r4, r5, r6, r7, r8, r9, r10, fp, pc}
 2084              	.L324:
 2085 054a 9FED577A 		vldr.32	s14, .L343+40
 2086 054e F0EE475A 		vmov.f32	s11, s14
 2087 0552 3AE6     		b	.L305
 2088              	.L336:
 2089 0554 9FED4AAB 		vldr.64	d10, .L343
 2090 0558 B7EEC66A 		vcvt.f64.f32	d6, s12
 2091 055c A7EEA97A 		vfma.f32	s14, s15, s19
 2092 0560 36EE0A6B 		vadd.f64	d6, d6, d10
 2093 0564 A5EE060B 		vfma.f64	d0, d5, d6
 2094 0568 B7EEC77A 		vcvt.f64.f32	d7, s14
 2095 056c 27EE000B 		vmul.f64	d0, d7, d0
 2096 0570 B7EEC00B 		vcvt.f32.f64	s0, d0
 2097 0574 FFF7FEFF 		bl	_ZN7daisysp7DcBlock7ProcessEf
 2098 0578 97ED007A 		vldr.32	s14, [r7]
 2099 057c 434A     		ldr	r2, .L343+12
 2100 057e B7EEE85A 		vcvt.f64.f32	d5, s17
 2101 0582 38EE477A 		vsub.f32	s14, s16, s14
 2102 0586 424B     		ldr	r3, .L343+16
 2103 0588 D2ED007A 		vldr.32	s15, [r2]
 2104 058c B0EE40BA 		vmov.f32	s22, s0
 2105 0590 93ED006A 		vldr.32	s12, [r3]
 2106 0594 B0EE450B 		vmov.f64	d0, d5
 2107 0598 27EE297A 		vmul.f32	s14, s14, s19
 2108 059c 9DED034A 		vldr.32	s8, [sp, #12]
 2109 05a0 A7EEA96A 		vfma.f32	s12, s15, s19
 2110 05a4 3B48     		ldr	r0, .L343+20
 2111 05a6 B7EEC44A 		vcvt.f64.f32	d4, s8
 2112 05aa B7EEC77A 		vcvt.f64.f32	d7, s14
 2113 05ae 37EE0A7B 		vadd.f64	d7, d7, d10
 2114 05b2 B7EEC66A 		vcvt.f64.f32	d6, s12
 2115 05b6 A4EE070B 		vfma.f64	d0, d4, d7
 2116 05ba 26EE000B 		vmul.f64	d0, d6, d0
 2117 05be B7EEC00B 		vcvt.f32.f64	s0, d0
 2118 05c2 FFF7FEFF 		bl	_ZN7daisysp7DcBlock7ProcessEf
ARM GAS  /var/folders/lg/77ksxqjx0n7gwph6nqpzcmcw0000gn/T//ccn5JkAm.s 			page 37


 2119 05c6 F0EE407A 		vmov.f32	s15, s0
 2120 05ca 7BE7     		b	.L315
 2121              	.L300:
 2122 05cc B5EEC07A 		vcmpe.f32	s14, #0
 2123 05d0 C0ED134A 		vstr.32	s9, [r0, #76]
 2124 05d4 C0ED144A 		vstr.32	s9, [r0, #80]
 2125 05d8 80ED156A 		vstr.32	s12, [r0, #84]
 2126 05dc F1EE10FA 		vmrs	APSR_nzcv, FPSCR
 2127 05e0 7FF5E0AD 		bpl	.L319
 2128 05e4 F0EE647A 		vmov.f32	s15, s9
 2129 05e8 C0ED194A 		vstr.32	s9, [r0, #100]
 2130 05ec B0EE647A 		vmov.f32	s14, s9
 2131 05f0 C0ED1A4A 		vstr.32	s9, [r0, #104]
 2132 05f4 80ED1B6A 		vstr.32	s12, [r0, #108]
 2133 05f8 06E6     		b	.L309
 2134              	.L321:
 2135 05fa 9FED2B5A 		vldr.32	s10, .L343+40
 2136 05fe B0EE456A 		vmov.f32	s12, s10
 2137 0602 98E5     		b	.L296
 2138              	.L290:
 2139 0604 294B     		ldr	r3, .L343+44
 2140 0606 D3F8C010 		ldr	r1, [r3, #192]
 2141 060a 0029     		cmp	r1, #0
 2142 060c 30DD     		ble	.L320
 2143 060e 1A46     		mov	r2, r3
 2144 0610 03EB8100 		add	r0, r3, r1, lsl #2
 2145 0614 DFED247A 		vldr.32	s15, .L343+40
 2146              	.L293:
 2147 0618 B2EC017A 		vldmia.32	r2!, {s14}
 2148 061c 9042     		cmp	r0, r2
 2149 061e 77EE877A 		vadd.f32	s15, s15, s14
 2150 0622 F9D1     		bne	.L293
 2151              	.L292:
 2152 0624 07EE101A 		vmov	s14, r1	@ int
 2153 0628 B8EEC77A 		vcvt.f32.s32	s14, s14
 2154 062c 87EE870A 		vdiv.f32	s0, s15, s14
 2155 0630 B5EE400A 		vcmp.f32	s0, #0
 2156 0634 B1EEC08A 		vsqrt.f32	s16, s0
 2157 0638 F1EE10FA 		vmrs	APSR_nzcv, FPSCR
 2158 063c 1BD4     		bmi	.L339
 2159              	.L294:
 2160 063e 1B4A     		ldr	r2, .L343+44
 2161 0640 02F1C000 		add	r0, r2, #192
 2162              	.L295:
 2163 0644 0021     		movs	r1, #0
 2164 0646 42F8041B 		str	r1, [r2], #4	@ float
 2165 064a 9042     		cmp	r0, r2
 2166 064c FAD1     		bne	.L295
 2167 064e 0021     		movs	r1, #0
 2168 0650 174A     		ldr	r2, .L343+48
 2169 0652 D5ED006A 		vldr.32	s13, [r5]
 2170 0656 D4F808E0 		ldr	lr, [r4, #8]
 2171 065a AF68     		ldr	r7, [r5, #8]
 2172 065c C3F8C010 		str	r1, [r3, #192]
 2173 0660 82ED008A 		vstr.32	s16, [r2]
 2174 0664 38E5     		b	.L291
 2175              	.L326:
ARM GAS  /var/folders/lg/77ksxqjx0n7gwph6nqpzcmcw0000gn/T//ccn5JkAm.s 			page 38


 2176 0666 DFED107A 		vldr.32	s15, .L343+40
 2177 066a B0EE677A 		vmov.f32	s14, s15
 2178 066e CBE5     		b	.L309
 2179              	.L320:
 2180 0670 DFED0D7A 		vldr.32	s15, .L343+40
 2181 0674 D6E7     		b	.L292
 2182              	.L339:
 2183 0676 0193     		str	r3, [sp, #4]
 2184 0678 FFF7FEFF 		bl	sqrtf
 2185 067c 019B     		ldr	r3, [sp, #4]
 2186 067e DEE7     		b	.L294
 2187              	.L344:
 2188              		.align	3
 2189              	.L343:
 2190 0680 33333333 		.word	858993459
 2191 0684 3333C33F 		.word	1069757235
 2192 0688 00000000 		.word	.LANCHOR44
 2193 068c 00000000 		.word	.LANCHOR33
 2194 0690 00000000 		.word	.LANCHOR43
 2195 0694 00000000 		.word	.LANCHOR45
 2196 0698 48E17A3F 		.word	1065017672
 2197 069c BFD40100 		.word	119999
 2198 06a0 73B2E745 		.word	1172812403
 2199 06a4 CDCCCC3D 		.word	1036831949
 2200 06a8 00000000 		.word	0
 2201 06ac 00000000 		.word	.LANCHOR32
 2202 06b0 00000000 		.word	.LANCHOR31
 2203 06b4 C0D40100 		.word	120000
 2205              		.section	.text._Z16GetFilterSamplesPfS_S_S_j,"ax",%progbits
 2206              		.align	1
 2207              		.p2align 2,,3
 2208              		.global	_Z16GetFilterSamplesPfS_S_S_j
 2209              		.syntax unified
 2210              		.thumb
 2211              		.thumb_func
 2212              		.fpu fpv5-d16
 2214              	_Z16GetFilterSamplesPfS_S_S_j:
 2215              		@ args = 4, pretend = 0, frame = 16
 2216              		@ frame_needed = 0, uses_anonymous_args = 0
 2217 0000 F0B5     		push	{r4, r5, r6, r7, lr}
 2218 0002 8A4C     		ldr	r4, .L379
 2219 0004 B6EE007A 		vmov.f32	s14, #5.0e-1
 2220 0008 D4ED007A 		vldr.32	s15, [r4]
 2221 000c 884C     		ldr	r4, .L379+4
 2222 000e F4EEC77A 		vcmpe.f32	s15, s14
 2223 0012 D4ED035A 		vldr.32	s11, [r4, #12]
 2224 0016 94ED045A 		vldr.32	s10, [r4, #16]
 2225 001a F1EE10FA 		vmrs	APSR_nzcv, FPSCR
 2226 001e 2DED028B 		vpush.64	{d8}
 2227 0022 85B0     		sub	sp, sp, #20
 2228 0024 0C9E     		ldr	r6, [sp, #48]
 2229 0026 40F1DF80 		bpl	.L370
 2230 002a F1EE677A 		vneg.f32	s15, s15
 2231 002e 9FED813A 		vldr.32	s6, .L379+8
 2232 0032 B0EE007A 		vmov.f32	s14, #2.0e+0
 2233 0036 F7EE003A 		vmov.f32	s7, #1.0e+0
 2234 003a 37EEA74A 		vadd.f32	s8, s15, s15
ARM GAS  /var/folders/lg/77ksxqjx0n7gwph6nqpzcmcw0000gn/T//ccn5JkAm.s 			page 39


 2235 003e E7EE873A 		vfma.f32	s7, s15, s14
 2236              	.L348:
 2237 0042 751E     		subs	r5, r6, #1
 2238 0044 002E     		cmp	r6, #0
 2239 0046 72D0     		beq	.L357
 2240 0048 0746     		mov	r7, r0
 2241              	.L352:
 2242 004a 94ED017A 		vldr.32	s14, [r4, #4]
 2243 004e B0EE656A 		vmov.f32	s12, s11
 2244 0052 F2EC017A 		vldmia.32	r2!, {s15}
 2245 0056 013D     		subs	r5, r5, #1
 2246 0058 D4ED006A 		vldr.32	s13, [r4]
 2247 005c E7EE657A 		vfms.f32	s15, s14, s11
 2248 0060 94ED027A 		vldr.32	s14, [r4, #8]
 2249 0064 B5F1FF3F 		cmp	r5, #-1
 2250 0068 E6EEE57A 		vfms.f32	s15, s13, s11
 2251 006c 77EEC57A 		vsub.f32	s15, s15, s10
 2252 0070 67EE877A 		vmul.f32	s15, s15, s14
 2253 0074 A6EEA76A 		vfma.f32	s12, s13, s15
 2254 0078 26EE037A 		vmul.f32	s14, s12, s6
 2255 007c A6EE865A 		vfma.f32	s10, s13, s12
 2256 0080 F0EE465A 		vmov.f32	s11, s12
 2257 0084 A7EE847A 		vfma.f32	s14, s15, s8
 2258 0088 E6EEA75A 		vfma.f32	s11, s13, s15
 2259 008c F0EE454A 		vmov.f32	s9, s10
 2260 0090 A6EE865A 		vfma.f32	s10, s13, s12
 2261 0094 F0EE477A 		vmov.f32	s15, s14
 2262 0098 E4EEA37A 		vfma.f32	s15, s9, s7
 2263 009c E7EC017A 		vstmia.32	r7!, {s15}
 2264 00a0 D3D1     		bne	.L352
 2265 00a2 C4ED035A 		vstr.32	s11, [r4, #12]
 2266 00a6 03EB8607 		add	r7, r3, r6, lsl #2
 2267 00aa 84ED045A 		vstr.32	s10, [r4, #16]
 2268 00ae 1C46     		mov	r4, r3
 2269 00b0 614D     		ldr	r5, .L379+12
 2270 00b2 28E0     		b	.L358
 2271              	.L377:
 2272 00b4 B4EEE70A 		vcmpe.f32	s0, s15
 2273 00b8 F1EE10FA 		vmrs	APSR_nzcv, FPSCR
 2274 00bc 34DC     		bgt	.L354
 2275 00be 30EE000A 		vadd.f32	s0, s0, s0
 2276 00c2 20EE260A 		vmul.f32	s0, s0, s13
 2277 00c6 B5EE400A 		vcmp.f32	s0, #0
 2278 00ca F1EEC08A 		vsqrt.f32	s17, s0
 2279 00ce F1EE10FA 		vmrs	APSR_nzcv, FPSCR
 2280 00d2 00F19680 		bmi	.L375
 2281              	.L355:
 2282 00d6 B0EE000A 		vmov.f32	s0, #2.0e+0
 2283 00da B0EC018A 		vldmia.32	r0!, {s16}
 2284 00de 28EE288A 		vmul.f32	s16, s16, s17
 2285 00e2 A7EE400A 		vfms.f32	s0, s14, s0
 2286 00e6 B5EE400A 		vcmp.f32	s0, #0
 2287 00ea F1EEC08A 		vsqrt.f32	s17, s0
 2288 00ee F1EE10FA 		vmrs	APSR_nzcv, FPSCR
 2289 00f2 00F19180 		bmi	.L376
 2290              	.L356:
 2291 00f6 D4ED007A 		vldr.32	s15, [r4]
ARM GAS  /var/folders/lg/77ksxqjx0n7gwph6nqpzcmcw0000gn/T//ccn5JkAm.s 			page 40


 2292 00fa A7EEA88A 		vfma.f32	s16, s15, s17
 2293 00fe A4EC018A 		vstmia.32	r4!, {s16}
 2294 0102 A742     		cmp	r7, r4
 2295 0104 13D0     		beq	.L357
 2296              	.L358:
 2297 0106 95ED007A 		vldr.32	s14, [r5]
 2298 010a F6EE006A 		vmov.f32	s13, #5.0e-1
 2299 010e 9FED4B0A 		vldr.32	s0, .L379+16
 2300 0112 F7EE007A 		vmov.f32	s15, #1.0e+0
 2301 0116 37EE400A 		vsub.f32	s0, s14, s0
 2302 011a B5EEC00A 		vcmpe.f32	s0, #0
 2303 011e F1EE10FA 		vmrs	APSR_nzcv, FPSCR
 2304 0122 C7D5     		bpl	.L377
 2305 0124 DFED437A 		vldr.32	s15, .L379+8
 2306              	.L354:
 2307 0128 F1EEE78A 		vsqrt.f32	s17, s15
 2308 012c D3E7     		b	.L355
 2309              	.L357:
 2310 012e 4448     		ldr	r0, .L379+20
 2311 0130 B6EE007A 		vmov.f32	s14, #5.0e-1
 2312 0134 434A     		ldr	r2, .L379+24
 2313 0136 D0ED007A 		vldr.32	s15, [r0]
 2314 013a D2ED035A 		vldr.32	s11, [r2, #12]
 2315 013e F4EEC77A 		vcmpe.f32	s15, s14
 2316 0142 92ED045A 		vldr.32	s10, [r2, #16]
 2317 0146 F1EE10FA 		vmrs	APSR_nzcv, FPSCR
 2318 014a 40D5     		bpl	.L378
 2319 014c F1EE677A 		vneg.f32	s15, s15
 2320 0150 9FED383A 		vldr.32	s6, .L379+8
 2321 0154 B0EE007A 		vmov.f32	s14, #2.0e+0
 2322 0158 F7EE003A 		vmov.f32	s7, #1.0e+0
 2323 015c 37EEA74A 		vadd.f32	s8, s15, s15
 2324 0160 E7EE873A 		vfma.f32	s7, s15, s14
 2325              	.L359:
 2326 0164 5EB3     		cbz	r6, .L360
 2327 0166 01EB8606 		add	r6, r1, r6, lsl #2
 2328              	.L361:
 2329 016a 92ED017A 		vldr.32	s14, [r2, #4]
 2330 016e B0EE656A 		vmov.f32	s12, s11
 2331 0172 F3EC017A 		vldmia.32	r3!, {s15}
 2332 0176 D2ED006A 		vldr.32	s13, [r2]
 2333 017a E7EE657A 		vfms.f32	s15, s14, s11
 2334 017e 92ED027A 		vldr.32	s14, [r2, #8]
 2335 0182 E6EEE57A 		vfms.f32	s15, s13, s11
 2336 0186 77EEC57A 		vsub.f32	s15, s15, s10
 2337 018a 67EE877A 		vmul.f32	s15, s15, s14
 2338 018e A6EEA76A 		vfma.f32	s12, s13, s15
 2339 0192 26EE037A 		vmul.f32	s14, s12, s6
 2340 0196 A6EE865A 		vfma.f32	s10, s13, s12
 2341 019a F0EE465A 		vmov.f32	s11, s12
 2342 019e A4EE277A 		vfma.f32	s14, s8, s15
 2343 01a2 E6EEA75A 		vfma.f32	s11, s13, s15
 2344 01a6 F0EE454A 		vmov.f32	s9, s10
 2345 01aa A6EE865A 		vfma.f32	s10, s13, s12
 2346 01ae F0EE477A 		vmov.f32	s15, s14
 2347 01b2 E4EEA37A 		vfma.f32	s15, s9, s7
 2348 01b6 E1EC017A 		vstmia.32	r1!, {s15}
ARM GAS  /var/folders/lg/77ksxqjx0n7gwph6nqpzcmcw0000gn/T//ccn5JkAm.s 			page 41


 2349 01ba B142     		cmp	r1, r6
 2350 01bc D5D1     		bne	.L361
 2351              	.L360:
 2352 01be C2ED035A 		vstr.32	s11, [r2, #12]
 2353 01c2 82ED045A 		vstr.32	s10, [r2, #16]
 2354 01c6 05B0     		add	sp, sp, #20
 2355              		@ sp needed
 2356 01c8 BDEC028B 		vldm	sp!, {d8}
 2357 01cc F0BD     		pop	{r4, r5, r6, r7, pc}
 2358              	.L378:
 2359 01ce B0EE007A 		vmov.f32	s14, #2.0e+0
 2360 01d2 DFED183A 		vldr.32	s7, .L379+8
 2361 01d6 B8EE004A 		vmov.f32	s8, #-2.0e+0
 2362 01da BFEE003A 		vmov.f32	s6, #-1.0e+0
 2363 01de A7EE874A 		vfma.f32	s8, s15, s14
 2364 01e2 A7EE873A 		vfma.f32	s6, s15, s14
 2365 01e6 BDE7     		b	.L359
 2366              	.L370:
 2367 01e8 B0EE007A 		vmov.f32	s14, #2.0e+0
 2368 01ec DFED113A 		vldr.32	s7, .L379+8
 2369 01f0 B8EE004A 		vmov.f32	s8, #-2.0e+0
 2370 01f4 BFEE003A 		vmov.f32	s6, #-1.0e+0
 2371 01f8 A7EE874A 		vfma.f32	s8, s15, s14
 2372 01fc A7EE873A 		vfma.f32	s6, s15, s14
 2373 0200 1FE7     		b	.L348
 2374              	.L375:
 2375 0202 CDE90213 		strd	r1, r3, [sp, #8]
 2376 0206 0190     		str	r0, [sp, #4]
 2377 0208 FFF7FEFF 		bl	sqrtf
 2378 020c 95ED007A 		vldr.32	s14, [r5]
 2379 0210 0198     		ldr	r0, [sp, #4]
 2380 0212 DDE90213 		ldrd	r1, r3, [sp, #8]
 2381 0216 5EE7     		b	.L355
 2382              	.L376:
 2383 0218 CDE90213 		strd	r1, r3, [sp, #8]
 2384 021c 0190     		str	r0, [sp, #4]
 2385 021e FFF7FEFF 		bl	sqrtf
 2386 0222 0198     		ldr	r0, [sp, #4]
 2387 0224 DDE90213 		ldrd	r1, r3, [sp, #8]
 2388 0228 65E7     		b	.L356
 2389              	.L380:
 2390 022a 00BF     		.align	2
 2391              	.L379:
 2392 022c 00000000 		.word	.LANCHOR46
 2393 0230 00000000 		.word	.LANCHOR47
 2394 0234 00000000 		.word	0
 2395 0238 00000000 		.word	.LANCHOR50
 2396 023c CDCC4C3D 		.word	1028443341
 2397 0240 00000000 		.word	.LANCHOR48
 2398 0244 00000000 		.word	.LANCHOR49
 2400              		.section	.text._Z13GetLofiSampleRfS_ff,"ax",%progbits
 2401              		.align	1
 2402              		.p2align 2,,3
 2403              		.global	_Z13GetLofiSampleRfS_ff
 2404              		.syntax unified
 2405              		.thumb
 2406              		.thumb_func
ARM GAS  /var/folders/lg/77ksxqjx0n7gwph6nqpzcmcw0000gn/T//ccn5JkAm.s 			page 42


 2407              		.fpu fpv5-d16
 2409              	_Z13GetLofiSampleRfS_ff:
 2410              		@ args = 0, pretend = 0, frame = 16
 2411              		@ frame_needed = 0, uses_anonymous_args = 0
 2412 0000 EB4A     		ldr	r2, .L461+16
 2413 0002 DFEDEC7A 		vldr.32	s15, .L461+20
 2414 0006 1368     		ldr	r3, [r2]
 2415 0008 2DE9F04F 		push	{r4, r5, r6, r7, r8, r9, r10, fp, lr}
 2416 000c 0133     		adds	r3, r3, #1
 2417 000e EA4C     		ldr	r4, .L461+24
 2418 0010 8046     		mov	r8, r0
 2419 0012 2DED068B 		vpush.64	{d8, d9, d10}
 2420 0016 85B0     		sub	sp, sp, #20
 2421 0018 60EE279A 		vmul.f32	s19, s0, s15
 2422 001c 20EEA78A 		vmul.f32	s16, s1, s15
 2423 0020 0091     		str	r1, [sp]
 2424 0022 84FB0314 		smull	r1, r4, r4, r3
 2425 0026 D917     		asrs	r1, r3, #31
 2426 0028 C1EBE404 		rsb	r4, r1, r4, asr #3
 2427 002c 04EB4404 		add	r4, r4, r4, lsl #1
 2428 0030 A3EB0414 		sub	r4, r3, r4, lsl #4
 2429 0034 E14B     		ldr	r3, .L461+28
 2430 0036 1460     		str	r4, [r2]
 2431 0038 002C     		cmp	r4, #0
 2432 003a 00F0E483 		beq	.L382
 2433 003e E04A     		ldr	r2, .L461+32
 2434 0040 D3F8C040 		ldr	r4, [r3, #192]
 2435 0044 92ED007A 		vldr.32	s14, [r2]
 2436 0048 621C     		adds	r2, r4, #1
 2437              	.L383:
 2438 004a DE4D     		ldr	r5, .L461+36
 2439 004c D5ED007A 		vldr.32	s15, [r5]
 2440 0050 F4EEC77A 		vcmpe.f32	s15, s14
 2441 0054 F1EE10FA 		vmrs	APSR_nzcv, FPSCR
 2442 0058 40F38A83 		ble	.L452
 2443 005c DA49     		ldr	r1, .L461+40
 2444 005e B2EE046A 		vmov.f32	s12, #1.0e+1
 2445 0062 DFEDDA5A 		vldr.32	s11, .L461+44
 2446 0066 37EE677A 		vsub.f32	s14, s14, s15
 2447 006a D1ED006A 		vldr.32	s13, [r1]
 2448 006e 66EEA56A 		vmul.f32	s13, s13, s11
 2449 0072 66EE866A 		vmul.f32	s13, s13, s12
 2450 0076 E6EE877A 		vfma.f32	s15, s13, s14
 2451              	.L390:
 2452 007a D54E     		ldr	r6, .L461+48
 2453 007c B2EE0A6A 		vmov.f32	s12, #1.3e+1
 2454 0080 29EEA99A 		vmul.f32	s18, s19, s19
 2455 0084 03EB8404 		add	r4, r3, r4, lsl #2
 2456 0088 96ED00AA 		vldr.32	s20, [r6]
 2457 008c 68EE088A 		vmul.f32	s17, s16, s16
 2458 0090 F3EE046A 		vmov.f32	s13, #2.0e+1
 2459 0094 C5ED007A 		vstr.32	s15, [r5]
 2460 0098 27EE8AAA 		vmul.f32	s20, s15, s20
 2461 009c C3F8C020 		str	r2, [r3, #192]
 2462 00a0 F6EE005A 		vmov.f32	s11, #5.0e-1
 2463 00a4 39EE287A 		vadd.f32	s14, s18, s17
 2464 00a8 2AEE06AA 		vmul.f32	s20, s20, s12
ARM GAS  /var/folders/lg/77ksxqjx0n7gwph6nqpzcmcw0000gn/T//ccn5JkAm.s 			page 43


 2465 00ac 27EE257A 		vmul.f32	s14, s14, s11
 2466 00b0 B4EEE6AA 		vcmpe.f32	s20, s13
 2467 00b4 84ED007A 		vstr.32	s14, [r4]
 2468 00b8 F1EE10FA 		vmrs	APSR_nzcv, FPSCR
 2469 00bc 00F17C83 		bmi	.L427
 2470 00c0 9FEDC47A 		vldr.32	s14, .L461+52
 2471 00c4 B4EE47AA 		vcmp.f32	s20, s14
 2472 00c8 F1EE10FA 		vmrs	APSR_nzcv, FPSCR
 2473 00cc 37FE0AAA 		vselgt.f32	s20, s14, s20
 2474              	.L391:
 2475 00d0 27EEA77A 		vmul.f32	s14, s15, s15
 2476 00d4 DFF860A3 		ldr	r10, .L461+152
 2477 00d8 DFEDBFAA 		vldr.32	s21, .L461+56
 2478 00dc BF48     		ldr	r0, .L461+60
 2479 00de 8AED107A 		vstr.32	s14, [r10, #64]
 2480 00e2 CAED137A 		vstr.32	s15, [r10, #76]
 2481 00e6 8AED197A 		vstr.32	s14, [r10, #100]
 2482 00ea CAED167A 		vstr.32	s15, [r10, #88]
 2483 00ee 80ED03AA 		vstr.32	s20, [r0, #12]
 2484 00f2 CAED14AA 		vstr.32	s21, [r10, #80]
 2485 00f6 CAED15AA 		vstr.32	s21, [r10, #84]
 2486 00fa CAED11AA 		vstr.32	s21, [r10, #68]
 2487 00fe CAED12AA 		vstr.32	s21, [r10, #72]
 2488 0102 CAED1AAA 		vstr.32	s21, [r10, #104]
 2489 0106 CAED1BAA 		vstr.32	s21, [r10, #108]
 2490 010a CAED17AA 		vstr.32	s21, [r10, #92]
 2491 010e CAED18AA 		vstr.32	s21, [r10, #96]
 2492 0112 FFF7FEFF 		bl	_ZN7daisysp4Tone21CalculateCoefficientsEv
 2493 0116 B248     		ldr	r0, .L461+64
 2494 0118 DFF82093 		ldr	r9, .L461+156
 2495 011c 80ED03AA 		vstr.32	s20, [r0, #12]
 2496 0120 FFF7FEFF 		bl	_ZN7daisysp4Tone21CalculateCoefficientsEv
 2497 0124 AF4B     		ldr	r3, .L461+68
 2498 0126 B7EECA4A 		vcvt.f64.f32	d4, s20
 2499 012a 9FEDAF3A 		vldr.32	s6, .L461+72
 2500 012e B0EE005A 		vmov.f32	s10, #2.0e+0
 2501 0132 93ED006A 		vldr.32	s12, [r3]
 2502 0136 F7EE003A 		vmov.f32	s7, #1.0e+0
 2503 013a 96ED002A 		vldr.32	s4, [r6]
 2504 013e 8AEE067A 		vdiv.f32	s14, s20, s12
 2505 0142 DFEDAA2A 		vldr.32	s5, .L461+76
 2506 0146 DFEDAA5A 		vldr.32	s11, .L461+80
 2507 014a DFEDAA7A 		vldr.32	s15, .L461+84
 2508 014e AA4C     		ldr	r4, .L461+88
 2509 0150 AA4B     		ldr	r3, .L461+92
 2510 0152 B0EE43AA 		vmov.f32	s20, s6
 2511 0156 C9ED013A 		vstr.32	s7, [r9, #4]
 2512 015a B7EEC66A 		vcvt.f64.f32	d6, s12
 2513 015e C4ED013A 		vstr.32	s7, [r4, #4]
 2514 0162 A2EE45AA 		vfms.f32	s20, s4, s10
 2515 0166 9FED8E1B 		vldr.64	d1, .L461
 2516 016a 26EE016B 		vmul.f64	d6, d6, d1
 2517 016e 27EE075A 		vmul.f32	s10, s14, s14
 2518 0172 B4EEEAAA 		vcmpe.f32	s20, s21
 2519 0176 E5EE225A 		vfma.f32	s11, s10, s5
 2520 017a F1EE10FA 		vmrs	APSR_nzcv, FPSCR
 2521 017e 9FED8A2B 		vldr.64	d2, .L461+8
ARM GAS  /var/folders/lg/77ksxqjx0n7gwph6nqpzcmcw0000gn/T//ccn5JkAm.s 			page 44


 2522 0182 E5EE257A 		vfma.f32	s15, s10, s11
 2523 0186 A4EE026B 		vfma.f64	d6, d4, d2
 2524 018a 67EE277A 		vmul.f32	s15, s14, s15
 2525 018e 37EEA37A 		vadd.f32	s14, s15, s7
 2526 0192 C9ED007A 		vstr.32	s15, [r9]
 2527 0196 C4ED007A 		vstr.32	s15, [r4]
 2528 019a B7EEC66B 		vcvt.f32.f64	s12, d6
 2529 019e A7EEA77A 		vfma.f32	s14, s15, s15
 2530 01a2 83ED016A 		vstr.32	s12, [r3, #4]
 2531 01a6 F0EE477A 		vmov.f32	s15, s14
 2532 01aa 83EEA77A 		vdiv.f32	s14, s7, s15
 2533 01ae 89ED027A 		vstr.32	s14, [r9, #8]
 2534 01b2 84ED027A 		vstr.32	s14, [r4, #8]
 2535 01b6 00F1FC82 		bmi	.L428
 2536 01ba B4EE43AA 		vcmp.f32	s20, s6
 2537 01be F1EE10FA 		vmrs	APSR_nzcv, FPSCR
 2538 01c2 33FE0AAA 		vselgt.f32	s20, s6, s20
 2539              	.L393:
 2540 01c6 B0EE4A0A 		vmov.f32	s0, s20
 2541 01ca 8D48     		ldr	r0, .L461+96
 2542 01cc DFF870B2 		ldr	fp, .L461+160
 2543 01d0 FFF7FEFF 		bl	_ZN7daisysp3Svf7SetFreqEf
 2544 01d4 8B48     		ldr	r0, .L461+100
 2545 01d6 B0EE4A0A 		vmov.f32	s0, s20
 2546 01da FFF7FEFF 		bl	_ZN7daisysp3Svf7SetFreqEf
 2547 01de DBF80020 		ldr	r2, [fp]
 2548 01e2 8949     		ldr	r1, .L461+104
 2549 01e4 501C     		adds	r0, r2, #1
 2550 01e6 0B68     		ldr	r3, [r1]
 2551 01e8 90FBF3F2 		sdiv	r2, r0, r3
 2552 01ec 03FB1202 		mls	r2, r3, r2, r0
 2553 01f0 CBF80020 		str	r2, [fp]
 2554 01f4 002A     		cmp	r2, #0
 2555 01f6 00F06F83 		beq	.L395
 2556 01fa 8449     		ldr	r1, .L461+108
 2557 01fc 844A     		ldr	r2, .L461+112
 2558 01fe D1ED006A 		vldr.32	s13, [r1]
 2559 0202 D2ED005A 		vldr.32	s11, [r2]
 2560              	.L396:
 2561 0206 13EB4303 		adds	r3, r3, r3, lsl #1
 2562 020a 9FED825A 		vldr.32	s10, .L461+116
 2563 020e B7EE006A 		vmov.f32	s12, #1.0e+0
 2564 0212 8149     		ldr	r1, .L461+120
 2565 0214 48BF     		it	mi
 2566 0216 0133     		addmi	r3, r3, #1
 2567 0218 8048     		ldr	r0, .L461+124
 2568 021a 91ED007A 		vldr.32	s14, [r1]
 2569 021e 5B10     		asrs	r3, r3, #1
 2570 0220 90ED000A 		vldr.32	s0, [r0]
 2571 0224 76EEC76A 		vsub.f32	s13, s13, s14
 2572 0228 7D4A     		ldr	r2, .L461+128
 2573 022a 07EE903A 		vmov	s15, r3	@ int
 2574 022e DFF814A2 		ldr	r10, .L461+164
 2575 0232 7C4B     		ldr	r3, .L461+132
 2576 0234 F8EEE77A 		vcvt.f32.s32	s15, s15
 2577 0238 77EEA57A 		vadd.f32	s15, s15, s11
 2578 023c DFED7A5A 		vldr.32	s11, .L461+136
ARM GAS  /var/folders/lg/77ksxqjx0n7gwph6nqpzcmcw0000gn/T//ccn5JkAm.s 			page 45


 2579 0240 B4EEE50A 		vcmpe.f32	s0, s11
 2580 0244 67EE857A 		vmul.f32	s15, s15, s10
 2581 0248 86EE275A 		vdiv.f32	s10, s12, s15
 2582 024c F0EE477A 		vmov.f32	s15, s14
 2583 0250 E5EE267A 		vfma.f32	s15, s10, s13
 2584 0254 FDEEE76A 		vcvt.s32.f32	s13, s15
 2585 0258 C1ED007A 		vstr.32	s15, [r1]
 2586 025c 16EE901A 		vmov	r1, s13	@ int
 2587 0260 B8EEE67A 		vcvt.f32.s32	s14, s13
 2588 0264 9142     		cmp	r1, r2
 2589 0266 77EEC77A 		vsub.f32	s15, s15, s14
 2590 026a 28BF     		it	cs
 2591 026c 1146     		movcs	r1, r2
 2592 026e F1EE10FA 		vmrs	APSR_nzcv, FPSCR
 2593 0272 0A46     		mov	r2, r1
 2594 0274 9960     		str	r1, [r3, #8]
 2595 0276 CAF80810 		str	r1, [r10, #8]
 2596 027a C3ED007A 		vstr.32	s15, [r3]
 2597 027e CAED007A 		vstr.32	s15, [r10]
 2598 0282 40F37C82 		ble	.L453
 2599 0286 9FED540A 		vldr.32	s0, .L461+56
 2600 028a 80ED006A 		vstr.32	s12, [r0]
 2601              	.L400:
 2602 028e 5968     		ldr	r1, [r3, #4]
 2603 0290 B5EE400A 		vcmp.f32	s0, #0
 2604 0294 DFF894C1 		ldr	ip, .L461+140
 2605 0298 B1EEC0AA 		vsqrt.f32	s20, s0
 2606 029c 0A44     		add	r2, r2, r1
 2607 029e DFF890E1 		ldr	lr, .L461+144
 2608 02a2 02F1010B 		add	fp, r2, #1
 2609 02a6 ACFB0271 		umull	r7, r1, ip, r2
 2610 02aa ACFB0B7C 		umull	r7, ip, ip, fp
 2611 02ae C90B     		lsrs	r1, r1, #15
 2612 02b0 F1EE10FA 		vmrs	APSR_nzcv, FPSCR
 2613 02b4 4FEADC3C 		lsr	ip, ip, #15
 2614 02b8 0EFB1121 		mls	r1, lr, r1, r2
 2615 02bc 0EFB1CBC 		mls	ip, lr, ip, fp
 2616 02c0 03EB8101 		add	r1, r3, r1, lsl #2
 2617 02c4 03EB8C0C 		add	ip, r3, ip, lsl #2
 2618 02c8 91ED037A 		vldr.32	s14, [r1, #12]
 2619 02cc DCED036A 		vldr.32	s13, [ip, #12]
 2620 02d0 76EEC76A 		vsub.f32	s13, s13, s14
 2621 02d4 A6EEA77A 		vfma.f32	s14, s13, s15
 2622 02d8 27EE067A 		vmul.f32	s14, s14, s12
 2623 02dc 00F18E83 		bmi	.L457
 2624              	.L403:
 2625 02e0 A9EE8A7A 		vfma.f32	s14, s19, s20
 2626 02e4 F6EE007A 		vmov.f32	s15, #5.0e-1
 2627 02e8 88ED007A 		vstr.32	s14, [r8]
 2628 02ec 90ED000A 		vldr.32	s0, [r0]
 2629 02f0 30EE007A 		vadd.f32	s14, s0, s0
 2630 02f4 67EE277A 		vmul.f32	s15, s14, s15
 2631 02f8 F5EE407A 		vcmp.f32	s15, #0
 2632 02fc F1EEE7AA 		vsqrt.f32	s21, s15
 2633 0300 F1EE10FA 		vmrs	APSR_nzcv, FPSCR
 2634 0304 00F17083 		bmi	.L458
 2635              	.L404:
ARM GAS  /var/folders/lg/77ksxqjx0n7gwph6nqpzcmcw0000gn/T//ccn5JkAm.s 			page 46


 2636 0308 DAF80410 		ldr	r1, [r10, #4]
 2637 030c B0EE000A 		vmov.f32	s0, #2.0e+0
 2638 0310 DAF80820 		ldr	r2, [r10, #8]
 2639 0314 4548     		ldr	r0, .L461+140
 2640 0316 01EB020E 		add	lr, r1, r2
 2641 031a 4549     		ldr	r1, .L461+144
 2642 031c 30EE470A 		vsub.f32	s0, s0, s14
 2643 0320 DFED447A 		vldr.32	s15, .L461+148
 2644 0324 0EF1010C 		add	ip, lr, #1
 2645 0328 A0FB0E72 		umull	r7, r2, r0, lr
 2646 032c DAED006A 		vldr.32	s13, [r10]
 2647 0330 A0FB0C70 		umull	r7, r0, r0, ip
 2648 0334 D20B     		lsrs	r2, r2, #15
 2649 0336 20EE270A 		vmul.f32	s0, s0, s15
 2650 033a C00B     		lsrs	r0, r0, #15
 2651 033c 01FB12E2 		mls	r2, r1, r2, lr
 2652 0340 01FB10C0 		mls	r0, r1, r0, ip
 2653 0344 0AEB8202 		add	r2, r10, r2, lsl #2
 2654 0348 B5EE400A 		vcmp.f32	s0, #0
 2655 034c 0AEB8000 		add	r0, r10, r0, lsl #2
 2656 0350 D2ED037A 		vldr.32	s15, [r2, #12]
 2657 0354 B1EEC0AA 		vsqrt.f32	s20, s0
 2658 0358 90ED037A 		vldr.32	s14, [r0, #12]
 2659 035c 37EE677A 		vsub.f32	s14, s14, s15
 2660 0360 F1EE10FA 		vmrs	APSR_nzcv, FPSCR
 2661 0364 E7EE267A 		vfma.f32	s15, s14, s13
 2662 0368 67EEAA7A 		vmul.f32	s15, s15, s21
 2663 036c 00F14E83 		bmi	.L459
 2664              	.L405:
 2665 0370 E8EE0A7A 		vfma.f32	s15, s16, s20
 2666 0374 009B     		ldr	r3, [sp]
 2667 0376 DFF888B0 		ldr	fp, .L461+96
 2668 037a 02A9     		add	r1, sp, #8
 2669 037c 1748     		ldr	r0, .L461+60
 2670 037e DFF88480 		ldr	r8, .L461+100
 2671 0382 C3ED007A 		vstr.32	s15, [r3]
 2672 0386 99ED037A 		vldr.32	s14, [r9, #12]
 2673 038a D4ED037A 		vldr.32	s15, [r4, #12]
 2674 038e 99ED016A 		vldr.32	s12, [r9, #4]
 2675 0392 D4ED016A 		vldr.32	s13, [r4, #4]
 2676 0396 E6EE479A 		vfms.f32	s19, s12, s14
 2677 039a 55E0     		b	.L462
 2678              	.L463:
 2679 039c AFF30080 		.align	3
 2680              	.L461:
 2681 03a0 33333333 		.word	858993459
 2682 03a4 3333D33F 		.word	1070805811
 2683 03a8 33333333 		.word	858993459
 2684 03ac 3333E33F 		.word	1071854387
 2685 03b0 00000000 		.word	.LANCHOR51
 2686 03b4 CDCC4C3F 		.word	1061997773
 2687 03b8 ABAAAA2A 		.word	715827883
 2688 03bc 00000000 		.word	.LANCHOR53
 2689 03c0 00000000 		.word	.LANCHOR52
 2690 03c4 00000000 		.word	.LANCHOR55
 2691 03c8 00000000 		.word	.LANCHOR56
 2692 03cc 0AD7A33B 		.word	1000593162
ARM GAS  /var/folders/lg/77ksxqjx0n7gwph6nqpzcmcw0000gn/T//ccn5JkAm.s 			page 47


 2693 03d0 00000000 		.word	.LANCHOR57
 2694 03d4 00409C46 		.word	1184645120
 2695 03d8 00000000 		.word	0
 2696 03dc 00000000 		.word	.LANCHOR36
 2697 03e0 00000000 		.word	.LANCHOR38
 2698 03e4 00000000 		.word	.LANCHOR26
 2699 03e8 00004843 		.word	1128792064
 2700 03ec 49265F42 		.word	1113531977
 2701 03f0 8FBA2141 		.word	1092729487
 2702 03f4 DB0F4940 		.word	1078530011
 2703 03f8 00000000 		.word	.LANCHOR49
 2704 03fc 00000000 		.word	_ZL3rev
 2705 0400 00000000 		.word	.LANCHOR37
 2706 0404 00000000 		.word	.LANCHOR39
 2707 0408 00000000 		.word	.LANCHOR58
 2708 040c 00000000 		.word	.LANCHOR60
 2709 0410 00000000 		.word	.LANCHOR61
 2710 0414 9A99993F 		.word	1067030938
 2711 0418 00000000 		.word	.LANCHOR63
 2712 041c 00000000 		.word	.LANCHOR64
 2713 0420 BFD40100 		.word	119999
 2714 0424 0C73C602 		.word	_ZL4dell
 2715 0428 48E17A3F 		.word	1065017672
 2716 042c 73B2E745 		.word	1172812403
 2717 0430 C0D40100 		.word	120000
 2718 0434 3333733F 		.word	1064514355
 2719 0438 00000000 		.word	.LANCHOR18
 2720 043c 00000000 		.word	.LANCHOR47
 2721 0440 00000000 		.word	.LANCHOR59
 2722 0444 0020BF02 		.word	_ZL4delr
 2723              	.L462:
 2724 0448 99ED005A 		vldr.32	s10, [r9]
 2725 044c A6EEE78A 		vfms.f32	s16, s13, s15
 2726 0450 94ED006A 		vldr.32	s12, [r4]
 2727 0454 D9ED045A 		vldr.32	s11, [r9, #16]
 2728 0458 D4ED046A 		vldr.32	s13, [r4, #16]
 2729 045c 99ED024A 		vldr.32	s8, [r9, #8]
 2730 0460 D4ED024A 		vldr.32	s9, [r4, #8]
 2731 0464 E7EE459A 		vfms.f32	s19, s14, s10
 2732 0468 A7EEC68A 		vfms.f32	s16, s15, s12
 2733 046c 79EEE59A 		vsub.f32	s19, s19, s11
 2734 0470 38EE668A 		vsub.f32	s16, s16, s13
 2735 0474 69EE849A 		vmul.f32	s19, s19, s8
 2736 0478 28EE248A 		vmul.f32	s16, s16, s9
 2737 047c A5EE297A 		vfma.f32	s14, s10, s19
 2738 0480 E6EE087A 		vfma.f32	s15, s12, s16
 2739 0484 E5EE075A 		vfma.f32	s11, s10, s14
 2740 0488 E6EE276A 		vfma.f32	s13, s12, s15
 2741 048c B0EE474A 		vmov.f32	s8, s14
 2742 0490 F0EE674A 		vmov.f32	s9, s15
 2743 0494 A5EE294A 		vfma.f32	s8, s10, s19
 2744 0498 F0EE653A 		vmov.f32	s7, s11
 2745 049c CDED025A 		vstr.32	s11, [sp, #8]
 2746 04a0 F0EE665A 		vmov.f32	s11, s13
 2747 04a4 CDED036A 		vstr.32	s13, [sp, #12]
 2748 04a8 E6EE084A 		vfma.f32	s9, s12, s16
 2749 04ac E5EE073A 		vfma.f32	s7, s10, s14
ARM GAS  /var/folders/lg/77ksxqjx0n7gwph6nqpzcmcw0000gn/T//ccn5JkAm.s 			page 48


 2750 04b0 E6EE275A 		vfma.f32	s11, s12, s15
 2751 04b4 89ED034A 		vstr.32	s8, [r9, #12]
 2752 04b8 C4ED034A 		vstr.32	s9, [r4, #12]
 2753 04bc C9ED043A 		vstr.32	s7, [r9, #16]
 2754 04c0 C4ED045A 		vstr.32	s11, [r4, #16]
 2755 04c4 FFF7FEFF 		bl	_ZN7daisysp4Tone7ProcessERf
 2756 04c8 5846     		mov	r0, fp
 2757 04ca FFF7FEFF 		bl	_ZN7daisysp3Svf7ProcessEf
 2758 04ce 03A9     		add	r1, sp, #12
 2759 04d0 EB48     		ldr	r0, .L464+16
 2760 04d2 FFF7FEFF 		bl	_ZN7daisysp4Tone7ProcessERf
 2761 04d6 4046     		mov	r0, r8
 2762 04d8 FFF7FEFF 		bl	_ZN7daisysp3Svf7ProcessEf
 2763 04dc B3EE0E6A 		vmov.f32	s12, #3.0e+1
 2764 04e0 D6ED004A 		vldr.32	s9, [r6]
 2765 04e4 E748     		ldr	r0, .L464+20
 2766 04e6 F4EEC64A 		vcmpe.f32	s9, s12
 2767 04ea DBED0D1A 		vldr.32	s3, [fp, #52]
 2768 04ee D0ED006A 		vldr.32	s13, [r0]
 2769 04f2 98ED0D1A 		vldr.32	s2, [r8, #52]
 2770 04f6 F1EE10FA 		vmrs	APSR_nzcv, FPSCR
 2771 04fa E34B     		ldr	r3, .L464+24
 2772 04fc 76EEA66A 		vadd.f32	s13, s13, s13
 2773 0500 00F15D81 		bmi	.L429
 2774 0504 9FEDE16A 		vldr.32	s12, .L464+28
 2775 0508 F4EEC64A 		vcmpe.f32	s9, s12
 2776 050c F1EE10FA 		vmrs	APSR_nzcv, FPSCR
 2777 0510 00F34C81 		bgt	.L430
 2778 0514 36EE647A 		vsub.f32	s14, s12, s9
 2779 0518 C7EE067A 		vdiv.f32	s15, s14, s12
 2780              	.L406:
 2781 051c DC49     		ldr	r1, .L464+32
 2782 051e DD4A     		ldr	r2, .L464+36
 2783 0520 91ED003A 		vldr.32	s6, [r1]
 2784 0524 D2ED003A 		vldr.32	s7, [r2]
 2785 0528 B2EE025A 		vmov.f32	s10, #9.0e+0
 2786 052c 95ED002A 		vldr.32	s4, [r5]
 2787 0530 F0EE492A 		vmov.f32	s5, s18
 2788 0534 B7EE006A 		vmov.f32	s12, #1.0e+0
 2789 0538 F2EE045A 		vmov.f32	s11, #1.0e+1
 2790 053c E3EE052A 		vfma.f32	s5, s6, s10
 2791 0540 B0EE683A 		vmov.f32	s6, s17
 2792 0544 36EE426A 		vsub.f32	s12, s12, s4
 2793 0548 B3EE044A 		vmov.f32	s8, #2.0e+1
 2794 054c A3EE853A 		vfma.f32	s6, s7, s10
 2795 0550 DFEDD13A 		vldr.32	s7, .L464+40
 2796 0554 E6EE276A 		vfma.f32	s13, s12, s15
 2797 0558 82EEA55A 		vdiv.f32	s10, s5, s11
 2798 055c 83EE256A 		vdiv.f32	s12, s6, s11
 2799 0560 F4EEC44A 		vcmpe.f32	s9, s8
 2800 0564 66EEA36A 		vmul.f32	s13, s13, s7
 2801 0568 F1EE10FA 		vmrs	APSR_nzcv, FPSCR
 2802 056c C0ED006A 		vstr.32	s13, [r0]
 2803 0570 81ED005A 		vstr.32	s10, [r1]
 2804 0574 82ED006A 		vstr.32	s12, [r2]
 2805 0578 00F12481 		bmi	.L407
 2806 057c DFEDC75A 		vldr.32	s11, .L464+44
ARM GAS  /var/folders/lg/77ksxqjx0n7gwph6nqpzcmcw0000gn/T//ccn5JkAm.s 			page 49


 2807 0580 F4EEE54A 		vcmpe.f32	s9, s11
 2808 0584 F1EE10FA 		vmrs	APSR_nzcv, FPSCR
 2809 0588 00F3E581 		bgt	.L431
 2810 058c 75EEE47A 		vsub.f32	s15, s11, s9
 2811 0590 87EEA56A 		vdiv.f32	s12, s15, s11
 2812              	.L408:
 2813 0594 9FEDC25A 		vldr.32	s10, .L464+48
 2814 0598 DFEDC05A 		vldr.32	s11, .L464+44
 2815 059c F0EE617A 		vmov.f32	s15, s3
 2816 05a0 B0EE417A 		vmov.f32	s14, s2
 2817 05a4 F4EEE54A 		vcmpe.f32	s9, s11
 2818 05a8 E1EE067A 		vfma.f32	s15, s2, s12
 2819 05ac A1EE867A 		vfma.f32	s14, s3, s12
 2820 05b0 66EEA11A 		vmul.f32	s3, s13, s3
 2821 05b4 66EE816A 		vmul.f32	s13, s13, s2
 2822 05b8 F1EE10FA 		vmrs	APSR_nzcv, FPSCR
 2823 05bc 29EE219A 		vmul.f32	s18, s18, s3
 2824 05c0 77EEA17A 		vadd.f32	s15, s15, s3
 2825 05c4 68EEA68A 		vmul.f32	s17, s17, s13
 2826 05c8 37EE267A 		vadd.f32	s14, s14, s13
 2827 05cc E9EE057A 		vfma.f32	s15, s18, s10
 2828 05d0 A8EE857A 		vfma.f32	s14, s17, s10
 2829 05d4 E7EE067A 		vfma.f32	s15, s14, s12
 2830 05d8 00F3C081 		bgt	.L432
 2831 05dc 75EEE46A 		vsub.f32	s13, s11, s9
 2832 05e0 86EEA55A 		vdiv.f32	s10, s13, s11
 2833              	.L409:
 2834 05e4 A7EE857A 		vfma.f32	s14, s15, s10
 2835 05e8 B7EEE76A 		vcvt.f64.f32	d6, s15
 2836 05ec 9FEDA05B 		vldr.64	d5, .L464
 2837 05f0 B4EEC56B 		vcmpe.f64	d6, d5
 2838 05f4 F1EE10FA 		vmrs	APSR_nzcv, FPSCR
 2839 05f8 21DD     		ble	.L410
 2840 05fa DFEDAA6A 		vldr.32	s13, .L464+52
 2841 05fe 9FEDAA6A 		vldr.32	s12, .L464+56
 2842 0602 77EEE66A 		vsub.f32	s13, s15, s13
 2843 0606 9FEDA95A 		vldr.32	s10, .L464+60
 2844 060a DFEDA95A 		vldr.32	s11, .L464+64
 2845 060e 66EE866A 		vmul.f32	s13, s13, s12
 2846 0612 86EE856A 		vdiv.f32	s12, s13, s10
 2847 0616 76EE256A 		vadd.f32	s13, s12, s11
 2848 061a 77EEE67A 		vsub.f32	s15, s15, s13
 2849 061e F4EEE57A 		vcmpe.f32	s15, s11
 2850 0622 F1EE10FA 		vmrs	APSR_nzcv, FPSCR
 2851 0626 00F1AF81 		bmi	.L433
 2852 062a F7EE006A 		vmov.f32	s13, #1.0e+0
 2853 062e F4EEE67A 		vcmpe.f32	s15, s13
 2854 0632 F1EE10FA 		vmrs	APSR_nzcv, FPSCR
 2855 0636 00F3B681 		bgt	.L434
 2856 063a B7EEE76A 		vcvt.f64.f32	d6, s15
 2857              	.L410:
 2858 063e B7EEC75A 		vcvt.f64.f32	d5, s14
 2859 0642 9FED8B4B 		vldr.64	d4, .L464
 2860 0646 B4EEC45B 		vcmpe.f64	d5, d4
 2861 064a F1EE10FA 		vmrs	APSR_nzcv, FPSCR
 2862 064e 21DD     		ble	.L413
 2863              	.L425:
ARM GAS  /var/folders/lg/77ksxqjx0n7gwph6nqpzcmcw0000gn/T//ccn5JkAm.s 			page 50


 2864 0650 DFED945A 		vldr.32	s11, .L464+52
 2865 0654 9FED945A 		vldr.32	s10, .L464+56
 2866 0658 77EE655A 		vsub.f32	s11, s14, s11
 2867 065c 9FED934A 		vldr.32	s8, .L464+60
 2868 0660 DFED934A 		vldr.32	s9, .L464+64
 2869 0664 65EE855A 		vmul.f32	s11, s11, s10
 2870 0668 85EE845A 		vdiv.f32	s10, s11, s8
 2871 066c 75EE245A 		vadd.f32	s11, s10, s9
 2872 0670 37EE657A 		vsub.f32	s14, s14, s11
 2873 0674 B4EEE47A 		vcmpe.f32	s14, s9
 2874 0678 F1EE10FA 		vmrs	APSR_nzcv, FPSCR
 2875 067c 00F17781 		bmi	.L435
 2876 0680 F7EE005A 		vmov.f32	s11, #1.0e+0
 2877 0684 B4EEE57A 		vcmpe.f32	s14, s11
 2878 0688 F1EE10FA 		vmrs	APSR_nzcv, FPSCR
 2879 068c 00F38E81 		bgt	.L436
 2880 0690 B7EEC75A 		vcvt.f64.f32	d5, s14
 2881              	.L413:
 2882 0694 9FED784B 		vldr.64	d4, .L464+8
 2883 0698 B4EEC46B 		vcmpe.f64	d6, d4
 2884 069c F1EE10FA 		vmrs	APSR_nzcv, FPSCR
 2885 06a0 1ED5     		bpl	.L416
 2886              	.L423:
 2887 06a2 F2EE046A 		vmov.f32	s13, #1.0e+1
 2888 06a6 DFED804A 		vldr.32	s9, .L464+56
 2889 06aa DFED803A 		vldr.32	s7, .L464+60
 2890 06ae BFEE004A 		vmov.f32	s8, #-1.0e+0
 2891 06b2 77EEA66A 		vadd.f32	s13, s15, s13
 2892 06b6 66EEA46A 		vmul.f32	s13, s13, s9
 2893 06ba 86EEA36A 		vdiv.f32	s12, s13, s7
 2894 06be 76EE646A 		vsub.f32	s13, s12, s9
 2895 06c2 77EEE67A 		vsub.f32	s15, s15, s13
 2896 06c6 F4EEC47A 		vcmpe.f32	s15, s8
 2897 06ca F1EE10FA 		vmrs	APSR_nzcv, FPSCR
 2898 06ce 00F14B81 		bmi	.L437
 2899 06d2 F5EEC07A 		vcmpe.f32	s15, #0
 2900 06d6 F1EE10FA 		vmrs	APSR_nzcv, FPSCR
 2901 06da 01DD     		ble	.L416
 2902 06dc DFED747A 		vldr.32	s15, .L464+64
 2903              	.L416:
 2904 06e0 9FED656B 		vldr.64	d6, .L464+8
 2905 06e4 B4EEC65B 		vcmpe.f64	d5, d6
 2906 06e8 F1EE10FA 		vmrs	APSR_nzcv, FPSCR
 2907 06ec 1ED5     		bpl	.L419
 2908 06ee F2EE046A 		vmov.f32	s13, #1.0e+1
 2909 06f2 DFED6D5A 		vldr.32	s11, .L464+56
 2910 06f6 DFED6D4A 		vldr.32	s9, .L464+60
 2911 06fa BFEE005A 		vmov.f32	s10, #-1.0e+0
 2912 06fe 77EE266A 		vadd.f32	s13, s14, s13
 2913 0702 66EEA56A 		vmul.f32	s13, s13, s11
 2914 0706 86EEA46A 		vdiv.f32	s12, s13, s9
 2915 070a 76EE656A 		vsub.f32	s13, s12, s11
 2916 070e 37EE667A 		vsub.f32	s14, s14, s13
 2917 0712 B4EEC57A 		vcmpe.f32	s14, s10
 2918 0716 F1EE10FA 		vmrs	APSR_nzcv, FPSCR
 2919 071a 00F12281 		bmi	.L438
 2920 071e B5EEC07A 		vcmpe.f32	s14, #0
ARM GAS  /var/folders/lg/77ksxqjx0n7gwph6nqpzcmcw0000gn/T//ccn5JkAm.s 			page 51


 2921 0722 F1EE10FA 		vmrs	APSR_nzcv, FPSCR
 2922 0726 01DD     		ble	.L419
 2923 0728 9FED617A 		vldr.32	s14, .L464+64
 2924              	.L419:
 2925 072c 5C68     		ldr	r4, [r3, #4]
 2926 072e DAF80450 		ldr	r5, [r10, #4]
 2927 0732 6048     		ldr	r0, .L464+68
 2928 0734 03EB8407 		add	r7, r3, r4, lsl #2
 2929 0738 5F4A     		ldr	r2, .L464+72
 2930 073a 0444     		add	r4, r4, r0
 2931 073c 2844     		add	r0, r0, r5
 2932 073e 5F4E     		ldr	r6, .L464+76
 2933 0740 0AEB8505 		add	r5, r10, r5, lsl #2
 2934 0744 A2FB04C1 		umull	ip, r1, r2, r4
 2935 0748 A2FB00C2 		umull	ip, r2, r2, r0
 2936 074c C90B     		lsrs	r1, r1, #15
 2937 074e C7ED037A 		vstr.32	s15, [r7, #12]
 2938 0752 D20B     		lsrs	r2, r2, #15
 2939 0754 85ED037A 		vstr.32	s14, [r5, #12]
 2940 0758 06FB1141 		mls	r1, r6, r1, r4
 2941 075c 06FB1202 		mls	r2, r6, r2, r0
 2942 0760 5960     		str	r1, [r3, #4]
 2943 0762 CAF80420 		str	r2, [r10, #4]
 2944 0766 05B0     		add	sp, sp, #20
 2945              		@ sp needed
 2946 0768 BDEC068B 		vldm	sp!, {d8-d10}
 2947 076c BDE8F08F 		pop	{r4, r5, r6, r7, r8, r9, r10, fp, pc}
 2948              	.L452:
 2949 0770 37EE677A 		vsub.f32	s14, s14, s15
 2950 0774 DFED526A 		vldr.32	s13, .L464+80
 2951 0778 E7EE267A 		vfma.f32	s15, s14, s13
 2952 077c 7DE4     		b	.L390
 2953              	.L453:
 2954 077e 30EE007A 		vadd.f32	s14, s0, s0
 2955 0782 B6EE000A 		vmov.f32	s0, #5.0e-1
 2956 0786 27EE000A 		vmul.f32	s0, s14, s0
 2957 078a B5EE400A 		vcmp.f32	s0, #0
 2958 078e B1EEC06A 		vsqrt.f32	s12, s0
 2959 0792 F1EE10FA 		vmrs	APSR_nzcv, FPSCR
 2960 0796 00F10C81 		bmi	.L454
 2961 079a B0EE000A 		vmov.f32	s0, #2.0e+0
 2962 079e DFED496A 		vldr.32	s13, .L464+84
 2963 07a2 30EE470A 		vsub.f32	s0, s0, s14
 2964 07a6 20EE260A 		vmul.f32	s0, s0, s13
 2965 07aa 70E5     		b	.L400
 2966              	.L430:
 2967 07ac DFED407A 		vldr.32	s15, .L464+64
 2968 07b0 B4E6     		b	.L406
 2969              	.L428:
 2970 07b2 B0EE6AAA 		vmov.f32	s20, s21
 2971 07b6 06E5     		b	.L393
 2972              	.L427:
 2973 07b8 B0EE66AA 		vmov.f32	s20, s13
 2974 07bc 88E4     		b	.L391
 2975              	.L429:
 2976 07be DFED427A 		vldr.32	s15, .L464+88
 2977 07c2 ABE6     		b	.L406
ARM GAS  /var/folders/lg/77ksxqjx0n7gwph6nqpzcmcw0000gn/T//ccn5JkAm.s 			page 52


 2978              	.L407:
 2979 07c4 26EEA17A 		vmul.f32	s14, s13, s3
 2980 07c8 DFED3F5A 		vldr.32	s11, .L464+88
 2981 07cc 26EE816A 		vmul.f32	s12, s13, s2
 2982 07d0 DFED334A 		vldr.32	s9, .L464+48
 2983 07d4 F0EE617A 		vmov.f32	s15, s3
 2984 07d8 F0EE416A 		vmov.f32	s13, s2
 2985 07dc 29EE079A 		vmul.f32	s18, s18, s14
 2986 07e0 E1EE257A 		vfma.f32	s15, s2, s11
 2987 07e4 E1EEA56A 		vfma.f32	s13, s3, s11
 2988 07e8 68EE868A 		vmul.f32	s17, s17, s12
 2989 07ec B0EE655A 		vmov.f32	s10, s11
 2990 07f0 77EE877A 		vadd.f32	s15, s15, s14
 2991 07f4 36EE867A 		vadd.f32	s14, s13, s12
 2992 07f8 E9EE247A 		vfma.f32	s15, s18, s9
 2993 07fc A8EEA47A 		vfma.f32	s14, s17, s9
 2994 0800 E7EE257A 		vfma.f32	s15, s14, s11
 2995 0804 EEE6     		b	.L409
 2996              	.L382:
 2997 0806 D3F8C010 		ldr	r1, [r3, #192]
 2998 080a 0029     		cmp	r1, #0
 2999 080c 40F3E980 		ble	.L426
 3000 0810 1A46     		mov	r2, r3
 3001 0812 03EB8100 		add	r0, r3, r1, lsl #2
 3002 0816 DFED267A 		vldr.32	s15, .L464+64
 3003              	.L385:
 3004 081a B2EC017A 		vldmia.32	r2!, {s14}
 3005 081e 9042     		cmp	r0, r2
 3006 0820 77EE877A 		vadd.f32	s15, s15, s14
 3007 0824 F9D1     		bne	.L385
 3008              	.L384:
 3009 0826 07EE101A 		vmov	s14, r1	@ int
 3010 082a B8EEC77A 		vcvt.f32.s32	s14, s14
 3011 082e 87EE870A 		vdiv.f32	s0, s15, s14
 3012 0832 B5EE400A 		vcmp.f32	s0, #0
 3013 0836 F1EEC08A 		vsqrt.f32	s17, s0
 3014 083a F1EE10FA 		vmrs	APSR_nzcv, FPSCR
 3015 083e 00F1EC80 		bmi	.L460
 3016              	.L386:
 3017 0842 224A     		ldr	r2, .L464+92
 3018 0844 02F1C000 		add	r0, r2, #192
 3019              	.L387:
 3020 0848 0021     		movs	r1, #0
 3021 084a 42F8041B 		str	r1, [r2], #4	@ float
 3022 084e 9042     		cmp	r0, r2
 3023 0850 FAD1     		bne	.L387
 3024 0852 1F4A     		ldr	r2, .L464+96
 3025 0854 F2EE047A 		vmov.f32	s15, #1.0e+1
 3026 0858 1E49     		ldr	r1, .L464+100
 3027 085a 92ED007A 		vldr.32	s14, [r2]
 3028 085e 0122     		movs	r2, #1
 3029 0860 28EE877A 		vmul.f32	s14, s17, s14
 3030 0864 27EE277A 		vmul.f32	s14, s14, s15
 3031 0868 81ED007A 		vstr.32	s14, [r1]
 3032 086c FFF7EDBB 		b	.L383
 3033              	.L465:
 3034              		.align	3
ARM GAS  /var/folders/lg/77ksxqjx0n7gwph6nqpzcmcw0000gn/T//ccn5JkAm.s 			page 53


 3035              	.L464:
 3036 0870 9A999999 		.word	2576980378
 3037 0874 9999D93F 		.word	1071225241
 3038 0878 9A999999 		.word	2576980378
 3039 087c 9999D9BF 		.word	-1076258407
 3040 0880 00000000 		.word	.LANCHOR38
 3041 0884 00000000 		.word	.LANCHOR65
 3042 0888 0C73C602 		.word	_ZL4dell
 3043 088c 00009643 		.word	1133903872
 3044 0890 00000000 		.word	.LANCHOR66
 3045 0894 00000000 		.word	.LANCHOR67
 3046 0898 C3F5A83E 		.word	1051260355
 3047 089c 00004843 		.word	1128792064
 3048 08a0 0AD7233C 		.word	1008981770
 3049 08a4 CDCCCC3E 		.word	1053609165
 3050 08a8 9A99193F 		.word	1058642330
 3051 08ac 9A991941 		.word	1092196762
 3052 08b0 00000000 		.word	0
 3053 08b4 BFD40100 		.word	119999
 3054 08b8 73B2E745 		.word	1172812403
 3055 08bc C0D40100 		.word	120000
 3056 08c0 CDCC4C3D 		.word	1028443341
 3057 08c4 3333733F 		.word	1064514355
 3058 08c8 6666663F 		.word	1063675494
 3059 08cc 00000000 		.word	.LANCHOR53
 3060 08d0 00000000 		.word	.LANCHOR54
 3061 08d4 00000000 		.word	.LANCHOR52
 3062              	.L395:
 3063 08d8 0023     		movs	r3, #0
 3064 08da 0A22     		movs	r2, #10
 3065 08dc CAF81C30 		str	r3, [r10, #28]	@ float
 3066 08e0 CAF82030 		str	r3, [r10, #32]	@ float
 3067 08e4 CAF82430 		str	r3, [r10, #36]	@ float
 3068 08e8 CAF82830 		str	r3, [r10, #40]	@ float
 3069 08ec CAF82C30 		str	r3, [r10, #44]	@ float
 3070 08f0 CAF83030 		str	r3, [r10, #48]	@ float
 3071 08f4 CAE90122 		strd	r2, r2, [r10, #4]
 3072 08f8 FFF7FEFF 		bl	rand
 3073 08fc 4E49     		ldr	r1, .L466+16
 3074 08fe 0B68     		ldr	r3, [r1]
 3075 0900 90FBF3F2 		sdiv	r2, r0, r3
 3076 0904 02FB1303 		mls	r3, r2, r3, r0
 3077 0908 07EE903A 		vmov	s15, r3	@ int
 3078 090c B8EEE7AA 		vcvt.f32.s32	s20, s15
 3079 0910 FFF7FEFF 		bl	rand
 3080 0914 494A     		ldr	r2, .L466+20
 3081 0916 B1EE046A 		vmov.f32	s12, #5.0e+0
 3082 091a 4749     		ldr	r1, .L466+16
 3083 091c D2ED007A 		vldr.32	s15, [r2]
 3084 0920 0B68     		ldr	r3, [r1]
 3085 0922 6AEE277A 		vmul.f32	s15, s20, s15
 3086 0926 9FED467A 		vldr.32	s14, .L466+24
 3087 092a 4649     		ldr	r1, .L466+28
 3088 092c DFF828C1 		ldr	ip, .L466+48
 3089 0930 C7EE866A 		vdiv.f32	s13, s15, s12
 3090 0934 90FBF3F2 		sdiv	r2, r0, r3
 3091 0938 02FB1300 		mls	r0, r2, r3, r0
ARM GAS  /var/folders/lg/77ksxqjx0n7gwph6nqpzcmcw0000gn/T//ccn5JkAm.s 			page 54


 3092 093c 07EE900A 		vmov	s15, r0	@ int
 3093 0940 CBF80000 		str	r0, [fp]
 3094 0944 F8EEE75A 		vcvt.f32.s32	s11, s15
 3095 0948 76EE876A 		vadd.f32	s13, s13, s14
 3096 094c CCED005A 		vstr.32	s11, [ip]
 3097 0950 C1ED006A 		vstr.32	s13, [r1]
 3098 0954 57E4     		b	.L396
 3099              	.L431:
 3100 0956 9FED3C6A 		vldr.32	s12, .L466+32
 3101 095a 1BE6     		b	.L408
 3102              	.L432:
 3103 095c 9FED3A5A 		vldr.32	s10, .L466+32
 3104 0960 40E6     		b	.L409
 3105              	.L438:
 3106 0962 B0EE457A 		vmov.f32	s14, s10
 3107 0966 E1E6     		b	.L419
 3108              	.L437:
 3109 0968 F0EE447A 		vmov.f32	s15, s8
 3110 096c B8E6     		b	.L416
 3111              	.L435:
 3112 096e B0EE647A 		vmov.f32	s14, s9
 3113              	.L415:
 3114 0972 9FED2D5B 		vldr.64	d5, .L466
 3115 0976 B4EEC56B 		vcmpe.f64	d6, d5
 3116 097a F1EE10FA 		vmrs	APSR_nzcv, FPSCR
 3117 097e 7FF5D5AE 		bpl	.L419
 3118 0982 B7EEC75A 		vcvt.f64.f32	d5, s14
 3119 0986 8CE6     		b	.L423
 3120              	.L433:
 3121 0988 F0EE657A 		vmov.f32	s15, s11
 3122              	.L412:
 3123 098c B7EEC75A 		vcvt.f64.f32	d5, s14
 3124 0990 9FED276B 		vldr.64	d6, .L466+8
 3125 0994 B4EEC65B 		vcmpe.f64	d5, d6
 3126 0998 F1EE10FA 		vmrs	APSR_nzcv, FPSCR
 3127 099c 7FF7A0AE 		ble	.L416
 3128 09a0 B7EEE76A 		vcvt.f64.f32	d6, s15
 3129 09a4 54E6     		b	.L425
 3130              	.L434:
 3131 09a6 F0EE667A 		vmov.f32	s15, s13
 3132 09aa EFE7     		b	.L412
 3133              	.L436:
 3134 09ac B0EE657A 		vmov.f32	s14, s11
 3135 09b0 DFE7     		b	.L415
 3136              	.L454:
 3137 09b2 8DED016A 		vstr.32	s12, [sp, #4]	@ int
 3138 09b6 FFF7FEFF 		bl	sqrtf
 3139 09ba 2448     		ldr	r0, .L466+36
 3140 09bc F0EE007A 		vmov.f32	s15, #2.0e+0
 3141 09c0 234B     		ldr	r3, .L466+40
 3142 09c2 D0ED006A 		vldr.32	s13, [r0]
 3143 09c6 9FED237A 		vldr.32	s14, .L466+44
 3144 09ca E6EEE77A 		vfms.f32	s15, s13, s15
 3145 09ce 9A68     		ldr	r2, [r3, #8]
 3146 09d0 9DED016A 		vldr.32	s12, [sp, #4]	@ int
 3147 09d4 B0EE670A 		vmov.f32	s0, s15
 3148 09d8 D3ED007A 		vldr.32	s15, [r3]
ARM GAS  /var/folders/lg/77ksxqjx0n7gwph6nqpzcmcw0000gn/T//ccn5JkAm.s 			page 55


 3149 09dc 20EE070A 		vmul.f32	s0, s0, s14
 3150 09e0 55E4     		b	.L400
 3151              	.L426:
 3152 09e2 DFED197A 		vldr.32	s15, .L466+32
 3153 09e6 1EE7     		b	.L384
 3154              	.L458:
 3155 09e8 B0EE670A 		vmov.f32	s0, s15
 3156 09ec FFF7FEFF 		bl	sqrtf
 3157 09f0 1648     		ldr	r0, .L466+36
 3158 09f2 90ED000A 		vldr.32	s0, [r0]
 3159 09f6 30EE007A 		vadd.f32	s14, s0, s0
 3160 09fa 85E4     		b	.L404
 3161              	.L457:
 3162 09fc 8DED017A 		vstr.32	s14, [sp, #4]	@ int
 3163 0a00 FFF7FEFF 		bl	sqrtf
 3164 0a04 1148     		ldr	r0, .L466+36
 3165 0a06 9DED017A 		vldr.32	s14, [sp, #4]	@ int
 3166 0a0a 69E4     		b	.L403
 3167              	.L459:
 3168 0a0c CDED017A 		vstr.32	s15, [sp, #4]	@ int
 3169 0a10 FFF7FEFF 		bl	sqrtf
 3170 0a14 DDED017A 		vldr.32	s15, [sp, #4]	@ int
 3171 0a18 AAE4     		b	.L405
 3172              	.L460:
 3173 0a1a 0193     		str	r3, [sp, #4]
 3174 0a1c FFF7FEFF 		bl	sqrtf
 3175 0a20 019B     		ldr	r3, [sp, #4]
 3176 0a22 0EE7     		b	.L386
 3177              	.L467:
 3178 0a24 AFF30080 		.align	3
 3179              	.L466:
 3180 0a28 9A999999 		.word	2576980378
 3181 0a2c 9999D9BF 		.word	-1076258407
 3182 0a30 9A999999 		.word	2576980378
 3183 0a34 9999D93F 		.word	1071225241
 3184 0a38 00000000 		.word	.LANCHOR58
 3185 0a3c 00000000 		.word	.LANCHOR62
 3186 0a40 6F12833A 		.word	981668463
 3187 0a44 00000000 		.word	.LANCHOR60
 3188 0a48 00000000 		.word	0
 3189 0a4c 00000000 		.word	.LANCHOR64
 3190 0a50 0C73C602 		.word	_ZL4dell
 3191 0a54 3333733F 		.word	1064514355
 3192 0a58 00000000 		.word	.LANCHOR61
 3194              		.section	.text._Z17ResetLooperBufferv,"ax",%progbits
 3195              		.align	1
 3196              		.p2align 2,,3
 3197              		.global	_Z17ResetLooperBufferv
 3198              		.syntax unified
 3199              		.thumb
 3200              		.thumb_func
 3201              		.fpu fpv5-d16
 3203              	_Z17ResetLooperBufferv:
 3204              		@ args = 0, pretend = 0, frame = 0
 3205              		@ frame_needed = 0, uses_anonymous_args = 0
 3206              		@ link register save eliminated.
 3207 0000 0023     		movs	r3, #0
ARM GAS  /var/folders/lg/77ksxqjx0n7gwph6nqpzcmcw0000gn/T//ccn5JkAm.s 			page 56


 3208 0002 144A     		ldr	r2, .L472
 3209 0004 1448     		ldr	r0, .L472+4
 3210 0006 1549     		ldr	r1, .L472+8
 3211 0008 30B4     		push	{r4, r5}
 3212 000a 1370     		strb	r3, [r2]
 3213 000c 144C     		ldr	r4, .L472+12
 3214 000e 154D     		ldr	r5, .L472+16
 3215 0010 154A     		ldr	r2, .L472+20
 3216 0012 2360     		str	r3, [r4]
 3217 0014 0360     		str	r3, [r0]
 3218 0016 0B60     		str	r3, [r1]
 3219 0018 144C     		ldr	r4, .L472+24
 3220 001a 1548     		ldr	r0, .L472+28
 3221 001c 1549     		ldr	r1, .L472+32
 3222 001e 2B60     		str	r3, [r5]
 3223 0020 0025     		movs	r5, #0
 3224 0022 1360     		str	r3, [r2]
 3225 0024 144B     		ldr	r3, .L472+36
 3226 0026 2560     		str	r5, [r4]	@ float
 3227 0028 0560     		str	r5, [r0]	@ float
 3228 002a 0D60     		str	r5, [r1]	@ float
 3229 002c 1D60     		str	r5, [r3]	@ float
 3230 002e 134A     		ldr	r2, .L472+40
 3231 0030 134C     		ldr	r4, .L472+44
 3232 0032 1448     		ldr	r0, .L472+48
 3233 0034 1449     		ldr	r1, .L472+52
 3234 0036 154D     		ldr	r5, .L472+56
 3235              	.L469:
 3236 0038 0023     		movs	r3, #0
 3237 003a 42F8043B 		str	r3, [r2], #4	@ float
 3238 003e AA42     		cmp	r2, r5
 3239 0040 44F8043B 		str	r3, [r4], #4	@ float
 3240 0044 40F8043B 		str	r3, [r0], #4	@ float
 3241 0048 41F8043B 		str	r3, [r1], #4	@ float
 3242 004c F4D1     		bne	.L469
 3243 004e 30BC     		pop	{r4, r5}
 3244 0050 7047     		bx	lr
 3245              	.L473:
 3246 0052 00BF     		.align	2
 3247              	.L472:
 3248 0054 00000000 		.word	.LANCHOR68
 3249 0058 00000000 		.word	.LANCHOR75
 3250 005c 00000000 		.word	.LANCHOR76
 3251 0060 00000000 		.word	.LANCHOR73
 3252 0064 00000000 		.word	.LANCHOR74
 3253 0068 00000000 		.word	.LANCHOR77
 3254 006c 00000000 		.word	.LANCHOR69
 3255 0070 00000000 		.word	.LANCHOR70
 3256 0074 00000000 		.word	.LANCHOR71
 3257 0078 00000000 		.word	.LANCHOR72
 3258 007c 00000000 		.word	mlooper_buf_1l
 3259 0080 00000000 		.word	mlooper_buf_1r
 3260 0084 00000000 		.word	mlooper_frozen_buf_1l
 3261 0088 00000000 		.word	mlooper_frozen_buf_1r
 3262 008c 00C8AF00 		.word	mlooper_buf_1l+11520000
 3264              		.section	.text.startup.main,"ax",%progbits
 3265              		.align	1
ARM GAS  /var/folders/lg/77ksxqjx0n7gwph6nqpzcmcw0000gn/T//ccn5JkAm.s 			page 57


 3266              		.p2align 2,,3
 3267              		.global	main
 3268              		.syntax unified
 3269              		.thumb
 3270              		.thumb_func
 3271              		.fpu fpv5-d16
 3273              	main:
 3274              		@ args = 0, pretend = 0, frame = 32
 3275              		@ frame_needed = 0, uses_anonymous_args = 0
 3276 0000 2DE9F04F 		push	{r4, r5, r6, r7, r8, r9, r10, fp, lr}
 3277 0004 0121     		movs	r1, #1
 3278 0006 C848     		ldr	r0, .L495
 3279 0008 2DED048B 		vpush.64	{d8, d9}
 3280 000c 89B0     		sub	sp, sp, #36
 3281 000e FFF7FEFF 		bl	_ZN5daisy11DaisyVersio4InitEb
 3282 0012 C548     		ldr	r0, .L495
 3283 0014 FFF7FEFF 		bl	_ZN5daisy11DaisyVersio15AudioSampleRateEv
 3284 0018 C448     		ldr	r0, .L495+4
 3285 001a F0EE408A 		vmov.f32	s17, s0
 3286 001e FFF7FEFF 		bl	_ZN7daisysp8ReverbSc4InitEf
 3287 0022 C34B     		ldr	r3, .L495+8
 3288 0024 C349     		ldr	r1, .L495+12
 3289              	.L475:
 3290 0026 0022     		movs	r2, #0
 3291 0028 43F8042B 		str	r2, [r3], #4	@ float
 3292 002c 8B42     		cmp	r3, r1
 3293 002e FAD1     		bne	.L475
 3294 0030 C14F     		ldr	r7, .L495+16
 3295 0032 0020     		movs	r0, #0
 3296 0034 0121     		movs	r1, #1
 3297 0036 C14B     		ldr	r3, .L495+20
 3298 0038 C14A     		ldr	r2, .L495+24
 3299 003a C7E90101 		strd	r0, r1, [r7, #4]
 3300              	.L476:
 3301 003e 9FEDC18A 		vldr.32	s16, .L495+28
 3302 0042 A3EC018A 		vstmia.32	r3!, {s16}
 3303 0046 9342     		cmp	r3, r2
 3304 0048 F9D1     		bne	.L476
 3305 004a 0123     		movs	r3, #1
 3306 004c 0024     		movs	r4, #0
 3307 004e DFF89C83 		ldr	r8, .L495+196
 3308 0052 B0EE680A 		vmov.f32	s0, s17
 3309 0056 BC48     		ldr	r0, .L495+32
 3310 0058 4FF07C59 		mov	r9, #1056964608
 3311 005c C8F80830 		str	r3, [r8, #8]
 3312 0060 01AD     		add	r5, sp, #4
 3313 0062 C8F80440 		str	r4, [r8, #4]
 3314 0066 FFF7FEFF 		bl	_ZN7daisysp4Tone4InitEf
 3315 006a B0EE680A 		vmov.f32	s0, s17
 3316 006e B748     		ldr	r0, .L495+36
 3317 0070 FFF7FEFF 		bl	_ZN7daisysp4Tone4InitEf
 3318 0074 B0EE680A 		vmov.f32	s0, s17
 3319 0078 B548     		ldr	r0, .L495+40
 3320 007a 4FF0FF3B 		mov	fp, #-1
 3321 007e FFF7FEFF 		bl	_ZN7daisysp3Svf4InitEf
 3322 0082 B0EE480A 		vmov.f32	s0, s16
 3323 0086 B248     		ldr	r0, .L495+40
ARM GAS  /var/folders/lg/77ksxqjx0n7gwph6nqpzcmcw0000gn/T//ccn5JkAm.s 			page 58


 3324 0088 FFF7FEFF 		bl	_ZN7daisysp3Svf7SetFreqEf
 3325 008c 00EE109A 		vmov	s0, r9
 3326 0090 AF48     		ldr	r0, .L495+40
 3327 0092 FFF7FEFF 		bl	_ZN7daisysp3Svf6SetResEf
 3328 0096 B0EE680A 		vmov.f32	s0, s17
 3329 009a AE48     		ldr	r0, .L495+44
 3330 009c FFF7FEFF 		bl	_ZN7daisysp3Svf4InitEf
 3331 00a0 B0EE480A 		vmov.f32	s0, s16
 3332 00a4 AB48     		ldr	r0, .L495+44
 3333 00a6 FFF7FEFF 		bl	_ZN7daisysp3Svf7SetFreqEf
 3334 00aa 00EE109A 		vmov	s0, r9
 3335 00ae A948     		ldr	r0, .L495+44
 3336 00b0 FFF7FEFF 		bl	_ZN7daisysp3Svf6SetResEf
 3337 00b4 A84E     		ldr	r6, .L495+48
 3338 00b6 A94A     		ldr	r2, .L495+52
 3339 00b8 B0EE680A 		vmov.f32	s0, s17
 3340 00bc A84B     		ldr	r3, .L495+56
 3341 00be 3046     		mov	r0, r6
 3342 00c0 DFF82CE3 		ldr	lr, .L495+200
 3343 00c4 DFF82CC3 		ldr	ip, .L495+204
 3344 00c8 A649     		ldr	r1, .L495+60
 3345 00ca 82ED048A 		vstr.32	s16, [r2, #16]
 3346 00ce 82ED038A 		vstr.32	s16, [r2, #12]
 3347 00d2 83ED048A 		vstr.32	s16, [r3, #16]
 3348 00d6 83ED038A 		vstr.32	s16, [r3, #12]
 3349 00da C2F800E0 		str	lr, [r2]	@ float
 3350 00de C3F800E0 		str	lr, [r3]	@ float
 3351 00e2 C2F804C0 		str	ip, [r2, #4]	@ float
 3352 00e6 C3F804C0 		str	ip, [r3, #4]	@ float
 3353 00ea 9160     		str	r1, [r2, #8]	@ float
 3354 00ec 9960     		str	r1, [r3, #8]	@ float
 3355 00ee FFF7FEFF 		bl	_ZN7daisysp6Biquad4InitEf
 3356 00f2 3046     		mov	r0, r6
 3357 00f4 86ED018A 		vstr.32	s16, [r6, #4]
 3358 00f8 FFF7FEFF 		bl	_ZN7daisysp6Biquad5ResetEv
 3359 00fc 3046     		mov	r0, r6
 3360 00fe C6F80890 		str	r9, [r6, #8]	@ float
 3361 0102 FFF7FEFF 		bl	_ZN7daisysp6Biquad5ResetEv
 3362 0106 984B     		ldr	r3, .L495+64
 3363 0108 B0EE680A 		vmov.f32	s0, s17
 3364 010c 9748     		ldr	r0, .L495+68
 3365 010e C3ED008A 		vstr.32	s17, [r3]
 3366 0112 FFF7FEFF 		bl	_ZN7daisysp7DcBlock4InitEf
 3367 0116 B0EE680A 		vmov.f32	s0, s17
 3368 011a 9548     		ldr	r0, .L495+72
 3369 011c FFF7FEFF 		bl	_ZN7daisysp7DcBlock4InitEf
 3370 0120 B0EE680A 		vmov.f32	s0, s17
 3371 0124 9348     		ldr	r0, .L495+76
 3372 0126 FFF7FEFF 		bl	_ZN7daisysp7DcBlock4InitEf
 3373 012a B0EE680A 		vmov.f32	s0, s17
 3374 012e 9248     		ldr	r0, .L495+80
 3375 0130 FFF7FEFF 		bl	_ZN7daisysp7DcBlock4InitEf
 3376 0134 9149     		ldr	r1, .L495+84
 3377 0136 924A     		ldr	r2, .L495+88
 3378 0138 924B     		ldr	r3, .L495+92
 3379 013a C1F80090 		str	r9, [r1]	@ float
 3380 013e C2F80090 		str	r9, [r2]	@ float
ARM GAS  /var/folders/lg/77ksxqjx0n7gwph6nqpzcmcw0000gn/T//ccn5JkAm.s 			page 59


 3381 0142 C3ED008A 		vstr.32	s17, [r3]
 3382 0146 9048     		ldr	r0, .L495+96
 3383 0148 9049     		ldr	r1, .L495+100
 3384 014a 914A     		ldr	r2, .L495+104
 3385 014c 914B     		ldr	r3, .L495+108
 3386 014e 924E     		ldr	r6, .L495+112
 3387 0150 C0ED008A 		vstr.32	s17, [r0]
 3388 0154 81ED008A 		vstr.32	s16, [r1]
 3389 0158 82ED008A 		vstr.32	s16, [r2]
 3390 015c 83ED008A 		vstr.32	s16, [r3]
 3391 0160 DFF894E2 		ldr	lr, .L495+208
 3392 0164 DFF894C2 		ldr	ip, .L495+212
 3393 0168 DFF894A2 		ldr	r10, .L495+216
 3394 016c DFED8B0A 		vldr.32	s1, .L495+116
 3395 0170 9FED8B0A 		vldr.32	s0, .L495+120
 3396 0174 CAF80090 		str	r9, [r10]	@ float
 3397 0178 4FF07E5A 		mov	r10, #1065353216
 3398 017c CEF80090 		str	r9, [lr]	@ float
 3399 0180 CCED008A 		vstr.32	s17, [ip]
 3400 0184 0FCE     		ldmia	r6!, {r0, r1, r2, r3}
 3401 0186 0FC5     		stmia	r5!, {r0, r1, r2, r3}
 3402 0188 96E80700 		ldm	r6, {r0, r1, r2}
 3403 018c 85E80700 		stm	r5, {r0, r1, r2}
 3404 0190 01A9     		add	r1, sp, #4
 3405 0192 0222     		movs	r2, #2
 3406 0194 8348     		ldr	r0, .L495+124
 3407 0196 06F10C09 		add	r9, r6, #12
 3408 019a FFF7FEFF 		bl	_ZN5daisy9Parameter4InitENS_13AnalogControlEffNS0_5CurveE
 3409 019e 06F1600C 		add	ip, r6, #96
 3410 01a2 0DF1040E 		add	lr, sp, #4
 3411 01a6 DFED7D0A 		vldr.32	s1, .L495+116
 3412 01aa 9FED7D0A 		vldr.32	s0, .L495+120
 3413 01ae BCE80F00 		ldmia	ip!, {r0, r1, r2, r3}
 3414 01b2 AEE80F00 		stmia	lr!, {r0, r1, r2, r3}
 3415 01b6 9CE80700 		ldm	ip, {r0, r1, r2}
 3416 01ba 85E80700 		stm	r5, {r0, r1, r2}
 3417 01be 01A9     		add	r1, sp, #4
 3418 01c0 0222     		movs	r2, #2
 3419 01c2 7948     		ldr	r0, .L495+128
 3420 01c4 FFF7FEFF 		bl	_ZN5daisy9Parameter4InitENS_13AnalogControlEffNS0_5CurveE
 3421 01c8 0DF1040C 		add	ip, sp, #4
 3422 01cc DFED730A 		vldr.32	s1, .L495+116
 3423 01d0 9FED760A 		vldr.32	s0, .L495+132
 3424 01d4 B9E80F00 		ldmia	r9!, {r0, r1, r2, r3}
 3425 01d8 ACE80F00 		stmia	ip!, {r0, r1, r2, r3}
 3426 01dc 99E80700 		ldm	r9, {r0, r1, r2}
 3427 01e0 85E80700 		stm	r5, {r0, r1, r2}
 3428 01e4 01A9     		add	r1, sp, #4
 3429 01e6 0222     		movs	r2, #2
 3430 01e8 7148     		ldr	r0, .L495+136
 3431 01ea FFF7FEFF 		bl	_ZN5daisy9Parameter4InitENS_13AnalogControlEffNS0_5CurveE
 3432 01ee 06F1280C 		add	ip, r6, #40
 3433 01f2 704A     		ldr	r2, .L495+140
 3434 01f4 0DF1040E 		add	lr, sp, #4
 3435 01f8 6F4B     		ldr	r3, .L495+144
 3436 01fa 0C36     		adds	r6, r6, #12
 3437 01fc 1460     		str	r4, [r2]
ARM GAS  /var/folders/lg/77ksxqjx0n7gwph6nqpzcmcw0000gn/T//ccn5JkAm.s 			page 60


 3438 01fe B3EE040A 		vmov.f32	s0, #2.0e+1
 3439 0202 5C60     		str	r4, [r3, #4]
 3440 0204 DFED650A 		vldr.32	s1, .L495+116
 3441 0208 BCE80F00 		ldmia	ip!, {r0, r1, r2, r3}
 3442 020c AEE80F00 		stmia	lr!, {r0, r1, r2, r3}
 3443 0210 9CE80700 		ldm	ip, {r0, r1, r2}
 3444 0214 694B     		ldr	r3, .L495+148
 3445 0216 DFF8ECC1 		ldr	ip, .L495+220
 3446 021a DFF8ECE1 		ldr	lr, .L495+224
 3447 021e CCF800A0 		str	r10, [ip]	@ float
 3448 0222 CCF804A0 		str	r10, [ip, #4]	@ float
 3449 0226 C3F800A0 		str	r10, [r3]	@ float
 3450 022a DFF8E0C1 		ldr	ip, .L495+228
 3451 022e C3F804A0 		str	r10, [r3, #4]	@ float
 3452 0232 634B     		ldr	r3, .L495+152
 3453 0234 8CED008A 		vstr.32	s16, [ip]
 3454 0238 8CED018A 		vstr.32	s16, [ip, #4]
 3455 023c 83ED008A 		vstr.32	s16, [r3]
 3456 0240 83ED018A 		vstr.32	s16, [r3, #4]
 3457 0244 85E80700 		stm	r5, {r0, r1, r2}
 3458 0248 01A9     		add	r1, sp, #4
 3459 024a 0222     		movs	r2, #2
 3460 024c 5D48     		ldr	r0, .L495+156
 3461 024e CEE900BB 		strd	fp, fp, [lr]
 3462 0252 FFF7FEFF 		bl	_ZN5daisy9Parameter4InitENS_13AnalogControlEffNS0_5CurveE
 3463 0256 0DF1040C 		add	ip, sp, #4
 3464 025a B1EE000A 		vmov.f32	s0, #4.0e+0
 3465 025e DFED5A0A 		vldr.32	s1, .L495+160
 3466 0262 0FCE     		ldmia	r6!, {r0, r1, r2, r3}
 3467 0264 ACE80F00 		stmia	ip!, {r0, r1, r2, r3}
 3468 0268 99E80700 		ldm	r9, {r0, r1, r2}
 3469 026c 28EE800A 		vmul.f32	s0, s17, s0
 3470 0270 564E     		ldr	r6, .L495+164
 3471 0272 68EEA00A 		vmul.f32	s1, s17, s1
 3472 0276 85E80700 		stm	r5, {r0, r1, r2}
 3473 027a 01A9     		add	r1, sp, #4
 3474 027c 0222     		movs	r2, #2
 3475 027e 5448     		ldr	r0, .L495+168
 3476 0280 FFF7FEFF 		bl	_ZN5daisy9Parameter4InitENS_13AnalogControlEffNS0_5CurveE
 3477 0284 F6EE087A 		vmov.f32	s15, #7.5e-1
 3478 0288 DFF884C1 		ldr	ip, .L495+232
 3479 028c 2346     		mov	r3, r4
 3480 028e 5149     		ldr	r1, .L495+172
 3481 0290 68EEA77A 		vmul.f32	s15, s17, s15
 3482 0294 2548     		ldr	r0, .L495+4
 3483 0296 504D     		ldr	r5, .L495+176
 3484 0298 504C     		ldr	r4, .L495+180
 3485 029a BDEEE77A 		vcvt.s32.f32	s14, s15
 3486 029e CCED007A 		vstr.32	s15, [ip]
 3487 02a2 C6ED007A 		vstr.32	s15, [r6]
 3488 02a6 4E4A     		ldr	r2, .L495+184
 3489 02a8 17EE10CA 		vmov	ip, s14	@ int
 3490 02ac F8EEC76A 		vcvt.f32.s32	s13, s14
 3491 02b0 4560     		str	r5, [r0, #4]	@ float
 3492 02b2 8C45     		cmp	ip, r1
 3493 02b4 0460     		str	r4, [r0]	@ float
 3494 02b6 77EEE67A 		vsub.f32	s15, s15, s13
ARM GAS  /var/folders/lg/77ksxqjx0n7gwph6nqpzcmcw0000gn/T//ccn5JkAm.s 			page 61


 3495 02ba 28BF     		it	cs
 3496 02bc 8C46     		movcs	ip, r1
 3497 02be C7ED007A 		vstr.32	s15, [r7]
 3498 02c2 C7F808C0 		str	ip, [r7, #8]
 3499 02c6 C8F808C0 		str	ip, [r8, #8]
 3500 02ca C8ED007A 		vstr.32	s15, [r8]
 3501 02ce 10E0     		b	.L480
 3502              	.L477:
 3503 02d0 07EE103A 		vmov	s14, r3	@ int
 3504 02d4 8B42     		cmp	r3, r1
 3505 02d6 B8EEC77A 		vcvt.f32.s32	s14, s14
 3506 02da 37EE677A 		vsub.f32	s14, s14, s15
 3507 02de C7EE067A 		vdiv.f32	s15, s14, s12
 3508 02e2 77EEA67A 		vadd.f32	s15, s15, s13
 3509 02e6 C2ED007A 		vstr.32	s15, [r2]
 3510 02ea 00F09380 		beq	.L479
 3511              	.L478:
 3512 02ee 0133     		adds	r3, r3, #1
 3513 02f0 0432     		adds	r2, r2, #4
 3514              	.L480:
 3515 02f2 2F2B     		cmp	r3, #47
 3516 02f4 DFED3B7A 		vldr.32	s15, .L495+188
 3517 02f8 40F22B11 		movw	r1, #299
 3518 02fc 9FED3A6A 		vldr.32	s12, .L495+192
 3519 0300 DFED106A 		vldr.32	s13, .L495+28
 3520 0304 E4D8     		bhi	.L477
 3521 0306 B0EE676A 		vmov.f32	s12, s15
 3522 030a 07EE903A 		vmov	s15, r3	@ int
 3523 030e F7EE006A 		vmov.f32	s13, #1.0e+0
 3524 0312 F8EEE77A 		vcvt.f32.s32	s15, s15
 3525 0316 F1EE677A 		vneg.f32	s15, s15
 3526 031a 87EE867A 		vdiv.f32	s14, s15, s12
 3527 031e 77EE267A 		vadd.f32	s15, s14, s13
 3528 0322 C2ED007A 		vstr.32	s15, [r2]
 3529 0326 E2E7     		b	.L478
 3530              	.L496:
 3531              		.align	2
 3532              	.L495:
 3533 0328 00000000 		.word	.LANCHOR78
 3534 032c 00000000 		.word	_ZL3rev
 3535 0330 1873C602 		.word	_ZL4dell+12
 3536 0334 18C6CD02 		.word	_ZL4dell+480012
 3537 0338 0C73C602 		.word	_ZL4dell
 3538 033c 0C20BF02 		.word	_ZL4delr+12
 3539 0340 0C73C602 		.word	_ZL4delr+480012
 3540 0344 00000000 		.word	0
 3541 0348 00000000 		.word	.LANCHOR36
 3542 034c 00000000 		.word	.LANCHOR38
 3543 0350 00000000 		.word	.LANCHOR37
 3544 0354 00000000 		.word	.LANCHOR39
 3545 0358 00000000 		.word	.LANCHOR79
 3546 035c 00000000 		.word	.LANCHOR47
 3547 0360 00000000 		.word	.LANCHOR49
 3548 0364 CAAA7F3F 		.word	1065331402
 3549 0368 00000000 		.word	.LANCHOR26
 3550 036c 00000000 		.word	.LANCHOR44
 3551 0370 00000000 		.word	.LANCHOR45
ARM GAS  /var/folders/lg/77ksxqjx0n7gwph6nqpzcmcw0000gn/T//ccn5JkAm.s 			page 62


 3552 0374 00000000 		.word	.LANCHOR80
 3553 0378 00000000 		.word	.LANCHOR81
 3554 037c 00000000 		.word	.LANCHOR67
 3555 0380 00000000 		.word	.LANCHOR66
 3556 0384 00000000 		.word	.LANCHOR60
 3557 0388 00000000 		.word	.LANCHOR63
 3558 038c 00000000 		.word	.LANCHOR52
 3559 0390 00000000 		.word	.LANCHOR55
 3560 0394 00000000 		.word	.LANCHOR65
 3561 0398 8C010000 		.word	.LANCHOR78+396
 3562 039c 00409C46 		.word	1184645120
 3563 03a0 00007042 		.word	1114636288
 3564 03a4 00000000 		.word	.LANCHOR84
 3565 03a8 00000000 		.word	.LANCHOR85
 3566 03ac 0000C843 		.word	1137180672
 3567 03b0 00000000 		.word	.LANCHOR86
 3568 03b4 00000000 		.word	.LANCHOR87
 3569 03b8 00000000 		.word	.LANCHOR88
 3570 03bc 00000000 		.word	.LANCHOR93
 3571 03c0 00000000 		.word	.LANCHOR91
 3572 03c4 00000000 		.word	.LANCHOR94
 3573 03c8 0000803D 		.word	1031798784
 3574 03cc 00000000 		.word	.LANCHOR29
 3575 03d0 00000000 		.word	.LANCHOR95
 3576 03d4 BFD40100 		.word	119999
 3577 03d8 00A00C46 		.word	1175232512
 3578 03dc 9A99593F 		.word	1062836634
 3579 03e0 00000000 		.word	.LANCHOR97
 3580 03e4 00004042 		.word	1111490560
 3581 03e8 00007C43 		.word	1132199936
 3582 03ec 0020BF02 		.word	_ZL4delr
 3583 03f0 22BA003D 		.word	1023457826
 3584 03f4 0AD7233C 		.word	1008981770
 3585 03f8 00000000 		.word	.LANCHOR83
 3586 03fc 00000000 		.word	.LANCHOR61
 3587 0400 00000000 		.word	.LANCHOR82
 3588 0404 00000000 		.word	.LANCHOR92
 3589 0408 00000000 		.word	.LANCHOR89
 3590 040c 00000000 		.word	.LANCHOR90
 3591 0410 00000000 		.word	.LANCHOR96
 3592              	.L479:
 3593 0414 FFF7FEFF 		bl	_Z17ResetLooperBufferv
 3594 0418 F7EE007A 		vmov.f32	s15, #1.0e+0
 3595 041c 5A4E     		ldr	r6, .L497
 3596 041e DFF8A091 		ldr	r9, .L497+56
 3597 0422 87EEA88A 		vdiv.f32	s16, s15, s17
 3598 0426 3546     		mov	r5, r6
 3599 0428 06F1F007 		add	r7, r6, #240
 3600 042c A9F11B0A 		sub	r10, r9, #27
 3601 0430 09F1060B 		add	fp, r9, #6
 3602              	.L481:
 3603 0434 4FF00008 		mov	r8, #0
 3604 0438 4FF07C53 		mov	r3, #1056964608
 3605 043c 9FED530A 		vldr.32	s0, .L497+4
 3606 0440 2846     		mov	r0, r5
 3607 0442 6B60     		str	r3, [r5, #4]	@ float
 3608 0444 0124     		movs	r4, #1
ARM GAS  /var/folders/lg/77ksxqjx0n7gwph6nqpzcmcw0000gn/T//ccn5JkAm.s 			page 63


 3609 0446 C5ED038A 		vstr.32	s17, [r5, #12]
 3610 044a 85ED048A 		vstr.32	s16, [r5, #16]
 3611 044e 85ED020A 		vstr.32	s0, [r5, #8]
 3612 0452 C5F81480 		str	r8, [r5, #20]	@ float
 3613 0456 FFF7FEFF 		bl	_ZN7daisysp10Oscillator12CalcPhaseIncEf
 3614 045a 0023     		movs	r3, #0
 3615 045c 85ED060A 		vstr.32	s0, [r5, #24]
 3616 0460 85F82540 		strb	r4, [r5, #37]
 3617 0464 85F82440 		strb	r4, [r5, #36]
 3618 0468 47F8048B 		str	r8, [r7], #4	@ float
 3619 046c C7F81480 		str	r8, [r7, #20]	@ float
 3620 0470 C7F82C80 		str	r8, [r7, #44]	@ float
 3621 0474 C7F84480 		str	r8, [r7, #68]	@ float
 3622 0478 05F8283B 		strb	r3, [r5], #40
 3623 047c 4AF8043F 		str	r3, [r10, #4]!
 3624 0480 09F8013F 		strb	r3, [r9, #1]!
 3625 0484 D945     		cmp	r9, fp
 3626 0486 D5D1     		bne	.L481
 3627 0488 414D     		ldr	r5, .L497+8
 3628 048a B7EE000A 		vmov.f32	s0, #1.0e+0
 3629 048e 05F58057 		add	r7, r5, #4096
 3630 0492 05F54058 		add	r8, r5, #12288
 3631 0496 16E0     		b	.L485
 3632              	.L493:
 3633 0498 77EEC07A 		vsub.f32	s15, s15, s0
 3634 049c 1160     		str	r1, [r2]	@ float
 3635 049e 67EEA67A 		vmul.f32	s15, s15, s13
 3636 04a2 C7ED007A 		vstr.32	s15, [r7]
 3637              	.L483:
 3638 04a6 07EE904A 		vmov	s15, r4	@ int
 3639 04aa 9FED3A7A 		vldr.32	s14, .L497+12
 3640 04ae 9FED3A0A 		vldr.32	s0, .L497+16
 3641 04b2 0437     		adds	r7, r7, #4
 3642 04b4 F8EEE77A 		vcvt.f32.s32	s15, s15
 3643 04b8 0134     		adds	r4, r4, #1
 3644 04ba 67EE877A 		vmul.f32	s15, s15, s14
 3645 04be 87EE800A 		vdiv.f32	s0, s15, s0
 3646 04c2 FFF7FEFF 		bl	cosf
 3647              	.L485:
 3648 04c6 631E     		subs	r3, r4, #1
 3649 04c8 0021     		movs	r1, #0
 3650 04ca 43F6FC72 		movw	r2, #16380
 3651 04ce B3F5007F 		cmp	r3, #512
 3652 04d2 45F8041B 		str	r1, [r5], #4	@ float
 3653 04d6 F7EE007A 		vmov.f32	s15, #1.0e+0
 3654 04da 2A44     		add	r2, r2, r5
 3655 04dc F6EE006A 		vmov.f32	s13, #5.0e-1
 3656 04e0 48F8041B 		str	r1, [r8], #4	@ float
 3657 04e4 D8D3     		bcc	.L493
 3658 04e6 77EEC07A 		vsub.f32	s15, s15, s0
 3659 04ea B4F5806F 		cmp	r4, #1024
 3660 04ee 67EEA67A 		vmul.f32	s15, s15, s13
 3661 04f2 C7ED007A 		vstr.32	s15, [r7]
 3662 04f6 D6D1     		bne	.L483
 3663 04f8 44F6C013 		movw	r3, #18880
 3664 04fc 0022     		movs	r2, #0
 3665 04fe 274D     		ldr	r5, .L497+20
ARM GAS  /var/folders/lg/77ksxqjx0n7gwph6nqpzcmcw0000gn/T//ccn5JkAm.s 			page 64


 3666 0500 0324     		movs	r4, #3
 3667 0502 9FED270A 		vldr.32	s0, .L497+24
 3668 0506 9FED278A 		vldr.32	s16, .L497+28
 3669 050a F254     		strb	r2, [r6, r3]
 3670 050c 0FE0     		b	.L487
 3671              	.L494:
 3672 050e 07EE903A 		vmov	s15, r3	@ int
 3673 0512 F8EEE77A 		vcvt.f32.s32	s15, s15
 3674 0516 87EE279A 		vdiv.f32	s18, s14, s15
 3675 051a B0EE490A 		vmov.f32	s0, s18
 3676 051e FFF7FEFF 		bl	cosf
 3677 0522 B0EE408A 		vmov.f32	s16, s0
 3678 0526 B0EE490A 		vmov.f32	s0, s18
 3679 052a FFF7FEFF 		bl	sinf
 3680              	.L487:
 3681 052e 0123     		movs	r3, #1
 3682 0530 85ED008A 		vstr.32	s16, [r5]
 3683 0534 85ED010A 		vstr.32	s0, [r5, #4]
 3684 0538 0835     		adds	r5, r5, #8
 3685 053a 1C44     		add	r4, r4, r3
 3686 053c 9FED1A7A 		vldr.32	s14, .L497+32
 3687 0540 0A2C     		cmp	r4, #10
 3688 0542 03FA04F3 		lsl	r3, r3, r4
 3689 0546 E2D1     		bne	.L494
 3690 0548 44F6E413 		movw	r3, #18916
 3691 054c 174A     		ldr	r2, .L497+36
 3692 054e B0EE680A 		vmov.f32	s0, s17
 3693 0552 1748     		ldr	r0, .L497+40
 3694 0554 F358     		ldr	r3, [r6, r3]
 3695 0556 9B02     		lsls	r3, r3, #10
 3696 0558 07EE903A 		vmov	s15, r3	@ int
 3697 055c F8EE677A 		vcvt.f32.u32	s15, s15
 3698 0560 88EEA77A 		vdiv.f32	s14, s17, s15
 3699 0564 82ED007A 		vstr.32	s14, [r2]
 3700 0568 FFF7FEFF 		bl	_ZN7daisysp11StringVoice4InitEf
 3701 056c B0EE680A 		vmov.f32	s0, s17
 3702 0570 1048     		ldr	r0, .L497+44
 3703 0572 FFF7FEFF 		bl	_ZN7daisysp11StringVoice4InitEf
 3704 0576 1048     		ldr	r0, .L497+48
 3705 0578 FFF7FEFF 		bl	_ZN5daisy11DaisyVersio8StartAdcEv
 3706 057c 0F49     		ldr	r1, .L497+52
 3707 057e 0E48     		ldr	r0, .L497+48
 3708 0580 FFF7FEFF 		bl	_ZN5daisy11DaisyVersio10StartAudioEPFvPPfS2_jE
 3709              	.L488:
 3710 0584 FEE7     		b	.L488
 3711              	.L498:
 3712 0586 00BF     		.align	2
 3713              	.L497:
 3714 0588 00000000 		.word	_ZL15spectra_oscbank
 3715 058c 0000C842 		.word	1120403456
 3716 0590 54010000 		.word	_ZL15spectra_oscbank+340
 3717 0594 DB0FC940 		.word	1086918619
 3718 0598 00C07F44 		.word	1149222912
 3719 059c 78490000 		.word	_ZL15spectra_oscbank+18808
 3720 05a0 16EFC33E 		.word	1053028118
 3721 05a4 5E836C3F 		.word	1064076126
 3722 05a8 DB0F4940 		.word	1078530011
ARM GAS  /var/folders/lg/77ksxqjx0n7gwph6nqpzcmcw0000gn/T//ccn5JkAm.s 			page 65


 3723 05ac 54490000 		.word	_ZL15spectra_oscbank+18772
 3724 05b0 00000000 		.word	_ZL12string_voice
 3725 05b4 E4140000 		.word	_ZL12string_voice+5348
 3726 05b8 00000000 		.word	.LANCHOR78
 3727 05bc 00000000 		.word	_ZL13AudioCallbackPPfS0_j
 3728 05c0 DB490000 		.word	_ZL15spectra_oscbank+18907
 3730              		.section	.text._Z17WriteLooperBufferff,"ax",%progbits
 3731              		.align	1
 3732              		.p2align 2,,3
 3733              		.global	_Z17WriteLooperBufferff
 3734              		.syntax unified
 3735              		.thumb
 3736              		.thumb_func
 3737              		.fpu fpv5-d16
 3739              	_Z17WriteLooperBufferff:
 3740              		@ args = 0, pretend = 0, frame = 0
 3741              		@ frame_needed = 0, uses_anonymous_args = 0
 3742              		@ link register save eliminated.
 3743 0000 70B4     		push	{r4, r5, r6}
 3744 0002 144B     		ldr	r3, .L503
 3745 0004 1448     		ldr	r0, .L503+4
 3746 0006 154C     		ldr	r4, .L503+8
 3747 0008 1B68     		ldr	r3, [r3]
 3748 000a 1549     		ldr	r1, .L503+12
 3749 000c 154A     		ldr	r2, .L503+16
 3750 000e 0068     		ldr	r0, [r0]
 3751 0010 01EB8306 		add	r6, r1, r3, lsl #2
 3752 0014 2468     		ldr	r4, [r4]
 3753 0016 02EB8305 		add	r5, r2, r3, lsl #2
 3754 001a 86ED000A 		vstr.32	s0, [r6]
 3755 001e 9B00     		lsls	r3, r3, #2
 3756 0020 A042     		cmp	r0, r4
 3757 0022 C5ED000A 		vstr.32	s1, [r5]
 3758 0026 07DD     		ble	.L500
 3759 0028 01EB8001 		add	r1, r1, r0, lsl #2
 3760 002c 02EB8002 		add	r2, r2, r0, lsl #2
 3761 0030 81ED000A 		vstr.32	s0, [r1]
 3762 0034 C2ED000A 		vstr.32	s1, [r2]
 3763              	.L500:
 3764 0038 0B4A     		ldr	r2, .L503+20
 3765 003a 1278     		ldrb	r2, [r2]	@ zero_extendqisi2
 3766 003c 3AB9     		cbnz	r2, .L499
 3767 003e 0B49     		ldr	r1, .L503+24
 3768 0040 0B4A     		ldr	r2, .L503+28
 3769 0042 1944     		add	r1, r1, r3
 3770 0044 1344     		add	r3, r3, r2
 3771 0046 81ED000A 		vstr.32	s0, [r1]
 3772 004a C3ED000A 		vstr.32	s1, [r3]
 3773              	.L499:
 3774 004e 70BC     		pop	{r4, r5, r6}
 3775 0050 7047     		bx	lr
 3776              	.L504:
 3777 0052 00BF     		.align	2
 3778              	.L503:
 3779 0054 00000000 		.word	.LANCHOR73
 3780 0058 00000000 		.word	.LANCHOR74
 3781 005c 00000000 		.word	.LANCHOR75
ARM GAS  /var/folders/lg/77ksxqjx0n7gwph6nqpzcmcw0000gn/T//ccn5JkAm.s 			page 66


 3782 0060 00000000 		.word	mlooper_buf_1l
 3783 0064 00000000 		.word	mlooper_buf_1r
 3784 0068 00000000 		.word	.LANCHOR98
 3785 006c 00000000 		.word	mlooper_frozen_buf_1l
 3786 0070 00000000 		.word	mlooper_frozen_buf_1r
 3788              		.section	.text._Z18FreezeLooperBufferv,"ax",%progbits
 3789              		.align	1
 3790              		.p2align 2,,3
 3791              		.global	_Z18FreezeLooperBufferv
 3792              		.syntax unified
 3793              		.thumb
 3794              		.thumb_func
 3795              		.fpu fpv5-d16
 3797              	_Z18FreezeLooperBufferv:
 3798              		@ args = 0, pretend = 0, frame = 0
 3799              		@ frame_needed = 0, uses_anonymous_args = 0
 3800              		@ link register save eliminated.
 3801 0000 0749     		ldr	r1, .L507
 3802 0002 084A     		ldr	r2, .L507+4
 3803 0004 084B     		ldr	r3, .L507+8
 3804 0006 1068     		ldr	r0, [r2]	@ float
 3805 0008 1A68     		ldr	r2, [r3]	@ float
 3806 000a 084B     		ldr	r3, .L507+12
 3807 000c 30B4     		push	{r4, r5}
 3808 000e 0D68     		ldr	r5, [r1]
 3809 0010 074C     		ldr	r4, .L507+16
 3810 0012 0849     		ldr	r1, .L507+20
 3811 0014 2560     		str	r5, [r4]
 3812 0016 0860     		str	r0, [r1]	@ float
 3813 0018 1A60     		str	r2, [r3]	@ float
 3814 001a 30BC     		pop	{r4, r5}
 3815 001c 7047     		bx	lr
 3816              	.L508:
 3817 001e 00BF     		.align	2
 3818              	.L507:
 3819 0020 00000000 		.word	.LANCHOR75
 3820 0024 00000000 		.word	.LANCHOR69
 3821 0028 00000000 		.word	.LANCHOR71
 3822 002c 00000000 		.word	.LANCHOR72
 3823 0030 00000000 		.word	.LANCHOR76
 3824 0034 00000000 		.word	.LANCHOR70
 3826              		.section	.rodata._Z20SelectLooperDivisionff.str1.4,"aMS",%progbits,1
 3827              		.align	2
 3828              	.LC5:
 3829 0000 20312F31 		.ascii	" 1/1\000"
 3829      00
 3830 0005 000000   		.align	2
 3831              	.LC6:
 3832 0008 20312F32 		.ascii	" 1/2\000"
 3832      00
 3833 000d 000000   		.align	2
 3834              	.LC7:
 3835 0010 20312F34 		.ascii	" 1/4\000"
 3835      00
 3836 0015 000000   		.align	2
 3837              	.LC8:
 3838 0018 20312F38 		.ascii	" 1/8\000"
ARM GAS  /var/folders/lg/77ksxqjx0n7gwph6nqpzcmcw0000gn/T//ccn5JkAm.s 			page 67


 3838      00
 3839 001d 000000   		.align	2
 3840              	.LC9:
 3841 0020 312F3136 		.ascii	"1/16\000"
 3841      00
 3842              		.section	.text._Z20SelectLooperDivisionff,"ax",%progbits
 3843              		.align	1
 3844              		.p2align 2,,3
 3845              		.global	_Z20SelectLooperDivisionff
 3846              		.syntax unified
 3847              		.thumb
 3848              		.thumb_func
 3849              		.fpu fpv5-d16
 3851              	_Z20SelectLooperDivisionff:
 3852              		@ args = 0, pretend = 0, frame = 0
 3853              		@ frame_needed = 0, uses_anonymous_args = 0
 3854 0000 DFED677A 		vldr.32	s15, .L558
 3855 0004 B4EEE70A 		vcmpe.f32	s0, s15
 3856 0008 30B5     		push	{r4, r5, lr}
 3857 000a F1EE10FA 		vmrs	APSR_nzcv, FPSCR
 3858 000e 2DED028B 		vpush.64	{d8}
 3859 0012 B0EE608A 		vmov.f32	s16, s1
 3860 0016 83B0     		sub	sp, sp, #12
 3861 0018 61D4     		bmi	.L549
 3862 001a DFED627A 		vldr.32	s15, .L558+4
 3863 001e B4EEE70A 		vcmpe.f32	s0, s15
 3864 0022 F1EE10FA 		vmrs	APSR_nzcv, FPSCR
 3865 0026 1DD4     		bmi	.L550
 3866 0028 DFED5F7A 		vldr.32	s15, .L558+8
 3867 002c B4EEE70A 		vcmpe.f32	s0, s15
 3868 0030 F1EE10FA 		vmrs	APSR_nzcv, FPSCR
 3869 0034 00F18D80 		bmi	.L551
 3870 0038 DFED5C7A 		vldr.32	s15, .L558+12
 3871 003c B4EEE70A 		vcmpe.f32	s0, s15
 3872 0040 F1EE10FA 		vmrs	APSR_nzcv, FPSCR
 3873 0044 00F19F80 		bmi	.L552
 3874 0048 18DD     		ble	.L512
 3875 004a 0423     		movs	r3, #4
 3876 004c 584C     		ldr	r4, .L558+16
 3877 004e 4FF07655 		mov	r5, #1031798784
 3878 0052 5848     		ldr	r0, .L558+20
 3879 0054 0021     		movs	r1, #0
 3880 0056 4268     		ldr	r2, [r0, #4]
 3881 0058 0093     		str	r3, [sp]
 3882 005a 574B     		ldr	r3, .L558+24
 3883 005c 2560     		str	r5, [r4]	@ float
 3884 005e FFF7FEFF 		bl	_ZNSt7__cxx1112basic_stringIcSt11char_traitsIcESaIcEE10_M_replaceEjjPKcj
 3885 0062 0BE0     		b	.L512
 3886              	.L550:
 3887 0064 0423     		movs	r3, #4
 3888 0066 4FF07C55 		mov	r5, #1056964608
 3889 006a 5248     		ldr	r0, .L558+20
 3890 006c 0021     		movs	r1, #0
 3891 006e 504C     		ldr	r4, .L558+16
 3892 0070 4268     		ldr	r2, [r0, #4]
 3893 0072 0093     		str	r3, [sp]
 3894 0074 514B     		ldr	r3, .L558+28
ARM GAS  /var/folders/lg/77ksxqjx0n7gwph6nqpzcmcw0000gn/T//ccn5JkAm.s 			page 68


 3895 0076 2560     		str	r5, [r4]	@ float
 3896 0078 FFF7FEFF 		bl	_ZNSt7__cxx1112basic_stringIcSt11char_traitsIcESaIcEE10_M_replaceEjjPKcj
 3897              	.L512:
 3898 007c DFED487A 		vldr.32	s15, .L558
 3899 0080 B4EEE78A 		vcmpe.f32	s16, s15
 3900 0084 F1EE10FA 		vmrs	APSR_nzcv, FPSCR
 3901 0088 19D4     		bmi	.L553
 3902 008a DFED467A 		vldr.32	s15, .L558+4
 3903 008e B4EEE78A 		vcmpe.f32	s16, s15
 3904 0092 F1EE10FA 		vmrs	APSR_nzcv, FPSCR
 3905 0096 2FD4     		bmi	.L554
 3906 0098 DFED437A 		vldr.32	s15, .L558+8
 3907 009c B4EEE78A 		vcmpe.f32	s16, s15
 3908 00a0 F1EE10FA 		vmrs	APSR_nzcv, FPSCR
 3909 00a4 45D4     		bmi	.L555
 3910 00a6 DFED417A 		vldr.32	s15, .L558+12
 3911 00aa B4EEE78A 		vcmpe.f32	s16, s15
 3912 00ae F1EE10FA 		vmrs	APSR_nzcv, FPSCR
 3913 00b2 5BD4     		bmi	.L556
 3914 00b4 30DC     		bgt	.L557
 3915              	.L509:
 3916 00b6 03B0     		add	sp, sp, #12
 3917              		@ sp needed
 3918 00b8 BDEC028B 		vldm	sp!, {d8}
 3919 00bc 30BD     		pop	{r4, r5, pc}
 3920              	.L553:
 3921 00be 4048     		ldr	r0, .L558+32
 3922 00c0 0423     		movs	r3, #4
 3923 00c2 4FF07E55 		mov	r5, #1065353216
 3924 00c6 3F4C     		ldr	r4, .L558+36
 3925 00c8 4268     		ldr	r2, [r0, #4]
 3926 00ca 0021     		movs	r1, #0
 3927 00cc 0093     		str	r3, [sp]
 3928 00ce 3E4B     		ldr	r3, .L558+40
 3929 00d0 2560     		str	r5, [r4]	@ float
 3930 00d2 FFF7FEFF 		bl	_ZNSt7__cxx1112basic_stringIcSt11char_traitsIcESaIcEE10_M_replaceEjjPKcj
 3931 00d6 03B0     		add	sp, sp, #12
 3932              		@ sp needed
 3933 00d8 BDEC028B 		vldm	sp!, {d8}
 3934 00dc 30BD     		pop	{r4, r5, pc}
 3935              	.L549:
 3936 00de 4FF07E55 		mov	r5, #1065353216
 3937 00e2 0423     		movs	r3, #4
 3938 00e4 324C     		ldr	r4, .L558+16
 3939 00e6 0021     		movs	r1, #0
 3940 00e8 3248     		ldr	r0, .L558+20
 3941 00ea 4268     		ldr	r2, [r0, #4]
 3942 00ec 0093     		str	r3, [sp]
 3943 00ee 364B     		ldr	r3, .L558+40
 3944 00f0 2560     		str	r5, [r4]	@ float
 3945 00f2 FFF7FEFF 		bl	_ZNSt7__cxx1112basic_stringIcSt11char_traitsIcESaIcEE10_M_replaceEjjPKcj
 3946 00f6 C1E7     		b	.L512
 3947              	.L554:
 3948 00f8 3148     		ldr	r0, .L558+32
 3949 00fa 0423     		movs	r3, #4
 3950 00fc 4FF07C55 		mov	r5, #1056964608
 3951 0100 304C     		ldr	r4, .L558+36
ARM GAS  /var/folders/lg/77ksxqjx0n7gwph6nqpzcmcw0000gn/T//ccn5JkAm.s 			page 69


 3952 0102 4268     		ldr	r2, [r0, #4]
 3953 0104 0021     		movs	r1, #0
 3954 0106 0093     		str	r3, [sp]
 3955 0108 2C4B     		ldr	r3, .L558+28
 3956 010a 2560     		str	r5, [r4]	@ float
 3957 010c FFF7FEFF 		bl	_ZNSt7__cxx1112basic_stringIcSt11char_traitsIcESaIcEE10_M_replaceEjjPKcj
 3958 0110 03B0     		add	sp, sp, #12
 3959              		@ sp needed
 3960 0112 BDEC028B 		vldm	sp!, {d8}
 3961 0116 30BD     		pop	{r4, r5, pc}
 3962              	.L557:
 3963 0118 0423     		movs	r3, #4
 3964 011a 2A4C     		ldr	r4, .L558+36
 3965 011c 4FF07655 		mov	r5, #1031798784
 3966 0120 2748     		ldr	r0, .L558+32
 3967 0122 0021     		movs	r1, #0
 3968 0124 4268     		ldr	r2, [r0, #4]
 3969 0126 0093     		str	r3, [sp]
 3970 0128 234B     		ldr	r3, .L558+24
 3971 012a 2560     		str	r5, [r4]	@ float
 3972 012c FFF7FEFF 		bl	_ZNSt7__cxx1112basic_stringIcSt11char_traitsIcESaIcEE10_M_replaceEjjPKcj
 3973 0130 C1E7     		b	.L509
 3974              	.L555:
 3975 0132 2348     		ldr	r0, .L558+32
 3976 0134 0423     		movs	r3, #4
 3977 0136 4FF07A55 		mov	r5, #1048576000
 3978 013a 224C     		ldr	r4, .L558+36
 3979 013c 4268     		ldr	r2, [r0, #4]
 3980 013e 0021     		movs	r1, #0
 3981 0140 0093     		str	r3, [sp]
 3982 0142 224B     		ldr	r3, .L558+44
 3983 0144 2560     		str	r5, [r4]	@ float
 3984 0146 FFF7FEFF 		bl	_ZNSt7__cxx1112basic_stringIcSt11char_traitsIcESaIcEE10_M_replaceEjjPKcj
 3985 014a 03B0     		add	sp, sp, #12
 3986              		@ sp needed
 3987 014c BDEC028B 		vldm	sp!, {d8}
 3988 0150 30BD     		pop	{r4, r5, pc}
 3989              	.L551:
 3990 0152 4FF07A55 		mov	r5, #1048576000
 3991 0156 0423     		movs	r3, #4
 3992 0158 154C     		ldr	r4, .L558+16
 3993 015a 0021     		movs	r1, #0
 3994 015c 1548     		ldr	r0, .L558+20
 3995 015e 4268     		ldr	r2, [r0, #4]
 3996 0160 0093     		str	r3, [sp]
 3997 0162 1A4B     		ldr	r3, .L558+44
 3998 0164 2560     		str	r5, [r4]	@ float
 3999 0166 FFF7FEFF 		bl	_ZNSt7__cxx1112basic_stringIcSt11char_traitsIcESaIcEE10_M_replaceEjjPKcj
 4000 016a 87E7     		b	.L512
 4001              	.L556:
 4002 016c 4FF07855 		mov	r5, #1040187392
 4003 0170 0423     		movs	r3, #4
 4004 0172 144C     		ldr	r4, .L558+36
 4005 0174 0021     		movs	r1, #0
 4006 0176 1248     		ldr	r0, .L558+32
 4007 0178 4268     		ldr	r2, [r0, #4]
 4008 017a 0093     		str	r3, [sp]
ARM GAS  /var/folders/lg/77ksxqjx0n7gwph6nqpzcmcw0000gn/T//ccn5JkAm.s 			page 70


 4009 017c 144B     		ldr	r3, .L558+48
 4010 017e 2560     		str	r5, [r4]	@ float
 4011 0180 FFF7FEFF 		bl	_ZNSt7__cxx1112basic_stringIcSt11char_traitsIcESaIcEE10_M_replaceEjjPKcj
 4012 0184 97E7     		b	.L509
 4013              	.L552:
 4014 0186 4FF07855 		mov	r5, #1040187392
 4015 018a 0423     		movs	r3, #4
 4016 018c 084C     		ldr	r4, .L558+16
 4017 018e 0021     		movs	r1, #0
 4018 0190 0848     		ldr	r0, .L558+20
 4019 0192 4268     		ldr	r2, [r0, #4]
 4020 0194 0093     		str	r3, [sp]
 4021 0196 0E4B     		ldr	r3, .L558+48
 4022 0198 2560     		str	r5, [r4]	@ float
 4023 019a FFF7FEFF 		bl	_ZNSt7__cxx1112basic_stringIcSt11char_traitsIcESaIcEE10_M_replaceEjjPKcj
 4024 019e 6DE7     		b	.L512
 4025              	.L559:
 4026              		.align	2
 4027              	.L558:
 4028 01a0 CDCC4C3E 		.word	1045220557
 4029 01a4 CDCCCC3E 		.word	1053609165
 4030 01a8 9A99193F 		.word	1058642330
 4031 01ac CDCC4C3F 		.word	1061997773
 4032 01b0 00000000 		.word	.LANCHOR99
 4033 01b4 00000000 		.word	.LANCHOR100
 4034 01b8 20000000 		.word	.LC9
 4035 01bc 08000000 		.word	.LC6
 4036 01c0 00000000 		.word	.LANCHOR102
 4037 01c4 00000000 		.word	.LANCHOR101
 4038 01c8 00000000 		.word	.LC5
 4039 01cc 10000000 		.word	.LC7
 4040 01d0 18000000 		.word	.LC8
 4042              		.section	.text._Z21SelectLooperPlaySpeedff,"ax",%progbits
 4043              		.align	1
 4044              		.p2align 2,,3
 4045              		.global	_Z21SelectLooperPlaySpeedff
 4046              		.syntax unified
 4047              		.thumb
 4048              		.thumb_func
 4049              		.fpu fpv5-d16
 4051              	_Z21SelectLooperPlaySpeedff:
 4052              		@ args = 0, pretend = 0, frame = 0
 4053              		@ frame_needed = 0, uses_anonymous_args = 0
 4054 0000 DFED787A 		vldr.32	s15, .L609
 4055 0004 B4EEE70A 		vcmpe.f32	s0, s15
 4056 0008 30B5     		push	{r4, r5, lr}
 4057 000a F1EE10FA 		vmrs	APSR_nzcv, FPSCR
 4058 000e 2DED028B 		vpush.64	{d8}
 4059 0012 B0EE608A 		vmov.f32	s16, s1
 4060 0016 83B0     		sub	sp, sp, #12
 4061 0018 6DD4     		bmi	.L600
 4062 001a DFED737A 		vldr.32	s15, .L609+4
 4063 001e B4EEE70A 		vcmpe.f32	s0, s15
 4064 0022 F1EE10FA 		vmrs	APSR_nzcv, FPSCR
 4065 0026 21D4     		bmi	.L601
 4066 0028 DFED707A 		vldr.32	s15, .L609+8
 4067 002c B4EEE70A 		vcmpe.f32	s0, s15
ARM GAS  /var/folders/lg/77ksxqjx0n7gwph6nqpzcmcw0000gn/T//ccn5JkAm.s 			page 71


 4068 0030 F1EE10FA 		vmrs	APSR_nzcv, FPSCR
 4069 0034 00F1A780 		bmi	.L602
 4070 0038 DFED6D7A 		vldr.32	s15, .L609+12
 4071 003c B4EEE70A 		vcmpe.f32	s0, s15
 4072 0040 F1EE10FA 		vmrs	APSR_nzcv, FPSCR
 4073 0044 00F1BE80 		bmi	.L603
 4074 0048 20DD     		ble	.L563
 4075 004a 4FF08144 		mov	r4, #1082130432
 4076 004e 0221     		movs	r1, #2
 4077 0050 684B     		ldr	r3, .L609+16
 4078 0052 4FF07C55 		mov	r5, #1056964608
 4079 0056 6848     		ldr	r0, .L609+20
 4080 0058 4268     		ldr	r2, [r0, #4]
 4081 005a 0091     		str	r1, [sp]
 4082 005c 0021     		movs	r1, #0
 4083 005e 1C60     		str	r4, [r3]	@ float
 4084 0060 664C     		ldr	r4, .L609+24
 4085 0062 674B     		ldr	r3, .L609+28
 4086 0064 2560     		str	r5, [r4]	@ float
 4087 0066 FFF7FEFF 		bl	_ZNSt7__cxx1112basic_stringIcSt11char_traitsIcESaIcEE10_M_replaceEjjPKcj
 4088 006a 0FE0     		b	.L563
 4089              	.L601:
 4090 006c 4FF07C54 		mov	r4, #1056964608
 4091 0070 0221     		movs	r1, #2
 4092 0072 604B     		ldr	r3, .L609+16
 4093 0074 4FF07E55 		mov	r5, #1065353216
 4094 0078 5F48     		ldr	r0, .L609+20
 4095 007a 4268     		ldr	r2, [r0, #4]
 4096 007c 0091     		str	r1, [sp]
 4097 007e 0021     		movs	r1, #0
 4098 0080 1C60     		str	r4, [r3]	@ float
 4099 0082 5E4C     		ldr	r4, .L609+24
 4100 0084 5F4B     		ldr	r3, .L609+32
 4101 0086 2560     		str	r5, [r4]	@ float
 4102 0088 FFF7FEFF 		bl	_ZNSt7__cxx1112basic_stringIcSt11char_traitsIcESaIcEE10_M_replaceEjjPKcj
 4103              	.L563:
 4104 008c DFED557A 		vldr.32	s15, .L609
 4105 0090 B4EEE78A 		vcmpe.f32	s16, s15
 4106 0094 F1EE10FA 		vmrs	APSR_nzcv, FPSCR
 4107 0098 19D4     		bmi	.L604
 4108 009a DFED537A 		vldr.32	s15, .L609+4
 4109 009e B4EEE78A 		vcmpe.f32	s16, s15
 4110 00a2 F1EE10FA 		vmrs	APSR_nzcv, FPSCR
 4111 00a6 37D4     		bmi	.L605
 4112 00a8 DFED507A 		vldr.32	s15, .L609+8
 4113 00ac B4EEE78A 		vcmpe.f32	s16, s15
 4114 00b0 F1EE10FA 		vmrs	APSR_nzcv, FPSCR
 4115 00b4 55D4     		bmi	.L606
 4116 00b6 DFED4E7A 		vldr.32	s15, .L609+12
 4117 00ba B4EEE78A 		vcmpe.f32	s16, s15
 4118 00be F1EE10FA 		vmrs	APSR_nzcv, FPSCR
 4119 00c2 6FD4     		bmi	.L607
 4120 00c4 3CDC     		bgt	.L608
 4121              	.L560:
 4122 00c6 03B0     		add	sp, sp, #12
 4123              		@ sp needed
 4124 00c8 BDEC028B 		vldm	sp!, {d8}
ARM GAS  /var/folders/lg/77ksxqjx0n7gwph6nqpzcmcw0000gn/T//ccn5JkAm.s 			page 72


 4125 00cc 30BD     		pop	{r4, r5, pc}
 4126              	.L604:
 4127 00ce 4FF07A54 		mov	r4, #1048576000
 4128 00d2 4D48     		ldr	r0, .L609+36
 4129 00d4 0221     		movs	r1, #2
 4130 00d6 4D4B     		ldr	r3, .L609+40
 4131 00d8 4268     		ldr	r2, [r0, #4]
 4132 00da 4FF07E55 		mov	r5, #1065353216
 4133 00de 0091     		str	r1, [sp]
 4134 00e0 0021     		movs	r1, #0
 4135 00e2 1C60     		str	r4, [r3]	@ float
 4136 00e4 4A4C     		ldr	r4, .L609+44
 4137 00e6 4B4B     		ldr	r3, .L609+48
 4138 00e8 2560     		str	r5, [r4]	@ float
 4139 00ea FFF7FEFF 		bl	_ZNSt7__cxx1112basic_stringIcSt11char_traitsIcESaIcEE10_M_replaceEjjPKcj
 4140 00ee 03B0     		add	sp, sp, #12
 4141              		@ sp needed
 4142 00f0 BDEC028B 		vldm	sp!, {d8}
 4143 00f4 30BD     		pop	{r4, r5, pc}
 4144              	.L600:
 4145 00f6 4FF07A54 		mov	r4, #1048576000
 4146 00fa 0221     		movs	r1, #2
 4147 00fc 3D4B     		ldr	r3, .L609+16
 4148 00fe 4FF07E55 		mov	r5, #1065353216
 4149 0102 3D48     		ldr	r0, .L609+20
 4150 0104 4268     		ldr	r2, [r0, #4]
 4151 0106 0091     		str	r1, [sp]
 4152 0108 0021     		movs	r1, #0
 4153 010a 1C60     		str	r4, [r3]	@ float
 4154 010c 3B4C     		ldr	r4, .L609+24
 4155 010e 414B     		ldr	r3, .L609+48
 4156 0110 2560     		str	r5, [r4]	@ float
 4157 0112 FFF7FEFF 		bl	_ZNSt7__cxx1112basic_stringIcSt11char_traitsIcESaIcEE10_M_replaceEjjPKcj
 4158 0116 B9E7     		b	.L563
 4159              	.L605:
 4160 0118 4FF07C54 		mov	r4, #1056964608
 4161 011c 3A48     		ldr	r0, .L609+36
 4162 011e 0221     		movs	r1, #2
 4163 0120 3A4B     		ldr	r3, .L609+40
 4164 0122 4268     		ldr	r2, [r0, #4]
 4165 0124 4FF07E55 		mov	r5, #1065353216
 4166 0128 0091     		str	r1, [sp]
 4167 012a 0021     		movs	r1, #0
 4168 012c 1C60     		str	r4, [r3]	@ float
 4169 012e 384C     		ldr	r4, .L609+44
 4170 0130 344B     		ldr	r3, .L609+32
 4171 0132 2560     		str	r5, [r4]	@ float
 4172 0134 FFF7FEFF 		bl	_ZNSt7__cxx1112basic_stringIcSt11char_traitsIcESaIcEE10_M_replaceEjjPKcj
 4173 0138 03B0     		add	sp, sp, #12
 4174              		@ sp needed
 4175 013a BDEC028B 		vldm	sp!, {d8}
 4176 013e 30BD     		pop	{r4, r5, pc}
 4177              	.L608:
 4178 0140 4FF08144 		mov	r4, #1082130432
 4179 0144 0221     		movs	r1, #2
 4180 0146 314B     		ldr	r3, .L609+40
 4181 0148 4FF07C55 		mov	r5, #1056964608
ARM GAS  /var/folders/lg/77ksxqjx0n7gwph6nqpzcmcw0000gn/T//ccn5JkAm.s 			page 73


 4182 014c 2E48     		ldr	r0, .L609+36
 4183 014e 4268     		ldr	r2, [r0, #4]
 4184 0150 0091     		str	r1, [sp]
 4185 0152 0021     		movs	r1, #0
 4186 0154 1C60     		str	r4, [r3]	@ float
 4187 0156 2E4C     		ldr	r4, .L609+44
 4188 0158 294B     		ldr	r3, .L609+28
 4189 015a 2560     		str	r5, [r4]	@ float
 4190 015c FFF7FEFF 		bl	_ZNSt7__cxx1112basic_stringIcSt11char_traitsIcESaIcEE10_M_replaceEjjPKcj
 4191 0160 B1E7     		b	.L560
 4192              	.L606:
 4193 0162 4FF07E54 		mov	r4, #1065353216
 4194 0166 2848     		ldr	r0, .L609+36
 4195 0168 0221     		movs	r1, #2
 4196 016a 284B     		ldr	r3, .L609+40
 4197 016c 284D     		ldr	r5, .L609+44
 4198 016e 4268     		ldr	r2, [r0, #4]
 4199 0170 0091     		str	r1, [sp]
 4200 0172 0021     		movs	r1, #0
 4201 0174 1C60     		str	r4, [r3]	@ float
 4202 0176 284B     		ldr	r3, .L609+52
 4203 0178 2C60     		str	r4, [r5]	@ float
 4204 017a FFF7FEFF 		bl	_ZNSt7__cxx1112basic_stringIcSt11char_traitsIcESaIcEE10_M_replaceEjjPKcj
 4205 017e 03B0     		add	sp, sp, #12
 4206              		@ sp needed
 4207 0180 BDEC028B 		vldm	sp!, {d8}
 4208 0184 30BD     		pop	{r4, r5, pc}
 4209              	.L602:
 4210 0186 4FF07E54 		mov	r4, #1065353216
 4211 018a 0221     		movs	r1, #2
 4212 018c 194B     		ldr	r3, .L609+16
 4213 018e 1B4D     		ldr	r5, .L609+24
 4214 0190 1948     		ldr	r0, .L609+20
 4215 0192 4268     		ldr	r2, [r0, #4]
 4216 0194 0091     		str	r1, [sp]
 4217 0196 0021     		movs	r1, #0
 4218 0198 1C60     		str	r4, [r3]	@ float
 4219 019a 2C60     		str	r4, [r5]	@ float
 4220 019c 1E4B     		ldr	r3, .L609+52
 4221 019e FFF7FEFF 		bl	_ZNSt7__cxx1112basic_stringIcSt11char_traitsIcESaIcEE10_M_replaceEjjPKcj
 4222 01a2 73E7     		b	.L563
 4223              	.L607:
 4224 01a4 4FF08045 		mov	r5, #1073741824
 4225 01a8 0221     		movs	r1, #2
 4226 01aa 184B     		ldr	r3, .L609+40
 4227 01ac 1648     		ldr	r0, .L609+36
 4228 01ae 184C     		ldr	r4, .L609+44
 4229 01b0 4268     		ldr	r2, [r0, #4]
 4230 01b2 0091     		str	r1, [sp]
 4231 01b4 0021     		movs	r1, #0
 4232 01b6 1D60     		str	r5, [r3]	@ float
 4233 01b8 184D     		ldr	r5, .L609+56
 4234 01ba 194B     		ldr	r3, .L609+60
 4235 01bc 2560     		str	r5, [r4]	@ float
 4236 01be FFF7FEFF 		bl	_ZNSt7__cxx1112basic_stringIcSt11char_traitsIcESaIcEE10_M_replaceEjjPKcj
 4237 01c2 80E7     		b	.L560
 4238              	.L603:
ARM GAS  /var/folders/lg/77ksxqjx0n7gwph6nqpzcmcw0000gn/T//ccn5JkAm.s 			page 74


 4239 01c4 4FF08045 		mov	r5, #1073741824
 4240 01c8 0221     		movs	r1, #2
 4241 01ca 0A4B     		ldr	r3, .L609+16
 4242 01cc 0A48     		ldr	r0, .L609+20
 4243 01ce 0B4C     		ldr	r4, .L609+24
 4244 01d0 4268     		ldr	r2, [r0, #4]
 4245 01d2 0091     		str	r1, [sp]
 4246 01d4 0021     		movs	r1, #0
 4247 01d6 1D60     		str	r5, [r3]	@ float
 4248 01d8 104D     		ldr	r5, .L609+56
 4249 01da 114B     		ldr	r3, .L609+60
 4250 01dc 2560     		str	r5, [r4]	@ float
 4251 01de FFF7FEFF 		bl	_ZNSt7__cxx1112basic_stringIcSt11char_traitsIcESaIcEE10_M_replaceEjjPKcj
 4252 01e2 53E7     		b	.L563
 4253              	.L610:
 4254              		.align	2
 4255              	.L609:
 4256 01e4 CDCC4C3E 		.word	1045220557
 4257 01e8 CDCCCC3E 		.word	1053609165
 4258 01ec 9A99193F 		.word	1058642330
 4259 01f0 CDCC4C3F 		.word	1061997773
 4260 01f4 00000000 		.word	.LANCHOR103
 4261 01f8 00000000 		.word	.LANCHOR105
 4262 01fc 00000000 		.word	.LANCHOR104
 4263 0200 10000000 		.word	.LC4
 4264 0204 04000000 		.word	.LC1
 4265 0208 00000000 		.word	.LANCHOR108
 4266 020c 00000000 		.word	.LANCHOR106
 4267 0210 00000000 		.word	.LANCHOR107
 4268 0214 00000000 		.word	.LC0
 4269 0218 08000000 		.word	.LC2
 4270 021c 3333333F 		.word	1060320051
 4271 0220 0C000000 		.word	.LC3
 4273              		.section	.text._Z19GetSampleFromBufferPff,"ax",%progbits
 4274              		.align	1
 4275              		.p2align 2,,3
 4276              		.global	_Z19GetSampleFromBufferPff
 4277              		.syntax unified
 4278              		.thumb
 4279              		.thumb_func
 4280              		.fpu fpv5-d16
 4282              	_Z19GetSampleFromBufferPff:
 4283              		@ args = 0, pretend = 0, frame = 0
 4284              		@ frame_needed = 0, uses_anonymous_args = 0
 4285              		@ link register save eliminated.
 4286 0000 FDEEC07A 		vcvt.s32.f32	s15, s0
 4287 0004 F0B4     		push	{r4, r5, r6, r7}
 4288 0006 17EE903A 		vmov	r3, s15	@ int
 4289 000a 114C     		ldr	r4, .L613
 4290 000c 114E     		ldr	r6, .L613+4
 4291 000e F8EEE77A 		vcvt.f32.s32	s15, s15
 4292 0012 5D1C     		adds	r5, r3, #1
 4293 0014 84FB0327 		smull	r2, r7, r4, r3
 4294 0018 DA17     		asrs	r2, r3, #31
 4295 001a 84FB0514 		smull	r1, r4, r4, r5
 4296 001e E917     		asrs	r1, r5, #31
 4297 0020 C2EB2752 		rsb	r2, r2, r7, asr #20
ARM GAS  /var/folders/lg/77ksxqjx0n7gwph6nqpzcmcw0000gn/T//ccn5JkAm.s 			page 75


 4298 0024 70EE677A 		vsub.f32	s15, s0, s15
 4299 0028 C1EB2451 		rsb	r1, r1, r4, asr #20
 4300 002c 06FB1233 		mls	r3, r6, r2, r3
 4301 0030 06FB1152 		mls	r2, r6, r1, r5
 4302 0034 00EB8303 		add	r3, r0, r3, lsl #2
 4303 0038 00EB8200 		add	r0, r0, r2, lsl #2
 4304 003c 93ED000A 		vldr.32	s0, [r3]
 4305 0040 90ED007A 		vldr.32	s14, [r0]
 4306 0044 37EE407A 		vsub.f32	s14, s14, s0
 4307 0048 F0BC     		pop	{r4, r5, r6, r7}
 4308 004a A7EE270A 		vfma.f32	s0, s14, s15
 4309 004e 7047     		bx	lr
 4310              	.L614:
 4311              		.align	2
 4312              	.L613:
 4313 0050 EFED345D 		.word	1563749871
 4314 0054 00F22B00 		.word	2880000
 4316              		.section	.text._Z15GetLooperSampleRfS_ff,"ax",%progbits
 4317              		.align	1
 4318              		.p2align 2,,3
 4319              		.global	_Z15GetLooperSampleRfS_ff
 4320              		.syntax unified
 4321              		.thumb
 4322              		.thumb_func
 4323              		.fpu fpv5-d16
 4325              	_Z15GetLooperSampleRfS_ff:
 4326              		@ args = 0, pretend = 0, frame = 16
 4327              		@ frame_needed = 0, uses_anonymous_args = 0
 4328 0000 2DE9F04F 		push	{r4, r5, r6, r7, r8, r9, r10, fp, lr}
 4329 0004 C54A     		ldr	r2, .L702
 4330 0006 4FF00008 		mov	r8, #0
 4331 000a DFF854E3 		ldr	lr, .L702+68
 4332 000e C44E     		ldr	r6, .L702+4
 4333 0010 DEF800C0 		ldr	ip, [lr]
 4334 0014 3368     		ldr	r3, [r6]
 4335 0016 1268     		ldr	r2, [r2]
 4336 0018 C24D     		ldr	r5, .L702+8
 4337 001a C34C     		ldr	r4, .L702+12
 4338 001c 9A42     		cmp	r2, r3
 4339 001e 05EB8C0A 		add	r10, r5, ip, lsl #2
 4340 0022 04EB8C09 		add	r9, r4, ip, lsl #2
 4341 0026 2DED048B 		vpush.64	{d8, d9}
 4342 002a C1F80080 		str	r8, [r1]	@ float
 4343 002e F0EE408A 		vmov.f32	s17, s0
 4344 0032 C0F80080 		str	r8, [r0]	@ float
 4345 0036 85B0     		sub	sp, sp, #20
 4346 0038 4FEA8C08 		lsl	r8, ip, #2
 4347 003c 8AED000A 		vstr.32	s0, [r10]
 4348 0040 C9ED000A 		vstr.32	s1, [r9]
 4349 0044 07DA     		bge	.L616
 4350 0046 05EB830A 		add	r10, r5, r3, lsl #2
 4351 004a 04EB8309 		add	r9, r4, r3, lsl #2
 4352 004e 8AED000A 		vstr.32	s0, [r10]
 4353 0052 C9ED000A 		vstr.32	s1, [r9]
 4354              	.L616:
 4355 0056 DFF80C93 		ldr	r9, .L702+72
 4356 005a 0CF1010C 		add	ip, ip, #1
ARM GAS  /var/folders/lg/77ksxqjx0n7gwph6nqpzcmcw0000gn/T//ccn5JkAm.s 			page 76


 4357 005e 99F80090 		ldrb	r9, [r9]	@ zero_extendqisi2
 4358 0062 B9F1000F 		cmp	r9, #0
 4359 0066 7BD1     		bne	.L617
 4360 0068 9444     		add	ip, ip, r2
 4361 006a DFF8FC92 		ldr	r9, .L702+76
 4362 006e DFF8FCB2 		ldr	fp, .L702+80
 4363 0072 C144     		add	r9, r9, r8
 4364 0074 D844     		add	r8, r8, fp
 4365 0076 C9ED008A 		vstr.32	s17, [r9]
 4366 007a C8ED000A 		vstr.32	s1, [r8]
 4367 007e 9CFBF2FA 		sdiv	r10, ip, r2
 4368 0082 02FB1ACC 		mls	ip, r2, r10, ip
 4369 0086 DFF8B8A2 		ldr	r10, .L702+36
 4370 008a CEF800C0 		str	ip, [lr]
 4371 008e 9AF800C0 		ldrb	ip, [r10]	@ zero_extendqisi2
 4372 0092 BCF1000F 		cmp	ip, #0
 4373 0096 40F07B81 		bne	.L697
 4374              	.L619:
 4375 009a DFF8D482 		ldr	r8, .L702+84
 4376 009e 0133     		adds	r3, r3, #1
 4377 00a0 DFF8B0E2 		ldr	lr, .L702+56
 4378 00a4 D8F80040 		ldr	r4, [r8]
 4379 00a8 DFF8C8C2 		ldr	ip, .L702+88
 4380 00ac 0134     		adds	r4, r4, #1
 4381 00ae 6245     		cmp	r2, ip
 4382 00b0 03EB0405 		add	r5, r3, r4
 4383 00b4 C8F80040 		str	r4, [r8]
 4384 00b8 95FBF4F3 		sdiv	r3, r5, r4
 4385 00bc 04FB1353 		mls	r3, r4, r3, r5
 4386 00c0 8EFB0345 		smull	r4, r5, lr, r3
 4387 00c4 4FEAE374 		asr	r4, r3, #31
 4388 00c8 C4EB2554 		rsb	r4, r4, r5, asr #20
 4389 00cc 0CFB1434 		mls	r4, ip, r4, r3
 4390 00d0 3460     		str	r4, [r6]
 4391 00d2 02DB     		blt	.L652
 4392 00d4 954B     		ldr	r3, .L702+16
 4393 00d6 914A     		ldr	r2, .L702
 4394 00d8 1360     		str	r3, [r2]
 4395              	.L652:
 4396 00da 954C     		ldr	r4, .L702+20
 4397 00dc 9FED957A 		vldr.32	s14, .L702+24
 4398 00e0 D4ED007A 		vldr.32	s15, [r4]
 4399 00e4 F4EEC77A 		vcmpe.f32	s15, s14
 4400 00e8 F1EE10FA 		vmrs	APSR_nzcv, FPSCR
 4401 00ec 40F32282 		ble	.L687
 4402 00f0 4FF07E53 		mov	r3, #1065353216
 4403 00f4 9FED909A 		vldr.32	s18, .L702+28
 4404 00f8 2360     		str	r3, [r4]	@ float
 4405 00fa 90ED008A 		vldr.32	s16, [r0]
 4406              	.L655:
 4407 00fe A8EE898A 		vfma.f32	s16, s17, s18
 4408 0102 B6EE007A 		vmov.f32	s14, #5.0e-1
 4409 0106 80ED008A 		vstr.32	s16, [r0]
 4410 010a 94ED000A 		vldr.32	s0, [r4]
 4411 010e 70EE007A 		vadd.f32	s15, s0, s0
 4412 0112 27EE877A 		vmul.f32	s14, s15, s14
 4413 0116 B5EE407A 		vcmp.f32	s14, #0
ARM GAS  /var/folders/lg/77ksxqjx0n7gwph6nqpzcmcw0000gn/T//ccn5JkAm.s 			page 77


 4414 011a B1EEC78A 		vsqrt.f32	s16, s14
 4415 011e F1EE10FA 		vmrs	APSR_nzcv, FPSCR
 4416 0122 00F1E083 		bmi	.L698
 4417              	.L659:
 4418 0126 B0EE000A 		vmov.f32	s0, #2.0e+0
 4419 012a 9FED847A 		vldr.32	s14, .L702+32
 4420 012e D1ED006A 		vldr.32	s13, [r1]
 4421 0132 30EE670A 		vsub.f32	s0, s0, s15
 4422 0136 28EE268A 		vmul.f32	s16, s16, s13
 4423 013a 20EE070A 		vmul.f32	s0, s0, s14
 4424 013e B5EE400A 		vcmp.f32	s0, #0
 4425 0142 F1EEC08A 		vsqrt.f32	s17, s0
 4426 0146 F1EE10FA 		vmrs	APSR_nzcv, FPSCR
 4427 014a 00F1C383 		bmi	.L699
 4428              	.L660:
 4429 014e A0EEA88A 		vfma.f32	s16, s1, s17
 4430 0152 81ED008A 		vstr.32	s16, [r1]
 4431 0156 05B0     		add	sp, sp, #20
 4432              		@ sp needed
 4433 0158 BDEC048B 		vldm	sp!, {d8-d9}
 4434 015c BDE8F08F 		pop	{r4, r5, r6, r7, r8, r9, r10, fp, pc}
 4435              	.L617:
 4436 0160 774C     		ldr	r4, .L702+36
 4437 0162 9444     		add	ip, ip, r2
 4438 0164 2578     		ldrb	r5, [r4]	@ zero_extendqisi2
 4439 0166 9CFBF2F4 		sdiv	r4, ip, r2
 4440 016a 02FB14C4 		mls	r4, r2, r4, ip
 4441 016e CEF80040 		str	r4, [lr]
 4442 0172 002D     		cmp	r5, #0
 4443 0174 91D0     		beq	.L619
 4444 0176 734D     		ldr	r5, .L702+40
 4445 0178 734C     		ldr	r4, .L702+44
 4446 017a 95ED007A 		vldr.32	s14, [r5]	@ int
 4447 017e D4ED006A 		vldr.32	s13, [r4]
 4448 0182 B8EEC77A 		vcvt.f32.s32	s14, s14
 4449 0186 DFF8F0E1 		ldr	lr, .L702+92
 4450 018a 704D     		ldr	r5, .L702+48
 4451 018c DEED007A 		vldr.32	s15, [lr]
 4452 0190 67EE266A 		vmul.f32	s13, s14, s13
 4453 0194 95ED006A 		vldr.32	s12, [r5]
 4454 0198 6D4C     		ldr	r4, .L702+52
 4455 019a 77EE867A 		vadd.f32	s15, s15, s12
 4456 019e FDEEE66A 		vcvt.s32.f32	s13, s13
 4457 01a2 CEED007A 		vstr.32	s15, [lr]
 4458 01a6 B8EEE66A 		vcvt.f32.s32	s12, s13
 4459 01aa C4ED006A 		vstr.32	s13, [r4]	@ int
 4460 01ae F4EEC67A 		vcmpe.f32	s15, s12
 4461 01b2 F1EE10FA 		vmrs	APSR_nzcv, FPSCR
 4462 01b6 00F33182 		bgt	.L700
 4463 01ba F5EEC07A 		vcmpe.f32	s15, #0
 4464 01be F1EE10FA 		vmrs	APSR_nzcv, FPSCR
 4465 01c2 00F1A282 		bmi	.L641
 4466 01c6 FDEEE76A 		vcvt.s32.f32	s13, s15
 4467 01ca 624D     		ldr	r5, .L702+56
 4468 01cc DFF8A491 		ldr	r9, .L702+88
 4469 01d0 16EE904A 		vmov	r4, s13	@ int
 4470 01d4 B8EEE66A 		vcvt.f32.s32	s12, s13
ARM GAS  /var/folders/lg/77ksxqjx0n7gwph6nqpzcmcw0000gn/T//ccn5JkAm.s 			page 78


 4471 01d8 04F10108 		add	r8, r4, #1
 4472 01dc 85FB047A 		smull	r7, r10, r5, r4
 4473 01e0 4FEAE47E 		asr	lr, r4, #31
 4474 01e4 37EEC66A 		vsub.f32	s12, s15, s12
 4475 01e8 85FB085C 		smull	r5, ip, r5, r8
 4476 01ec 4FEAE875 		asr	r5, r8, #31
 4477 01f0 CEEB2A5E 		rsb	lr, lr, r10, asr #20
 4478 01f4 C5EB2C55 		rsb	r5, r5, ip, asr #20
 4479 01f8 DFF86CC1 		ldr	ip, .L702+76
 4480 01fc 09FB1E44 		mls	r4, r9, lr, r4
 4481 0200 09FB1585 		mls	r5, r9, r5, r8
 4482 0204 0CEB8404 		add	r4, ip, r4, lsl #2
 4483 0208 AD00     		lsls	r5, r5, #2
 4484              	.L640:
 4485 020a DFF870E1 		ldr	lr, .L702+96
 4486 020e DFF87081 		ldr	r8, .L702+100
 4487 0212 DEED007A 		vldr.32	s15, [lr]
 4488 0216 DFF86C91 		ldr	r9, .L702+104
 4489 021a 27EE277A 		vmul.f32	s14, s14, s15
 4490 021e D8ED006A 		vldr.32	s13, [r8]
 4491 0222 D9ED007A 		vldr.32	s15, [r9]
 4492 0226 DFF860E1 		ldr	lr, .L702+108
 4493 022a BDEEC77A 		vcvt.s32.f32	s14, s14
 4494 022e 76EEA76A 		vadd.f32	s13, s13, s15
 4495 0232 F8EEC77A 		vcvt.f32.s32	s15, s14
 4496 0236 8EED007A 		vstr.32	s14, [lr]	@ int
 4497 023a C8ED006A 		vstr.32	s13, [r8]
 4498 023e F4EEE76A 		vcmpe.f32	s13, s15
 4499 0242 F1EE10FA 		vmrs	APSR_nzcv, FPSCR
 4500 0246 40F33E82 		ble	.L686
 4501 024a 76EEE76A 		vsub.f32	s13, s13, s15
 4502 024e DFED3A7A 		vldr.32	s15, .L702+28
 4503 0252 DFF838E1 		ldr	lr, .L702+112
 4504 0256 4FF07E5A 		mov	r10, #1065353216
 4505 025a 4FF00A09 		mov	r9, #10
 4506 025e F4EEE76A 		vcmpe.f32	s13, s15
 4507 0262 CEED0D7A 		vstr.32	s15, [lr, #52]
 4508 0266 CEF83CA0 		str	r10, [lr, #60]	@ float
 4509 026a CEF80C90 		str	r9, [lr, #12]
 4510 026e F1EE10FA 		vmrs	APSR_nzcv, FPSCR
 4511 0272 CEED0E7A 		vstr.32	s15, [lr, #56]
 4512 0276 00F18C82 		bmi	.L669
 4513              	.L694:
 4514 027a 07EE902A 		vmov	s15, r2	@ int
 4515 027e F8EEE77A 		vcvt.f32.s32	s15, s15
 4516 0282 F4EE676A 		vcmp.f32	s13, s15
 4517 0286 F1EE10FA 		vmrs	APSR_nzcv, FPSCR
 4518 028a 77FEA66A 		vselgt.f32	s13, s15, s13
 4519              	.L650:
 4520 028e C8ED006A 		vstr.32	s13, [r8]
 4521              	.L648:
 4522 0292 6544     		add	r5, r5, ip
 4523 0294 D4ED007A 		vldr.32	s15, [r4]
 4524 0298 2F4C     		ldr	r4, .L702+60
 4525 029a D5ED006A 		vldr.32	s13, [r5]
 4526 029e 94ED007A 		vldr.32	s14, [r4]
 4527 02a2 76EEE76A 		vsub.f32	s13, s13, s15
ARM GAS  /var/folders/lg/77ksxqjx0n7gwph6nqpzcmcw0000gn/T//ccn5JkAm.s 			page 79


 4528 02a6 2D4C     		ldr	r4, .L702+64
 4529 02a8 DFF8A8A0 		ldr	r10, .L702+56
 4530 02ac DFF8C490 		ldr	r9, .L702+88
 4531 02b0 E6EE867A 		vfma.f32	s15, s13, s12
 4532 02b4 DFF8B4E0 		ldr	lr, .L702+80
 4533 02b8 67EE277A 		vmul.f32	s15, s14, s15
 4534 02bc C0ED007A 		vstr.32	s15, [r0]
 4535 02c0 98ED007A 		vldr.32	s14, [r8]
 4536 02c4 D4ED006A 		vldr.32	s13, [r4]
 4537 02c8 FDEEC77A 		vcvt.s32.f32	s15, s14
 4538 02cc 17EE904A 		vmov	r4, s15	@ int
 4539 02d0 F8EEE77A 		vcvt.f32.s32	s15, s15
 4540 02d4 04F10108 		add	r8, r4, #1
 4541 02d8 8AFB045B 		smull	r5, fp, r10, r4
 4542 02dc E517     		asrs	r5, r4, #31
 4543 02de 37EE677A 		vsub.f32	s14, s14, s15
 4544 02e2 8AFB087A 		smull	r7, r10, r10, r8
 4545 02e6 4FEAE87C 		asr	ip, r8, #31
 4546 02ea C5EB2B55 		rsb	r5, r5, fp, asr #20
 4547 02ee CCEB2A5C 		rsb	ip, ip, r10, asr #20
 4548 02f2 09FB1544 		mls	r4, r9, r5, r4
 4549 02f6 09FB1C85 		mls	r5, r9, ip, r8
 4550 02fa 0EEB8404 		add	r4, lr, r4, lsl #2
 4551 02fe 0EEB8505 		add	r5, lr, r5, lsl #2
 4552 0302 D4ED007A 		vldr.32	s15, [r4]
 4553 0306 95ED006A 		vldr.32	s12, [r5]
 4554 030a 36EE676A 		vsub.f32	s12, s12, s15
 4555 030e E7EE067A 		vfma.f32	s15, s14, s12
 4556 0312 66EEA77A 		vmul.f32	s15, s13, s15
 4557 0316 C1ED007A 		vstr.32	s15, [r1]
 4558 031a BEE6     		b	.L619
 4559              	.L703:
 4560              		.align	2
 4561              	.L702:
 4562 031c 00000000 		.word	.LANCHOR75
 4563 0320 00000000 		.word	.LANCHOR74
 4564 0324 00000000 		.word	mlooper_buf_1l
 4565 0328 00000000 		.word	mlooper_buf_1r
 4566 032c FFF12B00 		.word	2879999
 4567 0330 00000000 		.word	.LANCHOR113
 4568 0334 48E17A3F 		.word	1065017672
 4569 0338 00000000 		.word	0
 4570 033c 3333733F 		.word	1064514355
 4571 0340 00000000 		.word	.LANCHOR68
 4572 0344 00000000 		.word	.LANCHOR76
 4573 0348 00000000 		.word	.LANCHOR99
 4574 034c 00000000 		.word	.LANCHOR103
 4575 0350 00000000 		.word	.LANCHOR111
 4576 0354 EFED345D 		.word	1563749871
 4577 0358 00000000 		.word	.LANCHOR104
 4578 035c 00000000 		.word	.LANCHOR107
 4579 0360 00000000 		.word	.LANCHOR73
 4580 0364 00000000 		.word	.LANCHOR98
 4581 0368 00000000 		.word	mlooper_frozen_buf_1l
 4582 036c 00000000 		.word	mlooper_frozen_buf_1r
 4583 0370 00000000 		.word	.LANCHOR77
 4584 0374 00F22B00 		.word	2880000
ARM GAS  /var/folders/lg/77ksxqjx0n7gwph6nqpzcmcw0000gn/T//ccn5JkAm.s 			page 80


 4585 0378 00000000 		.word	.LANCHOR70
 4586 037c 00000000 		.word	.LANCHOR101
 4587 0380 00000000 		.word	.LANCHOR72
 4588 0384 00000000 		.word	.LANCHOR106
 4589 0388 00000000 		.word	.LANCHOR112
 4590 038c 00000000 		.word	.LANCHOR18
 4591              	.L697:
 4592 0390 07EE902A 		vmov	s15, r2	@ int
 4593 0394 DFF870C4 		ldr	ip, .L704+20
 4594 0398 DFF87084 		ldr	r8, .L704+24
 4595 039c F8EEE75A 		vcvt.f32.s32	s11, s15
 4596 03a0 9CED007A 		vldr.32	s14, [ip]
 4597 03a4 DFF868E4 		ldr	lr, .L704+28
 4598 03a8 D8ED007A 		vldr.32	s15, [r8]
 4599 03ac 25EE877A 		vmul.f32	s14, s11, s14
 4600 03b0 DEED006A 		vldr.32	s13, [lr]
 4601 03b4 DFF85CC4 		ldr	ip, .L704+32
 4602 03b8 77EEA67A 		vadd.f32	s15, s15, s13
 4603 03bc BDEEC77A 		vcvt.s32.f32	s14, s14
 4604 03c0 C8ED007A 		vstr.32	s15, [r8]
 4605 03c4 F8EEC76A 		vcvt.f32.s32	s13, s14
 4606 03c8 8CED007A 		vstr.32	s14, [ip]	@ int
 4607 03cc F4EEE67A 		vcmpe.f32	s15, s13
 4608 03d0 F1EE10FA 		vmrs	APSR_nzcv, FPSCR
 4609 03d4 00F3DB80 		bgt	.L701
 4610 03d8 F5EEC07A 		vcmpe.f32	s15, #0
 4611 03dc F1EE10FA 		vmrs	APSR_nzcv, FPSCR
 4612 03e0 00F18281 		bmi	.L625
 4613 03e4 BDEEE77A 		vcvt.s32.f32	s14, s15
 4614 03e8 DFF818B4 		ldr	fp, .L704+16
 4615 03ec DFF82884 		ldr	r8, .L704+36
 4616 03f0 17EE10CA 		vmov	ip, s14	@ int
 4617 03f4 B8EEC76A 		vcvt.f32.s32	s12, s14
 4618 03f8 0CF1010A 		add	r10, ip, #1
 4619 03fc 8BFB0CE7 		smull	lr, r7, fp, ip
 4620 0400 4FEAEC7E 		asr	lr, ip, #31
 4621 0404 37EEC66A 		vsub.f32	s12, s15, s12
 4622 0408 8BFB0A9B 		smull	r9, fp, fp, r10
 4623 040c 4FEAEA79 		asr	r9, r10, #31
 4624 0410 CEEB275E 		rsb	lr, lr, r7, asr #20
 4625 0414 C9EB2B59 		rsb	r9, r9, fp, asr #20
 4626 0418 08FB1ECC 		mls	ip, r8, lr, ip
 4627 041c 08FB19A9 		mls	r9, r8, r9, r10
 4628 0420 05EB8C0C 		add	ip, r5, ip, lsl #2
 4629 0424 4FEA8909 		lsl	r9, r9, #2
 4630              	.L624:
 4631 0428 DFF8F0E3 		ldr	lr, .L704+40
 4632 042c DFF8F083 		ldr	r8, .L704+44
 4633 0430 DEED006A 		vldr.32	s13, [lr]
 4634 0434 DFF8ECA3 		ldr	r10, .L704+48
 4635 0438 65EEA66A 		vmul.f32	s13, s11, s13
 4636 043c 98ED007A 		vldr.32	s14, [r8]
 4637 0440 DAED007A 		vldr.32	s15, [r10]
 4638 0444 DFF8E0E3 		ldr	lr, .L704+52
 4639 0448 FDEEE66A 		vcvt.s32.f32	s13, s13
 4640 044c 37EE277A 		vadd.f32	s14, s14, s15
 4641 0450 F8EEE67A 		vcvt.f32.s32	s15, s13
ARM GAS  /var/folders/lg/77ksxqjx0n7gwph6nqpzcmcw0000gn/T//ccn5JkAm.s 			page 81


 4642 0454 CEED006A 		vstr.32	s13, [lr]	@ int
 4643 0458 88ED007A 		vstr.32	s14, [r8]
 4644 045c B4EEE77A 		vcmpe.f32	s14, s15
 4645 0460 F1EE10FA 		vmrs	APSR_nzcv, FPSCR
 4646 0464 40F31E81 		ble	.L684
 4647 0468 37EE677A 		vsub.f32	s14, s14, s15
 4648 046c DFEDE17A 		vldr.32	s15, .L704
 4649 0470 DFF88CE3 		ldr	lr, .L704+12
 4650 0474 4FF07E5B 		mov	fp, #1065353216
 4651 0478 4FF00A0A 		mov	r10, #10
 4652 047c B4EEE77A 		vcmpe.f32	s14, s15
 4653 0480 CEED0E7A 		vstr.32	s15, [lr, #56]
 4654 0484 CEF834B0 		str	fp, [lr, #52]	@ float
 4655 0488 CEF80CA0 		str	r10, [lr, #12]
 4656 048c F1EE10FA 		vmrs	APSR_nzcv, FPSCR
 4657 0490 CEED0F7A 		vstr.32	s15, [lr, #60]
 4658 0494 00F18081 		bmi	.L665
 4659              	.L693:
 4660 0498 F4EE475A 		vcmp.f32	s11, s14
 4661 049c F1EE10FA 		vmrs	APSR_nzcv, FPSCR
 4662 04a0 48BF     		it	mi
 4663 04a2 B0EE657A 		vmovmi.f32	s14, s11
 4664              	.L634:
 4665 04a6 88ED007A 		vstr.32	s14, [r8]
 4666              	.L632:
 4667 04aa 4D44     		add	r5, r5, r9
 4668 04ac DCED007A 		vldr.32	s15, [ip]
 4669 04b0 DFF878C3 		ldr	ip, .L704+56
 4670 04b4 D5ED006A 		vldr.32	s13, [r5]
 4671 04b8 9CED007A 		vldr.32	s14, [ip]
 4672 04bc 76EEE76A 		vsub.f32	s13, s13, s15
 4673 04c0 CD4D     		ldr	r5, .L704+4
 4674 04c2 DFF840A3 		ldr	r10, .L704+16
 4675 04c6 DFF85093 		ldr	r9, .L704+36
 4676 04ca E6EE867A 		vfma.f32	s15, s13, s12
 4677 04ce 67EE277A 		vmul.f32	s15, s14, s15
 4678 04d2 C0ED007A 		vstr.32	s15, [r0]
 4679 04d6 98ED007A 		vldr.32	s14, [r8]
 4680 04da D5ED006A 		vldr.32	s13, [r5]
 4681 04de FDEEC77A 		vcvt.s32.f32	s15, s14
 4682 04e2 17EE905A 		vmov	r5, s15	@ int
 4683 04e6 F8EEE77A 		vcvt.f32.s32	s15, s15
 4684 04ea 05F10108 		add	r8, r5, #1
 4685 04ee 8AFB057B 		smull	r7, fp, r10, r5
 4686 04f2 4FEAE57C 		asr	ip, r5, #31
 4687 04f6 37EE677A 		vsub.f32	s14, s14, s15
 4688 04fa 8AFB087A 		smull	r7, r10, r10, r8
 4689 04fe 4FEAE87E 		asr	lr, r8, #31
 4690 0502 CCEB2B5C 		rsb	ip, ip, fp, asr #20
 4691 0506 CEEB2A5E 		rsb	lr, lr, r10, asr #20
 4692 050a 09FB1C55 		mls	r5, r9, ip, r5
 4693 050e 09FB1E8C 		mls	ip, r9, lr, r8
 4694 0512 04EB8505 		add	r5, r4, r5, lsl #2
 4695 0516 04EB8C04 		add	r4, r4, ip, lsl #2
 4696 051a D5ED007A 		vldr.32	s15, [r5]
 4697 051e 94ED006A 		vldr.32	s12, [r4]
 4698 0522 36EE676A 		vsub.f32	s12, s12, s15
ARM GAS  /var/folders/lg/77ksxqjx0n7gwph6nqpzcmcw0000gn/T//ccn5JkAm.s 			page 82


 4699 0526 E7EE067A 		vfma.f32	s15, s14, s12
 4700 052a 66EEA77A 		vmul.f32	s15, s13, s15
 4701 052e C1ED007A 		vstr.32	s15, [r1]
 4702 0532 B2E5     		b	.L619
 4703              	.L687:
 4704 0534 77EEA77A 		vadd.f32	s15, s15, s15
 4705 0538 B6EE007A 		vmov.f32	s14, #5.0e-1
 4706 053c 27EE877A 		vmul.f32	s14, s15, s14
 4707 0540 B5EE407A 		vcmp.f32	s14, #0
 4708 0544 B1EEC78A 		vsqrt.f32	s16, s14
 4709 0548 F1EE10FA 		vmrs	APSR_nzcv, FPSCR
 4710 054c 00F1DA81 		bmi	.L688
 4711 0550 B0EE007A 		vmov.f32	s14, #2.0e+0
 4712 0554 9FEDA90A 		vldr.32	s0, .L704+8
 4713 0558 77EE677A 		vsub.f32	s15, s14, s15
 4714 055c 27EE800A 		vmul.f32	s0, s15, s0
 4715              	.L658:
 4716 0560 B5EE400A 		vcmp.f32	s0, #0
 4717 0564 90ED007A 		vldr.32	s14, [r0]
 4718 0568 B1EEC09A 		vsqrt.f32	s18, s0
 4719 056c F1EE10FA 		vmrs	APSR_nzcv, FPSCR
 4720 0570 28EE078A 		vmul.f32	s16, s16, s14
 4721 0574 7FF5C3AD 		bpl	.L655
 4722 0578 CDED030A 		vstr.32	s1, [sp, #12]	@ int
 4723 057c CDE90101 		strd	r0, r1, [sp, #4]
 4724 0580 FFF7FEFF 		bl	sqrtf
 4725 0584 DDED030A 		vldr.32	s1, [sp, #12]	@ int
 4726 0588 DDE90101 		ldrd	r0, r1, [sp, #4]
 4727 058c B7E5     		b	.L655
 4728              	.L701:
 4729 058e 77EEE67A 		vsub.f32	s15, s15, s13
 4730 0592 9FED986A 		vldr.32	s12, .L704
 4731 0596 DFF868C2 		ldr	ip, .L704+12
 4732 059a 4FF07E59 		mov	r9, #1065353216
 4733 059e 4FF00A0E 		mov	lr, #10
 4734 05a2 F4EEC67A 		vcmpe.f32	s15, s12
 4735 05a6 8CED056A 		vstr.32	s12, [ip, #20]
 4736 05aa CCF81090 		str	r9, [ip, #16]	@ float
 4737 05ae CCF800E0 		str	lr, [ip]
 4738 05b2 F1EE10FA 		vmrs	APSR_nzcv, FPSCR
 4739 05b6 8CED066A 		vstr.32	s12, [ip, #24]
 4740 05ba 00F19F80 		bmi	.L691
 4741              	.L696:
 4742 05be F4EEE75A 		vcmpe.f32	s11, s15
 4743 05c2 F1EE10FA 		vmrs	APSR_nzcv, FPSCR
 4744 05c6 00F1EA80 		bmi	.L627
 4745 05ca BDEEE77A 		vcvt.s32.f32	s14, s15
 4746 05ce DFF834E2 		ldr	lr, .L704+16
 4747 05d2 DFF844A2 		ldr	r10, .L704+36
 4748 05d6 17EE10BA 		vmov	fp, s14	@ int
 4749 05da B8EEC76A 		vcvt.f32.s32	s12, s14
 4750 05de 8EFB0BC7 		smull	ip, r7, lr, fp
 4751 05e2 0BF10109 		add	r9, fp, #1
 4752 05e6 4FEAEB7C 		asr	ip, fp, #31
 4753 05ea 37EEC66A 		vsub.f32	s12, s15, s12
 4754 05ee 0197     		str	r7, [sp, #4]
 4755 05f0 8EFB097E 		smull	r7, lr, lr, r9
ARM GAS  /var/folders/lg/77ksxqjx0n7gwph6nqpzcmcw0000gn/T//ccn5JkAm.s 			page 83


 4756 05f4 4FEAE977 		asr	r7, r9, #31
 4757 05f8 0297     		str	r7, [sp, #8]
 4758 05fa 019F     		ldr	r7, [sp, #4]
 4759 05fc CCEB275C 		rsb	ip, ip, r7, asr #20
 4760 0600 029F     		ldr	r7, [sp, #8]
 4761 0602 C7EB2E5E 		rsb	lr, r7, lr, asr #20
 4762 0606 0AFB1CBC 		mls	ip, r10, ip, fp
 4763 060a 0AFB1E99 		mls	r9, r10, lr, r9
 4764 060e 05EB8C0C 		add	ip, r5, ip, lsl #2
 4765 0612 4FEA8909 		lsl	r9, r9, #2
 4766              	.L626:
 4767 0616 C8ED007A 		vstr.32	s15, [r8]
 4768 061a 05E7     		b	.L624
 4769              	.L700:
 4770 061c 77EEC67A 		vsub.f32	s15, s15, s12
 4771 0620 9FED746A 		vldr.32	s12, .L704
 4772 0624 764C     		ldr	r4, .L704+12
 4773 0626 4FF07E5C 		mov	ip, #1065353216
 4774 062a 0A25     		movs	r5, #10
 4775 062c F4EEC67A 		vcmpe.f32	s15, s12
 4776 0630 84ED046A 		vstr.32	s12, [r4, #16]
 4777 0634 C4F818C0 		str	ip, [r4, #24]	@ float
 4778 0638 2560     		str	r5, [r4]
 4779 063a F1EE10FA 		vmrs	APSR_nzcv, FPSCR
 4780 063e 84ED056A 		vstr.32	s12, [r4, #20]
 4781 0642 00F19F80 		bmi	.L667
 4782 0646 06EE902A 		vmov	s13, r2	@ int
 4783 064a B8EEE66A 		vcvt.f32.s32	s12, s13
 4784 064e F4EEC67A 		vcmpe.f32	s15, s12
 4785 0652 F1EE10FA 		vmrs	APSR_nzcv, FPSCR
 4786 0656 00F3EF80 		bgt	.L639
 4787 065a FDEEE76A 		vcvt.s32.f32	s13, s15
 4788 065e 694D     		ldr	r5, .L704+16
 4789 0660 DFF8B4A1 		ldr	r10, .L704+36
 4790 0664 16EE904A 		vmov	r4, s13	@ int
 4791 0668 B8EEE66A 		vcvt.f32.s32	s12, s13
 4792 066c 04F10109 		add	r9, r4, #1
 4793 0670 85FB047B 		smull	r7, fp, r5, r4
 4794 0674 4FEAE478 		asr	r8, r4, #31
 4795 0678 37EEC66A 		vsub.f32	s12, s15, s12
 4796 067c 85FB095C 		smull	r5, ip, r5, r9
 4797 0680 4FEAE975 		asr	r5, r9, #31
 4798 0684 C8EB2B58 		rsb	r8, r8, fp, asr #20
 4799 0688 C5EB2C55 		rsb	r5, r5, ip, asr #20
 4800 068c DFF8A0C1 		ldr	ip, .L704+60
 4801 0690 0AFB1844 		mls	r4, r10, r8, r4
 4802 0694 0AFB1595 		mls	r5, r10, r5, r9
 4803 0698 0CEB8404 		add	r4, ip, r4, lsl #2
 4804 069c AD00     		lsls	r5, r5, #2
 4805              	.L642:
 4806 069e CEED007A 		vstr.32	s15, [lr]
 4807 06a2 B2E5     		b	.L640
 4808              	.L684:
 4809 06a4 B5EEC07A 		vcmpe.f32	s14, #0
 4810 06a8 F1EE10FA 		vmrs	APSR_nzcv, FPSCR
 4811 06ac 7FF5FDAE 		bpl	.L632
 4812 06b0 37EE277A 		vadd.f32	s14, s14, s15
ARM GAS  /var/folders/lg/77ksxqjx0n7gwph6nqpzcmcw0000gn/T//ccn5JkAm.s 			page 84


 4813 06b4 B5EEC07A 		vcmpe.f32	s14, #0
 4814 06b8 F1EE10FA 		vmrs	APSR_nzcv, FPSCR
 4815 06bc 7FF5ECAE 		bpl	.L693
 4816 06c0 9FED4C7A 		vldr.32	s14, .L704
 4817 06c4 EFE6     		b	.L634
 4818              	.L686:
 4819 06c6 F5EEC06A 		vcmpe.f32	s13, #0
 4820 06ca F1EE10FA 		vmrs	APSR_nzcv, FPSCR
 4821 06ce 7FF5E0AD 		bpl	.L648
 4822 06d2 76EEA76A 		vadd.f32	s13, s13, s15
 4823 06d6 F5EEC06A 		vcmpe.f32	s13, #0
 4824 06da F1EE10FA 		vmrs	APSR_nzcv, FPSCR
 4825 06de 7FF5CCAD 		bpl	.L694
 4826 06e2 DFED446A 		vldr.32	s13, .L704
 4827 06e6 D2E5     		b	.L650
 4828              	.L625:
 4829 06e8 77EEA67A 		vadd.f32	s15, s15, s13
 4830 06ec F5EEC07A 		vcmpe.f32	s15, #0
 4831 06f0 F1EE10FA 		vmrs	APSR_nzcv, FPSCR
 4832 06f4 7FF563AF 		bpl	.L696
 4833 06f8 9FED3E6A 		vldr.32	s12, .L704
 4834              	.L691:
 4835 06fc F0EE467A 		vmov.f32	s15, s12
 4836 0700 4FF00409 		mov	r9, #4
 4837 0704 DFF82CC1 		ldr	ip, .L704+64
 4838 0708 85E7     		b	.L626
 4839              	.L641:
 4840 070a 77EE867A 		vadd.f32	s15, s15, s12
 4841 070e F5EEC07A 		vcmpe.f32	s15, #0
 4842 0712 F1EE10FA 		vmrs	APSR_nzcv, FPSCR
 4843 0716 2CD4     		bmi	.L668
 4844 0718 06EE902A 		vmov	s13, r2	@ int
 4845 071c B8EEE66A 		vcvt.f32.s32	s12, s13
 4846 0720 F4EEC67A 		vcmpe.f32	s15, s12
 4847 0724 F1EE10FA 		vmrs	APSR_nzcv, FPSCR
 4848 0728 00F3AD80 		bgt	.L643
 4849 072c FDEEE76A 		vcvt.s32.f32	s13, s15
 4850 0730 344D     		ldr	r5, .L704+16
 4851 0732 DFF8E4A0 		ldr	r10, .L704+36
 4852 0736 16EE908A 		vmov	r8, s13	@ int
 4853 073a B8EEE66A 		vcvt.f32.s32	s12, s13
 4854 073e 08F10109 		add	r9, r8, #1
 4855 0742 85FB084B 		smull	r4, fp, r5, r8
 4856 0746 4FEAE874 		asr	r4, r8, #31
 4857 074a 37EEC66A 		vsub.f32	s12, s15, s12
 4858 074e 85FB095C 		smull	r5, ip, r5, r9
 4859 0752 4FEAE975 		asr	r5, r9, #31
 4860 0756 C4EB2B54 		rsb	r4, r4, fp, asr #20
 4861 075a C5EB2C55 		rsb	r5, r5, ip, asr #20
 4862 075e DFF8D0C0 		ldr	ip, .L704+60
 4863 0762 0AFB1484 		mls	r4, r10, r4, r8
 4864 0766 0AFB1595 		mls	r5, r10, r5, r9
 4865 076a 0CEB8404 		add	r4, ip, r4, lsl #2
 4866 076e AD00     		lsls	r5, r5, #2
 4867 0770 95E7     		b	.L642
 4868              	.L668:
 4869 0772 9FED206A 		vldr.32	s12, .L704
ARM GAS  /var/folders/lg/77ksxqjx0n7gwph6nqpzcmcw0000gn/T//ccn5JkAm.s 			page 85


 4870 0776 0425     		movs	r5, #4
 4871 0778 DFF8B4C0 		ldr	ip, .L704+60
 4872 077c F0EE467A 		vmov.f32	s15, s12
 4873 0780 6446     		mov	r4, ip
 4874 0782 8CE7     		b	.L642
 4875              	.L667:
 4876 0784 DFF8A8C0 		ldr	ip, .L704+60
 4877 0788 F0EE467A 		vmov.f32	s15, s12
 4878 078c 0425     		movs	r5, #4
 4879 078e 6446     		mov	r4, ip
 4880 0790 85E7     		b	.L642
 4881              	.L669:
 4882 0792 F0EE676A 		vmov.f32	s13, s15
 4883 0796 7AE5     		b	.L650
 4884              	.L665:
 4885 0798 B0EE677A 		vmov.f32	s14, s15
 4886 079c 83E6     		b	.L634
 4887              	.L627:
 4888 079e FDEEE57A 		vcvt.s32.f32	s15, s11
 4889 07a2 DFF860E0 		ldr	lr, .L704+16
 4890 07a6 DFF870A0 		ldr	r10, .L704+36
 4891 07aa 17EE90BA 		vmov	fp, s15	@ int
 4892 07ae F0EE657A 		vmov.f32	s15, s11
 4893 07b2 8EFB0BC7 		smull	ip, r7, lr, fp
 4894 07b6 0BF10109 		add	r9, fp, #1
 4895 07ba 4FEAEB7C 		asr	ip, fp, #31
 4896 07be 07EE10BA 		vmov	s14, fp	@ int
 4897 07c2 0197     		str	r7, [sp, #4]
 4898 07c4 8EFB097E 		smull	r7, lr, lr, r9
 4899 07c8 4FEAE977 		asr	r7, r9, #31
 4900 07cc B8EEC76A 		vcvt.f32.s32	s12, s14
 4901 07d0 0297     		str	r7, [sp, #8]
 4902 07d2 019F     		ldr	r7, [sp, #4]
 4903 07d4 35EEC66A 		vsub.f32	s12, s11, s12
 4904 07d8 CCEB275C 		rsb	ip, ip, r7, asr #20
 4905 07dc 029F     		ldr	r7, [sp, #8]
 4906 07de C7EB2E5E 		rsb	lr, r7, lr, asr #20
 4907 07e2 0AFB1CBC 		mls	ip, r10, ip, fp
 4908 07e6 0AFB1E99 		mls	r9, r10, lr, r9
 4909 07ea 05EB8C0C 		add	ip, r5, ip, lsl #2
 4910 07ee 4FEA8909 		lsl	r9, r9, #2
 4911 07f2 10E7     		b	.L626
 4912              	.L705:
 4913              		.align	2
 4914              	.L704:
 4915 07f4 00000000 		.word	0
 4916 07f8 00000000 		.word	.LANCHOR107
 4917 07fc 3333733F 		.word	1064514355
 4918 0800 00000000 		.word	.LANCHOR18
 4919 0804 EFED345D 		.word	1563749871
 4920 0808 00000000 		.word	.LANCHOR99
 4921 080c 00000000 		.word	.LANCHOR69
 4922 0810 00000000 		.word	.LANCHOR103
 4923 0814 00000000 		.word	.LANCHOR109
 4924 0818 00F22B00 		.word	2880000
 4925 081c 00000000 		.word	.LANCHOR101
 4926 0820 00000000 		.word	.LANCHOR71
ARM GAS  /var/folders/lg/77ksxqjx0n7gwph6nqpzcmcw0000gn/T//ccn5JkAm.s 			page 86


 4927 0824 00000000 		.word	.LANCHOR106
 4928 0828 00000000 		.word	.LANCHOR110
 4929 082c 00000000 		.word	.LANCHOR104
 4930 0830 00000000 		.word	mlooper_frozen_buf_1l
 4931 0834 00000000 		.word	mlooper_buf_1l
 4932              	.L639:
 4933 0838 FDEEC67A 		vcvt.s32.f32	s15, s12
 4934 083c 3D4D     		ldr	r5, .L706
 4935 083e DFF8FCA0 		ldr	r10, .L706+8
 4936 0842 17EE904A 		vmov	r4, s15	@ int
 4937 0846 F0EE467A 		vmov.f32	s15, s12
 4938 084a 04F10109 		add	r9, r4, #1
 4939 084e 85FB047B 		smull	r7, fp, r5, r4
 4940 0852 4FEAE478 		asr	r8, r4, #31
 4941 0856 06EE904A 		vmov	s13, r4	@ int
 4942 085a 85FB095C 		smull	r5, ip, r5, r9
 4943 085e 4FEAE975 		asr	r5, r9, #31
 4944 0862 C8EB2B58 		rsb	r8, r8, fp, asr #20
 4945 0866 F8EEE66A 		vcvt.f32.s32	s13, s13
 4946 086a C5EB2C55 		rsb	r5, r5, ip, asr #20
 4947 086e DFF8D0C0 		ldr	ip, .L706+12
 4948 0872 0AFB1844 		mls	r4, r10, r8, r4
 4949 0876 0AFB1595 		mls	r5, r10, r5, r9
 4950 087a 36EE666A 		vsub.f32	s12, s12, s13
 4951 087e 0CEB8404 		add	r4, ip, r4, lsl #2
 4952 0882 AD00     		lsls	r5, r5, #2
 4953 0884 0BE7     		b	.L642
 4954              	.L643:
 4955 0886 FDEEC67A 		vcvt.s32.f32	s15, s12
 4956 088a 2A4D     		ldr	r5, .L706
 4957 088c DFF8ACA0 		ldr	r10, .L706+8
 4958 0890 17EE908A 		vmov	r8, s15	@ int
 4959 0894 F0EE467A 		vmov.f32	s15, s12
 4960 0898 08F10109 		add	r9, r8, #1
 4961 089c 85FB084B 		smull	r4, fp, r5, r8
 4962 08a0 4FEAE874 		asr	r4, r8, #31
 4963 08a4 06EE908A 		vmov	s13, r8	@ int
 4964 08a8 85FB095C 		smull	r5, ip, r5, r9
 4965 08ac 4FEAE975 		asr	r5, r9, #31
 4966 08b0 C4EB2B54 		rsb	r4, r4, fp, asr #20
 4967 08b4 F8EEE66A 		vcvt.f32.s32	s13, s13
 4968 08b8 C5EB2C55 		rsb	r5, r5, ip, asr #20
 4969 08bc DFF880C0 		ldr	ip, .L706+12
 4970 08c0 0AFB1484 		mls	r4, r10, r4, r8
 4971 08c4 0AFB1595 		mls	r5, r10, r5, r9
 4972 08c8 36EE666A 		vsub.f32	s12, s12, s13
 4973 08cc 0CEB8404 		add	r4, ip, r4, lsl #2
 4974 08d0 AD00     		lsls	r5, r5, #2
 4975 08d2 E4E6     		b	.L642
 4976              	.L699:
 4977 08d4 CDED020A 		vstr.32	s1, [sp, #8]	@ int
 4978 08d8 0191     		str	r1, [sp, #4]
 4979 08da FFF7FEFF 		bl	sqrtf
 4980 08de DDED020A 		vldr.32	s1, [sp, #8]	@ int
 4981 08e2 0199     		ldr	r1, [sp, #4]
 4982 08e4 33E4     		b	.L660
 4983              	.L698:
ARM GAS  /var/folders/lg/77ksxqjx0n7gwph6nqpzcmcw0000gn/T//ccn5JkAm.s 			page 87


 4984 08e6 B0EE470A 		vmov.f32	s0, s14
 4985 08ea CDED020A 		vstr.32	s1, [sp, #8]	@ int
 4986 08ee 0191     		str	r1, [sp, #4]
 4987 08f0 FFF7FEFF 		bl	sqrtf
 4988 08f4 94ED000A 		vldr.32	s0, [r4]
 4989 08f8 DDED020A 		vldr.32	s1, [sp, #8]	@ int
 4990 08fc 70EE007A 		vadd.f32	s15, s0, s0
 4991 0900 0199     		ldr	r1, [sp, #4]
 4992 0902 10E4     		b	.L659
 4993              	.L688:
 4994 0904 B0EE470A 		vmov.f32	s0, s14
 4995 0908 CDED030A 		vstr.32	s1, [sp, #12]	@ int
 4996 090c CDE90101 		strd	r0, r1, [sp, #4]
 4997 0910 FFF7FEFF 		bl	sqrtf
 4998 0914 F0EE007A 		vmov.f32	s15, #2.0e+0
 4999 0918 D4ED006A 		vldr.32	s13, [r4]
 5000 091c 9FED067A 		vldr.32	s14, .L706+4
 5001 0920 E6EEE77A 		vfms.f32	s15, s13, s15
 5002 0924 DDED030A 		vldr.32	s1, [sp, #12]	@ int
 5003 0928 DDE90101 		ldrd	r0, r1, [sp, #4]
 5004 092c 27EE870A 		vmul.f32	s0, s15, s14
 5005 0930 16E6     		b	.L658
 5006              	.L707:
 5007 0932 00BF     		.align	2
 5008              	.L706:
 5009 0934 EFED345D 		.word	1563749871
 5010 0938 3333733F 		.word	1064514355
 5011 093c 00F22B00 		.word	2880000
 5012 0940 00000000 		.word	mlooper_frozen_buf_1l
 5014              		.section	.text._Z19SelectDelayDivisionff,"ax",%progbits
 5015              		.align	1
 5016              		.p2align 2,,3
 5017              		.global	_Z19SelectDelayDivisionff
 5018              		.syntax unified
 5019              		.thumb
 5020              		.thumb_func
 5021              		.fpu fpv5-d16
 5023              	_Z19SelectDelayDivisionff:
 5024              		@ args = 0, pretend = 0, frame = 0
 5025              		@ frame_needed = 0, uses_anonymous_args = 0
 5026              		@ link register save eliminated.
 5027 0000 F3EE017A 		vmov.f32	s15, #1.7e+1
 5028 0004 1E4B     		ldr	r3, .L713
 5029 0006 1F49     		ldr	r1, .L713+4
 5030 0008 1B68     		ldr	r3, [r3]
 5031 000a 20EE270A 		vmul.f32	s0, s0, s15
 5032 000e 1E4A     		ldr	r2, .L713+8
 5033 0010 9800     		lsls	r0, r3, #2
 5034 0012 60EEA70A 		vmul.f32	s1, s1, s15
 5035 0016 01EB8303 		add	r3, r1, r3, lsl #2
 5036 001a BDEEC00A 		vcvt.s32.f32	s0, s0
 5037 001e D3ED006A 		vldr.32	s13, [r3]
 5038 0022 FDEEE00A 		vcvt.s32.f32	s1, s1
 5039 0026 10EE103A 		vmov	r3, s0	@ int
 5040 002a 10EE90CA 		vmov	ip, s1	@ int
 5041 002e 02EB8303 		add	r3, r2, r3, lsl #2
 5042 0032 02EB8C02 		add	r2, r2, ip, lsl #2
ARM GAS  /var/folders/lg/77ksxqjx0n7gwph6nqpzcmcw0000gn/T//ccn5JkAm.s 			page 88


 5043 0036 D3ED007A 		vldr.32	s15, [r3]
 5044 003a 92ED007A 		vldr.32	s14, [r2]
 5045 003e F4EE676A 		vcmp.f32	s13, s15
 5046 0042 124B     		ldr	r3, .L713+12
 5047 0044 F1EE10FA 		vmrs	APSR_nzcv, FPSCR
 5048 0048 07D1     		bne	.L709
 5049 004a 1844     		add	r0, r0, r3
 5050 004c D0ED006A 		vldr.32	s13, [r0]
 5051 0050 F4EE476A 		vcmp.f32	s13, s14
 5052 0054 F1EE10FA 		vmrs	APSR_nzcv, FPSCR
 5053 0058 10D0     		beq	.L708
 5054              	.L709:
 5055 005a 0D4A     		ldr	r2, .L713+16
 5056 005c 0D48     		ldr	r0, .L713+20
 5057 005e 1268     		ldr	r2, [r2]
 5058 0060 06EE902A 		vmov	s13, r2	@ int
 5059 0064 01EB8201 		add	r1, r1, r2, lsl #2
 5060 0068 03EB8203 		add	r3, r3, r2, lsl #2
 5061 006c F8EEE66A 		vcvt.f32.s32	s13, s13
 5062 0070 C1ED007A 		vstr.32	s15, [r1]
 5063 0074 83ED007A 		vstr.32	s14, [r3]
 5064 0078 C0ED006A 		vstr.32	s13, [r0]
 5065              	.L708:
 5066 007c 7047     		bx	lr
 5067              	.L714:
 5068 007e 00BF     		.align	2
 5069              	.L713:
 5070 0080 00000000 		.word	.LANCHOR115
 5071 0084 00000000 		.word	.LANCHOR92
 5072 0088 00000000 		.word	.LANCHOR114
 5073 008c 00000000 		.word	.LANCHOR93
 5074 0090 00000000 		.word	.LANCHOR116
 5075 0094 00000000 		.word	.LANCHOR117
 5077              		.section	.text._Z11UpdateKnobsv,"ax",%progbits
 5078              		.align	1
 5079              		.p2align 2,,3
 5080              		.global	_Z11UpdateKnobsv
 5081              		.syntax unified
 5082              		.thumb
 5083              		.thumb_func
 5084              		.fpu fpv5-d16
 5086              	_Z11UpdateKnobsv:
 5087              		@ args = 0, pretend = 0, frame = 8
 5088              		@ frame_needed = 0, uses_anonymous_args = 0
 5089 0000 2DE9F04F 		push	{r4, r5, r6, r7, r8, r9, r10, fp, lr}
 5090 0004 B54D     		ldr	r5, .L873
 5091 0006 0021     		movs	r1, #0
 5092 0008 2DED088B 		vpush.64	{d8, d9, d10, d11}
 5093 000c 2846     		mov	r0, r5
 5094 000e 83B0     		sub	sp, sp, #12
 5095 0010 FFF7FEFF 		bl	_ZN5daisy11DaisyVersio12GetKnobValueEi
 5096 0014 2846     		mov	r0, r5
 5097 0016 0121     		movs	r1, #1
 5098 0018 B0EE40BA 		vmov.f32	s22, s0
 5099 001c FFF7FEFF 		bl	_ZN5daisy11DaisyVersio12GetKnobValueEi
 5100 0020 2846     		mov	r0, r5
 5101 0022 0221     		movs	r1, #2
ARM GAS  /var/folders/lg/77ksxqjx0n7gwph6nqpzcmcw0000gn/T//ccn5JkAm.s 			page 89


 5102 0024 F0EE40AA 		vmov.f32	s21, s0
 5103 0028 FFF7FEFF 		bl	_ZN5daisy11DaisyVersio12GetKnobValueEi
 5104 002c 2846     		mov	r0, r5
 5105 002e 0321     		movs	r1, #3
 5106 0030 B0EE40AA 		vmov.f32	s20, s0
 5107 0034 FFF7FEFF 		bl	_ZN5daisy11DaisyVersio12GetKnobValueEi
 5108 0038 2846     		mov	r0, r5
 5109 003a 0421     		movs	r1, #4
 5110 003c F0EE409A 		vmov.f32	s19, s0
 5111 0040 FFF7FEFF 		bl	_ZN5daisy11DaisyVersio12GetKnobValueEi
 5112 0044 2846     		mov	r0, r5
 5113 0046 0521     		movs	r1, #5
 5114 0048 B0EE409A 		vmov.f32	s18, s0
 5115 004c FFF7FEFF 		bl	_ZN5daisy11DaisyVersio12GetKnobValueEi
 5116 0050 2846     		mov	r0, r5
 5117 0052 0621     		movs	r1, #6
 5118 0054 B0EE408A 		vmov.f32	s16, s0
 5119 0058 FFF7FEFF 		bl	_ZN5daisy11DaisyVersio12GetKnobValueEi
 5120 005c 05F26620 		addw	r0, r5, #614
 5121 0060 F0EE408A 		vmov.f32	s17, s0
 5122 0064 FFF7FEFF 		bl	dsy_gpio_read
 5123 0068 0028     		cmp	r0, #0
 5124 006a 40F02D81 		bne	.L864
 5125 006e 0446     		mov	r4, r0
 5126              	.L716:
 5127 0070 9B48     		ldr	r0, .L873+4
 5128 0072 FFF7FEFF 		bl	dsy_gpio_read
 5129 0076 0028     		cmp	r0, #0
 5130 0078 40F01E81 		bne	.L865
 5131              	.L718:
 5132 007c 994B     		ldr	r3, .L873+8
 5133 007e 9A49     		ldr	r1, .L873+12
 5134 0080 1A68     		ldr	r2, [r3]
 5135 0082 0C60     		str	r4, [r1]
 5136 0084 A242     		cmp	r2, r4
 5137 0086 19D0     		beq	.L807
 5138 0088 9849     		ldr	r1, .L873+16
 5139 008a 1C60     		str	r4, [r3]
 5140 008c 01F13000 		add	r0, r1, #48
 5141 0090 0B46     		mov	r3, r1
 5142              	.L719:
 5143 0092 0022     		movs	r2, #0
 5144 0094 0C33     		adds	r3, r3, #12
 5145 0096 5A63     		str	r2, [r3, #52]	@ float
 5146 0098 9A63     		str	r2, [r3, #56]	@ float
 5147 009a DA63     		str	r2, [r3, #60]	@ float
 5148 009c 8342     		cmp	r3, r0
 5149 009e F8D1     		bne	.L719
 5150 00a0 934E     		ldr	r6, .L873+20
 5151 00a2 A6F11003 		sub	r3, r6, #16
 5152              	.L720:
 5153 00a6 0022     		movs	r2, #0
 5154 00a8 4FF0FF30 		mov	r0, #-1
 5155 00ac 0C33     		adds	r3, r3, #12
 5156 00ae 5A60     		str	r2, [r3, #4]	@ float
 5157 00b0 9A60     		str	r2, [r3, #8]	@ float
 5158 00b2 DA60     		str	r2, [r3, #12]	@ float
ARM GAS  /var/folders/lg/77ksxqjx0n7gwph6nqpzcmcw0000gn/T//ccn5JkAm.s 			page 90


 5159 00b4 41F8040B 		str	r0, [r1], #4
 5160 00b8 8E42     		cmp	r6, r1
 5161 00ba F4D1     		bne	.L720
 5162              	.L807:
 5163 00bc 072C     		cmp	r4, #7
 5164 00be 00F2F380 		bhi	.L721
 5165 00c2 DFE814F0 		tbh	[pc, r4, lsl #1]
 5166              	.L723:
 5167 00c6 4F02     		.2byte	(.L730-.L723)/2
 5168 00c8 4D05     		.2byte	(.L729-.L723)/2
 5169 00ca 3F06     		.2byte	(.L728-.L723)/2
 5170 00cc E902     		.2byte	(.L727-.L723)/2
 5171 00ce 7203     		.2byte	(.L726-.L723)/2
 5172 00d0 2D04     		.2byte	(.L725-.L723)/2
 5173 00d2 CF04     		.2byte	(.L724-.L723)/2
 5174 00d4 5301     		.2byte	(.L722-.L723)/2
 5175              		.p2align 1
 5176              	.L749:
 5177 00d6 44F67410 		movw	r0, #18804
 5178 00da 0423     		movs	r3, #4
 5179 00dc 854A     		ldr	r2, .L873+24
 5180 00de 8649     		ldr	r1, .L873+28
 5181 00e0 9FED867A 		vldr.32	s14, .L873+32
 5182 00e4 3350     		str	r3, [r6, r0]
 5183 00e6 1160     		str	r1, [r2]	@ float
 5184              	.L748:
 5185 00e8 A6EB8600 		sub	r0, r6, r6, lsl #2
 5186 00ec 844F     		ldr	r7, .L873+36
 5187 00ee 8549     		ldr	r1, .L873+40
 5188 00f0 B146     		mov	r9, r6
 5189 00f2 854A     		ldr	r2, .L873+44
 5190 00f4 3844     		add	r0, r0, r7
 5191 00f6 01F1F00B 		add	fp, r1, #240
 5192 00fa 0194     		str	r4, [sp, #4]
 5193 00fc A2F16B0A 		sub	r10, r2, #107
 5194 0100 8046     		mov	r8, r0
 5195              	.L762:
 5196 0102 12F8017F 		ldrb	r7, [r2, #1]!	@ zero_extendqisi2
 5197 0106 D8B2     		uxtb	r0, r3
 5198 0108 804E     		ldr	r6, .L873+48
 5199 010a 4FF0010C 		mov	ip, #1
 5200 010e 0024     		movs	r4, #0
 5201 0110 2FB1     		cbz	r7, .L759
 5202 0112 0828     		cmp	r0, #8
 5203 0114 28BF     		it	cs
 5204 0116 2046     		movcs	r0, r4
 5205 0118 0870     		strb	r0, [r1]
 5206 011a 3368     		ldr	r3, [r6]
 5207 011c 1470     		strb	r4, [r2]
 5208              	.L759:
 5209 011e DAF80000 		ldr	r0, [r10]
 5210 0122 2831     		adds	r1, r1, #40
 5211 0124 9842     		cmp	r0, r3
 5212 0126 03D0     		beq	.L761
 5213 0128 82F800C0 		strb	ip, [r2]
 5214 012c 48F82240 		str	r4, [r8, r2, lsl #2]
 5215              	.L761:
ARM GAS  /var/folders/lg/77ksxqjx0n7gwph6nqpzcmcw0000gn/T//ccn5JkAm.s 			page 91


 5216 0130 5945     		cmp	r1, fp
 5217 0132 E6D1     		bne	.L762
 5218 0134 9842     		cmp	r0, r3
 5219 0136 019C     		ldr	r4, [sp, #4]
 5220 0138 4E46     		mov	r6, r9
 5221 013a 03D0     		beq	.L763
 5222 013c 44F67012 		movw	r2, #18800
 5223 0140 49F80230 		str	r3, [r9, r2]
 5224              	.L763:
 5225 0144 78EE087A 		vadd.f32	s15, s16, s16
 5226 0148 714B     		ldr	r3, .L873+52
 5227 014a 83ED007A 		vstr.32	s14, [r3]
 5228 014e F5EEC07A 		vcmpe.f32	s15, #0
 5229 0152 F1EE10FA 		vmrs	APSR_nzcv, FPSCR
 5230 0156 01F11E81 		bmi	.L817
 5231 015a B7EE007A 		vmov.f32	s14, #1.0e+0
 5232 015e F4EEC77A 		vcmpe.f32	s15, s14
 5233 0162 F1EE10FA 		vmrs	APSR_nzcv, FPSCR
 5234 0166 07DC     		bgt	.L764
 5235 0168 F1EE066A 		vmov.f32	s13, #5.5e+0
 5236 016c A7EEA67A 		vfma.f32	s14, s15, s13
 5237 0170 FDEEC77A 		vcvt.s32.f32	s15, s14
 5238 0174 17EE904A 		vmov	r4, s15	@ int
 5239              	.L764:
 5240 0178 F6EE007A 		vmov.f32	s15, #5.0e-1
 5241 017c 654B     		ldr	r3, .L873+56
 5242 017e F0EE086A 		vmov.f32	s13, #3.0e+0
 5243 0182 B0EE007A 		vmov.f32	s14, #2.0e+0
 5244 0186 1C60     		str	r4, [r3]
 5245 0188 38EE678A 		vsub.f32	s16, s16, s15
 5246 018c F7EE007A 		vmov.f32	s15, #1.0e+0
 5247 0190 28EE268A 		vmul.f32	s16, s16, s13
 5248 0194 F0EE676A 		vmov.f32	s13, s15
 5249 0198 E8EE076A 		vfma.f32	s13, s16, s14
 5250 019c F4EEE76A 		vcmpe.f32	s13, s15
 5251 01a0 B0EE667A 		vmov.f32	s14, s13
 5252 01a4 F1EE10FA 		vmrs	APSR_nzcv, FPSCR
 5253 01a8 01F1FF80 		bmi	.L818
 5254 01ac F1EE006A 		vmov.f32	s13, #4.0e+0
 5255 01b0 B4EEE67A 		vcmpe.f32	s14, s13
 5256 01b4 F1EE10FA 		vmrs	APSR_nzcv, FPSCR
 5257 01b8 01F3DE81 		bgt	.L819
 5258 01bc F5EE007A 		vmov.f32	s15, #2.5e-1
 5259 01c0 67EE277A 		vmul.f32	s15, s14, s15
 5260              	.L765:
 5261 01c4 44F65C13 		movw	r3, #18780
 5262 01c8 534A     		ldr	r2, .L873+60
 5263 01ca 5449     		ldr	r1, .L873+64
 5264 01cc B0EE4A0A 		vmov.f32	s0, s20
 5265 01d0 F450     		str	r4, [r6, r3]
 5266 01d2 C2ED007A 		vstr.32	s15, [r2]
 5267 01d6 81ED007A 		vstr.32	s14, [r1]
 5268 01da FFF7FEFF 		bl	_Z19SelectSpectraOctavef
 5269 01de 504B     		ldr	r3, .L873+68
 5270 01e0 0022     		movs	r2, #0
 5271 01e2 5048     		ldr	r0, .L873+72
 5272 01e4 1A60     		str	r2, [r3]	@ float
ARM GAS  /var/folders/lg/77ksxqjx0n7gwph6nqpzcmcw0000gn/T//ccn5JkAm.s 			page 92


 5273 01e6 FFF7FEFF 		bl	_ZN5daisy6GateIn4TrigEv
 5274 01ea 0028     		cmp	r0, #0
 5275 01ec 41F07281 		bne	.L866
 5276              	.L766:
 5277 01f0 4D4B     		ldr	r3, .L873+76
 5278 01f2 B6EE006B 		vmov.f64	d6, #5.0e-1
 5279 01f6 B2EE040A 		vmov.f32	s0, #1.0e+1
 5280 01fa DFED4C5A 		vldr.32	s11, .L873+80
 5281 01fe 93ED007A 		vldr.32	s14, [r3]
 5282 0202 4B4C     		ldr	r4, .L873+84
 5283 0204 B7EEC77A 		vcvt.f64.f32	d7, s14
 5284 0208 4A4B     		ldr	r3, .L873+88
 5285 020a 4B4A     		ldr	r2, .L873+92
 5286 020c A9EE250A 		vfma.f32	s0, s18, s11
 5287 0210 9FED4A8A 		vldr.32	s16, .L873+96
 5288 0214 27EE067B 		vmul.f64	d7, d7, d6
 5289 0218 82ED008A 		vstr.32	s16, [r2]
 5290 021c 27EE067B 		vmul.f64	d7, d7, d6
 5291 0220 B7EEC77B 		vcvt.f32.f64	s14, d7
 5292 0224 84ED017A 		vstr.32	s14, [r4, #4]
 5293 0228 83ED007A 		vstr.32	s14, [r3]
 5294 022c FFF7FEFF 		bl	log10f
 5295 0230 9FED437A 		vldr.32	s14, .L873+100
 5296 0234 4FF07C50 		mov	r0, #1056964608
 5297 0238 DFED427A 		vldr.32	s15, .L873+104
 5298 023c 30EE470A 		vsub.f32	s0, s0, s14
 5299 0240 9FED417A 		vldr.32	s14, .L873+108
 5300 0244 414B     		ldr	r3, .L873+112
 5301 0246 29EE079A 		vmul.f32	s18, s18, s14
 5302 024a 4149     		ldr	r1, .L873+116
 5303 024c 70EE277A 		vadd.f32	s15, s0, s15
 5304 0250 404A     		ldr	r2, .L873+120
 5305 0252 0860     		str	r0, [r1]	@ float
 5306 0254 B4EEC89A 		vcmpe.f32	s18, s16
 5307 0258 82ED00BA 		vstr.32	s22, [r2]
 5308 025c C4ED007A 		vstr.32	s15, [r4]
 5309 0260 C3ED007A 		vstr.32	s15, [r3]
 5310 0264 F1EE10FA 		vmrs	APSR_nzcv, FPSCR
 5311 0268 01F19B80 		bmi	.L820
 5312 026c F7EE007A 		vmov.f32	s15, #1.0e+0
 5313 0270 B4EE679A 		vcmp.f32	s18, s15
 5314 0274 F1EE10FA 		vmrs	APSR_nzcv, FPSCR
 5315 0278 37FE899A 		vselgt.f32	s18, s15, s18
 5316              	.L767:
 5317 027c F2EE087A 		vmov.f32	s15, #1.2e+1
 5318 0280 95F85532 		ldrb	r3, [r5, #597]	@ zero_extendqisi2
 5319 0284 344A     		ldr	r2, .L873+124
 5320 0286 3549     		ldr	r1, .L873+128
 5321 0288 7F2B     		cmp	r3, #127
 5322 028a 69EEA79A 		vmul.f32	s19, s19, s15
 5323 028e 81ED009A 		vstr.32	s18, [r1]
 5324 0292 F8FE699A 		vrinta.f32	s19, s19
 5325 0296 FDEEE99A 		vcvt.s32.f32	s19, s19
 5326 029a C2ED009A 		vstr.32	s19, [r2]	@ int
 5327 029e 00F0A087 		beq	.L867
 5328              	.L769:
 5329 02a2 2F4B     		ldr	r3, .L873+132
ARM GAS  /var/folders/lg/77ksxqjx0n7gwph6nqpzcmcw0000gn/T//ccn5JkAm.s 			page 93


 5330 02a4 83ED009A 		vstr.32	s18, [r3]
 5331              	.L721:
 5332 02a8 2E48     		ldr	r0, .L873+136
 5333 02aa 03B0     		add	sp, sp, #12
 5334              		@ sp needed
 5335 02ac BDEC088B 		vldm	sp!, {d8-d11}
 5336 02b0 BDE8F04F 		pop	{r4, r5, r6, r7, r8, r9, r10, fp, lr}
 5337 02b4 FFF7FEBF 		b	_ZN5daisy6Switch8DebounceEv
 5338              	.L865:
 5339 02b8 2B48     		ldr	r0, .L873+140
 5340 02ba FFF7FEFF 		bl	dsy_gpio_read
 5341 02be 0028     		cmp	r0, #0
 5342 02c0 00F0FE86 		beq	.L868
 5343 02c4 0334     		adds	r4, r4, #3
 5344 02c6 D9E6     		b	.L718
 5345              	.L864:
 5346 02c8 05F26A20 		addw	r0, r5, #618
 5347 02cc FFF7FEFF 		bl	dsy_gpio_read
 5348 02d0 0028     		cmp	r0, #0
 5349 02d2 14BF     		ite	ne
 5350 02d4 0124     		movne	r4, #1
 5351 02d6 0224     		moveq	r4, #2
 5352 02d8 CAE6     		b	.L716
 5353              	.L874:
 5354 02da 00BF     		.align	2
 5355              	.L873:
 5356 02dc 00000000 		.word	.LANCHOR78
 5357 02e0 6E020000 		.word	.LANCHOR78+622
 5358 02e4 00000000 		.word	.LANCHOR118
 5359 02e8 00000000 		.word	.LANCHOR9
 5360 02ec 00000000 		.word	.LANCHOR18
 5361 02f0 10000000 		.word	.LANCHOR18+16
 5362 02f4 6C490000 		.word	_ZL15spectra_oscbank+18796
 5363 02f8 CDCCCC3E 		.word	1053609165
 5364 02fc 1CC7713F 		.word	1064421148
 5365 0300 5422FFFF 		.word	-56748
 5366 0304 00000000 		.word	_ZL15spectra_oscbank
 5367 0308 DB490000 		.word	_ZL15spectra_oscbank+18907
 5368 030c 74490000 		.word	_ZL15spectra_oscbank+18804
 5369 0310 00000000 		.word	.LANCHOR127
 5370 0314 00000000 		.word	.LANCHOR128
 5371 0318 00000000 		.word	.LANCHOR130
 5372 031c 00000000 		.word	.LANCHOR129
 5373 0320 00000000 		.word	.LANCHOR131
 5374 0324 60020000 		.word	.LANCHOR78+608
 5375 0328 00000000 		.word	.LANCHOR26
 5376 032c 0000B442 		.word	1119092736
 5377 0330 00000000 		.word	_ZL3rev
 5378 0334 00000000 		.word	.LANCHOR119
 5379 0338 00000000 		.word	.LANCHOR20
 5380 033c 00000000 		.word	0
 5381 0340 0800803F 		.word	1065353224
 5382 0344 CDCC4C3E 		.word	1045220557
 5383 0348 CDCC8C3F 		.word	1066192077
 5384 034c 00000000 		.word	.LANCHOR19
 5385 0350 00000000 		.word	.LANCHOR22
 5386 0354 00000000 		.word	.LANCHOR136
ARM GAS  /var/folders/lg/77ksxqjx0n7gwph6nqpzcmcw0000gn/T//ccn5JkAm.s 			page 94


 5387 0358 00000000 		.word	.LANCHOR137
 5388 035c 00000000 		.word	.LANCHOR25
 5389 0360 00000000 		.word	.LANCHOR148
 5390 0364 50020000 		.word	.LANCHOR78+592
 5391 0368 72020000 		.word	.LANCHOR78+626
 5392              	.L722:
 5393 036c F2EE087A 		vmov.f32	s15, #1.2e+1
 5394 0370 95F85532 		ldrb	r3, [r5, #597]	@ zero_extendqisi2
 5395 0374 A44A     		ldr	r2, .L875+40
 5396 0376 7F2B     		cmp	r3, #127
 5397 0378 69EEA79A 		vmul.f32	s19, s19, s15
 5398 037c F8FE699A 		vrinta.f32	s19, s19
 5399 0380 FDEEE99A 		vcvt.s32.f32	s19, s19
 5400 0384 C2ED009A 		vstr.32	s19, [r2]	@ int
 5401 0388 01F02080 		beq	.L869
 5402              	.L789:
 5403 038c 9F4E     		ldr	r6, .L875+44
 5404 038e 44F6E413 		movw	r3, #18916
 5405 0392 1022     		movs	r2, #16
 5406 0394 9E4C     		ldr	r4, .L875+48
 5407 0396 96ED4E0A 		vldr.32	s0, [r6, #312]
 5408 039a F250     		str	r2, [r6, r3]
 5409 039c 2046     		mov	r0, r4
 5410 039e 29EE000A 		vmul.f32	s0, s18, s0
 5411 03a2 9C4D     		ldr	r5, .L875+52
 5412 03a4 FFF7FEFF 		bl	_ZN7daisysp11StringVoice13SetBrightnessEf
 5413 03a8 96ED4E0A 		vldr.32	s0, [r6, #312]
 5414 03ac 2046     		mov	r0, r4
 5415 03ae FFF7FEFF 		bl	_ZN7daisysp11StringVoice9SetAccentEf
 5416 03b2 B0EE680A 		vmov.f32	s0, s17
 5417 03b6 2046     		mov	r0, r4
 5418 03b8 FFF7FEFF 		bl	_ZN7daisysp11StringVoice12SetStructureEf
 5419 03bc 96ED4F0A 		vldr.32	s0, [r6, #316]
 5420 03c0 9548     		ldr	r0, .L875+56
 5421 03c2 29EE000A 		vmul.f32	s0, s18, s0
 5422 03c6 FFF7FEFF 		bl	_ZN7daisysp11StringVoice13SetBrightnessEf
 5423 03ca 96ED4F0A 		vldr.32	s0, [r6, #316]
 5424 03ce 9248     		ldr	r0, .L875+56
 5425 03d0 FFF7FEFF 		bl	_ZN7daisysp11StringVoice9SetAccentEf
 5426 03d4 B0EE680A 		vmov.f32	s0, s17
 5427 03d8 8F48     		ldr	r0, .L875+56
 5428 03da FFF7FEFF 		bl	_ZN7daisysp11StringVoice12SetStructureEf
 5429 03de 0223     		movs	r3, #2
 5430 03e0 8E4A     		ldr	r2, .L875+60
 5431 03e2 4FF08141 		mov	r1, #1082130432
 5432 03e6 44F65C10 		movw	r0, #18780
 5433 03ea B0EE4A0A 		vmov.f32	s0, s20
 5434 03ee 1360     		str	r3, [r2]
 5435 03f0 8B4A     		ldr	r2, .L875+64
 5436 03f2 3350     		str	r3, [r6, r0]
 5437 03f4 1160     		str	r1, [r2]	@ float
 5438 03f6 0022     		movs	r2, #0
 5439 03f8 8A4B     		ldr	r3, .L875+68
 5440 03fa 1A60     		str	r2, [r3]	@ float
 5441 03fc FFF7FEFF 		bl	_Z19SelectSpectraOctavef
 5442 0400 2B78     		ldrb	r3, [r5]	@ zero_extendqisi2
 5443 0402 002B     		cmp	r3, #0
ARM GAS  /var/folders/lg/77ksxqjx0n7gwph6nqpzcmcw0000gn/T//ccn5JkAm.s 			page 95


 5444 0404 41F04D80 		bne	.L870
 5445              	.L800:
 5446 0408 8748     		ldr	r0, .L875+72
 5447 040a FFF7FEFF 		bl	_ZN5daisy6GateIn4TrigEv
 5448 040e 48B3     		cbz	r0, .L801
 5449 0410 8648     		ldr	r0, .L875+76
 5450 0412 0027     		movs	r7, #0
 5451 0414 864A     		ldr	r2, .L875+80
 5452 0416 0368     		ldr	r3, [r0]
 5453 0418 1468     		ldr	r4, [r2]
 5454 041a 5A1C     		adds	r2, r3, #1
 5455 041c 8549     		ldr	r1, .L875+84
 5456 041e 92FBF4F3 		sdiv	r3, r2, r4
 5457 0422 04FB1323 		mls	r3, r4, r3, r2
 5458 0426 844A     		ldr	r2, .L875+88
 5459 0428 844C     		ldr	r4, .L875+92
 5460 042a 06EB8306 		add	r6, r6, r3, lsl #2
 5461 042e 0360     		str	r3, [r0]
 5462 0430 8348     		ldr	r0, .L875+96
 5463 0432 02EB8302 		add	r2, r2, r3, lsl #2
 5464 0436 01EB8301 		add	r1, r1, r3, lsl #2
 5465 043a D6F83861 		ldr	r6, [r6, #312]	@ float
 5466 043e 40F82370 		str	r7, [r0, r3, lsl #2]
 5467 0442 0120     		movs	r0, #1
 5468 0444 82ED008A 		vstr.32	s16, [r2]
 5469 0448 4FF07E52 		mov	r2, #1065353216
 5470 044c 0E60     		str	r6, [r1]	@ float
 5471 044e 2070     		strb	r0, [r4]
 5472 0450 2870     		strb	r0, [r5]
 5473 0452 002B     		cmp	r3, #0
 5474 0454 40F05686 		bne	.L802
 5475 0458 7A4B     		ldr	r3, .L875+100
 5476 045a 0A21     		movs	r1, #10
 5477 045c DA61     		str	r2, [r3, #28]	@ float
 5478 045e 1A62     		str	r2, [r3, #32]	@ float
 5479 0460 5A62     		str	r2, [r3, #36]	@ float
 5480 0462 5960     		str	r1, [r3, #4]
 5481              	.L801:
 5482 0464 2AEEAA5A 		vmul.f32	s10, s21, s21
 5483 0468 774B     		ldr	r3, .L875+104
 5484 046a B7EE006B 		vmov.f64	d6, #1.0e+0
 5485 046e DFED773A 		vldr.32	s7, .L875+108
 5486 0472 B2EE040A 		vmov.f32	s0, #1.0e+1
 5487 0476 93ED007A 		vldr.32	s14, [r3]
 5488 047a B7EEC55A 		vcvt.f64.f32	d5, s10
 5489 047e 744C     		ldr	r4, .L875+112
 5490 0480 B7EEC77A 		vcvt.f64.f32	d7, s14
 5491 0484 734B     		ldr	r3, .L875+116
 5492 0486 AAEEA30A 		vfma.f32	s0, s21, s7
 5493 048a 7348     		ldr	r0, .L875+120
 5494 048c B6EE004B 		vmov.f64	d4, #5.0e-1
 5495 0490 7249     		ldr	r1, .L875+124
 5496 0492 F7EE008A 		vmov.f32	s17, #1.0e+0
 5497 0496 724A     		ldr	r2, .L875+128
 5498 0498 9FED728A 		vldr.32	s16, .L875+132
 5499 049c 81ED00BA 		vstr.32	s22, [r1]
 5500 04a0 C0ED008A 		vstr.32	s17, [r0]
ARM GAS  /var/folders/lg/77ksxqjx0n7gwph6nqpzcmcw0000gn/T//ccn5JkAm.s 			page 96


 5501 04a4 82ED008A 		vstr.32	s16, [r2]
 5502 04a8 9FED4D2B 		vldr.64	d2, .L875
 5503 04ac 9FED4E3B 		vldr.64	d3, .L875+8
 5504 04b0 A5EE426B 		vfms.f64	d6, d5, d2
 5505 04b4 27EE037B 		vmul.f64	d7, d7, d3
 5506 04b8 27EE067B 		vmul.f64	d7, d7, d6
 5507 04bc 27EE047B 		vmul.f64	d7, d7, d4
 5508 04c0 B7EEC77B 		vcvt.f32.f64	s14, d7
 5509 04c4 84ED017A 		vstr.32	s14, [r4, #4]
 5510 04c8 83ED007A 		vstr.32	s14, [r3]
 5511 04cc FFF7FEFF 		bl	log10f
 5512 04d0 9FED655A 		vldr.32	s10, .L875+136
 5513 04d4 4FF07C51 		mov	r1, #1056964608
 5514 04d8 9FED647A 		vldr.32	s14, .L875+140
 5515 04dc 30EE450A 		vsub.f32	s0, s0, s10
 5516 04e0 634B     		ldr	r3, .L875+144
 5517 04e2 2AEE877A 		vmul.f32	s14, s21, s14
 5518 04e6 6348     		ldr	r0, .L875+148
 5519 04e8 634A     		ldr	r2, .L875+152
 5520 04ea B7EEC00A 		vcvt.f64.f32	d0, s0
 5521 04ee C0ED008A 		vstr.32	s17, [r0]
 5522 04f2 B4EEC87A 		vcmpe.f32	s14, s16
 5523 04f6 1160     		str	r1, [r2]	@ float
 5524 04f8 9FED3D4B 		vldr.64	d4, .L875+16
 5525 04fc 9FED3E6B 		vldr.64	d6, .L875+24
 5526 0500 F1EE10FA 		vmrs	APSR_nzcv, FPSCR
 5527 0504 A0EE046B 		vfma.f64	d6, d0, d4
 5528 0508 B7EEC66B 		vcvt.f32.f64	s12, d6
 5529 050c 84ED006A 		vstr.32	s12, [r4]
 5530 0510 83ED006A 		vstr.32	s12, [r3]
 5531 0514 00F14F87 		bmi	.L821
 5532 0518 B4EEE87A 		vcmpe.f32	s14, s17
 5533 051c F1EE10FA 		vmrs	APSR_nzcv, FPSCR
 5534 0520 00F3F885 		bgt	.L822
 5535 0524 B7EEC77A 		vcvt.f64.f32	d7, s14
 5536 0528 DFED546A 		vldr.32	s13, .L875+156
 5537 052c F5EE005A 		vmov.f32	s11, #2.5e-1
 5538 0530 9FED536A 		vldr.32	s12, .L875+160
 5539 0534 9FED324B 		vldr.64	d4, .L875+32
 5540 0538 27EE047B 		vmul.f64	d7, d7, d4
 5541 053c B7EEC77B 		vcvt.f32.f64	s14, d7
 5542 0540 27EE257A 		vmul.f32	s14, s14, s11
 5543 0544 C7EE267A 		vdiv.f32	s15, s14, s13
 5544 0548 77EE867A 		vadd.f32	s15, s15, s12
 5545 054c F4EEC87A 		vcmpe.f32	s15, s16
 5546 0550 F1EE10FA 		vmrs	APSR_nzcv, FPSCR
 5547 0554 40F1E585 		bpl	.L871
 5548 0558 F0EE487A 		vmov.f32	s15, s16
 5549              	.L804:
 5550 055c 494B     		ldr	r3, .L875+164
 5551 055e C3ED007A 		vstr.32	s15, [r3]
 5552 0562 A1E6     		b	.L721
 5553              	.L730:
 5554 0564 384B     		ldr	r3, .L875+104
 5555 0566 B6EE008A 		vmov.f32	s16, #5.0e-1
 5556 056a B2EE040A 		vmov.f32	s0, #1.0e+1
 5557 056e 9FED377A 		vldr.32	s14, .L875+108
ARM GAS  /var/folders/lg/77ksxqjx0n7gwph6nqpzcmcw0000gn/T//ccn5JkAm.s 			page 97


 5558 0572 D3ED007A 		vldr.32	s15, [r3]
 5559 0576 364C     		ldr	r4, .L875+112
 5560 0578 2AEE27AA 		vmul.f32	s20, s20, s15
 5561 057c 354B     		ldr	r3, .L875+116
 5562 057e 384A     		ldr	r2, .L875+128
 5563 0580 A9EE070A 		vfma.f32	s0, s18, s14
 5564 0584 2AEE08AA 		vmul.f32	s20, s20, s16
 5565 0588 C2ED009A 		vstr.32	s19, [r2]
 5566 058c 84ED01AA 		vstr.32	s20, [r4, #4]
 5567 0590 83ED00AA 		vstr.32	s20, [r3]
 5568 0594 FFF7FEFF 		bl	log10f
 5569 0598 DFED337A 		vldr.32	s15, .L875+136
 5570 059c 78EE888A 		vadd.f32	s17, s17, s16
 5571 05a0 DFED396A 		vldr.32	s13, .L875+168
 5572 05a4 30EE670A 		vsub.f32	s0, s0, s15
 5573 05a8 9FED387A 		vldr.32	s14, .L875+172
 5574 05ac DFED387A 		vldr.32	s15, .L875+176
 5575 05b0 3148     		ldr	r0, .L875+152
 5576 05b2 A0EE267A 		vfma.f32	s14, s0, s13
 5577 05b6 2E4A     		ldr	r2, .L875+144
 5578 05b8 29EE279A 		vmul.f32	s18, s18, s15
 5579 05bc 354B     		ldr	r3, .L875+180
 5580 05be 3149     		ldr	r1, .L875+164
 5581 05c0 C0ED008A 		vstr.32	s17, [r0]
 5582 05c4 BDEEC99A 		vcvt.s32.f32	s18, s18
 5583 05c8 81ED00BA 		vstr.32	s22, [r1]
 5584 05cc 84ED007A 		vstr.32	s14, [r4]
 5585 05d0 82ED007A 		vstr.32	s14, [r2]
 5586 05d4 83ED009A 		vstr.32	s18, [r3]	@ int
 5587 05d8 66E6     		b	.L721
 5588              	.L876:
 5589 05da 00BFAFF3 		.align	3
 5589      0080
 5590              	.L875:
 5591 05e0 33333333 		.word	858993459
 5592 05e4 3333E33F 		.word	1071854387
 5593 05e8 9A999999 		.word	2576980378
 5594 05ec 9999D93F 		.word	1071225241
 5595 05f0 894160E5 		.word	3848290697
 5596 05f4 D022D33F 		.word	1070801616
 5597 05f8 00000060 		.word	1610612736
 5598 05fc 6666E63F 		.word	1072064102
 5599 0600 66666666 		.word	1717986918
 5600 0604 6666EE3F 		.word	1072588390
 5601 0608 00000000 		.word	.LANCHOR137
 5602 060c 00000000 		.word	_ZL15spectra_oscbank
 5603 0610 00000000 		.word	_ZL12string_voice
 5604 0614 00000000 		.word	.LANCHOR167
 5605 0618 E4140000 		.word	_ZL12string_voice+5348
 5606 061c 00000000 		.word	.LANCHOR128
 5607 0620 00000000 		.word	.LANCHOR129
 5608 0624 00000000 		.word	.LANCHOR130
 5609 0628 60020000 		.word	.LANCHOR78+608
 5610 062c 00000000 		.word	.LANCHOR168
 5611 0630 00000000 		.word	.LANCHOR170
 5612 0634 00000000 		.word	.LANCHOR171
 5613 0638 00000000 		.word	.LANCHOR169
ARM GAS  /var/folders/lg/77ksxqjx0n7gwph6nqpzcmcw0000gn/T//ccn5JkAm.s 			page 98


 5614 063c 00000000 		.word	.LANCHOR132
 5615 0640 00000000 		.word	.LANCHOR172
 5616 0644 00000000 		.word	.LANCHOR18
 5617 0648 00000000 		.word	.LANCHOR26
 5618 064c 0000B442 		.word	1119092736
 5619 0650 00000000 		.word	_ZL3rev
 5620 0654 00000000 		.word	.LANCHOR119
 5621 0658 00000000 		.word	.LANCHOR174
 5622 065c 00000000 		.word	.LANCHOR173
 5623 0660 00000000 		.word	.LANCHOR20
 5624 0664 00000000 		.word	0
 5625 0668 0800803F 		.word	1065353224
 5626 066c CDCC8C3F 		.word	1066192077
 5627 0670 00000000 		.word	.LANCHOR19
 5628 0674 00000000 		.word	.LANCHOR136
 5629 0678 00000000 		.word	.LANCHOR22
 5630 067c 3333733F 		.word	1064514355
 5631 0680 3333333F 		.word	1060320051
 5632 0684 00000000 		.word	.LANCHOR25
 5633 0688 CDCCCC3E 		.word	1053609165
 5634 068c CDCC4C3F 		.word	1061997773
 5635 0690 0000C842 		.word	1120403456
 5636 0694 00000000 		.word	.LANCHOR120
 5637              	.L727:
 5638 0698 7748     		ldr	r0, .L877+8
 5639 069a B2EE04AA 		vmov.f32	s20, #1.0e+1
 5640 069e FFF7FEFF 		bl	_ZN5daisy9Parameter7ProcessEv
 5641 06a2 79EEA99A 		vadd.f32	s19, s19, s19
 5642 06a6 754C     		ldr	r4, .L877+12
 5643 06a8 7548     		ldr	r0, .L877+16
 5644 06aa 764B     		ldr	r3, .L877+20
 5645 06ac 84ED000A 		vstr.32	s0, [r4]
 5646 06b0 80ED030A 		vstr.32	s0, [r0, #12]
 5647 06b4 C3ED009A 		vstr.32	s19, [r3]
 5648 06b8 FFF7FEFF 		bl	_ZN7daisysp4Tone21CalculateCoefficientsEv
 5649 06bc 2368     		ldr	r3, [r4]	@ float
 5650 06be 7248     		ldr	r0, .L877+24
 5651 06c0 DFED729A 		vldr.32	s19, .L877+28
 5652 06c4 C360     		str	r3, [r0, #12]	@ float
 5653 06c6 FFF7FEFF 		bl	_ZN7daisysp4Tone21CalculateCoefficientsEv
 5654 06ca 7148     		ldr	r0, .L877+32
 5655 06cc FFF7FEFF 		bl	_ZN5daisy9Parameter7ProcessEv
 5656 06d0 2268     		ldr	r2, [r4]	@ float
 5657 06d2 7048     		ldr	r0, .L877+36
 5658 06d4 FDEEC07A 		vcvt.s32.f32	s15, s0
 5659 06d8 B7EECBBA 		vcvt.f64.f32	d11, s22
 5660 06dc 6E4C     		ldr	r4, .L877+40
 5661 06de 0260     		str	r2, [r0]	@ float
 5662 06e0 B0EE4A0A 		vmov.f32	s0, s20
 5663 06e4 6D48     		ldr	r0, .L877+44
 5664 06e6 6E49     		ldr	r1, .L877+48
 5665 06e8 C0ED007A 		vstr.32	s15, [r0]	@ int
 5666 06ec A9EE290A 		vfma.f32	s0, s18, s19
 5667 06f0 6260     		str	r2, [r4, #4]	@ float
 5668 06f2 9FED5F7B 		vldr.64	d7, .L877
 5669 06f6 2BEE07BB 		vmul.f64	d11, d11, d7
 5670 06fa B7EECBBB 		vcvt.f32.f64	s22, d11
ARM GAS  /var/folders/lg/77ksxqjx0n7gwph6nqpzcmcw0000gn/T//ccn5JkAm.s 			page 99


 5671 06fe 81ED00BA 		vstr.32	s22, [r1]
 5672 0702 FFF7FEFF 		bl	log10f
 5673 0706 9FED677A 		vldr.32	s14, .L877+52
 5674 070a F0EE086A 		vmov.f32	s13, #3.0e+0
 5675 070e 9FED666A 		vldr.32	s12, .L877+56
 5676 0712 28EE088A 		vmul.f32	s16, s16, s16
 5677 0716 30EE477A 		vsub.f32	s14, s0, s14
 5678 071a DFED647A 		vldr.32	s15, .L877+60
 5679 071e B0EE4A0A 		vmov.f32	s0, s20
 5680 0722 634B     		ldr	r3, .L877+64
 5681 0724 28EE268A 		vmul.f32	s16, s16, s13
 5682 0728 624A     		ldr	r2, .L877+68
 5683 072a E7EE067A 		vfma.f32	s15, s14, s12
 5684 072e A8EEA90A 		vfma.f32	s0, s17, s19
 5685 0732 82ED008A 		vstr.32	s16, [r2]
 5686 0736 C4ED007A 		vstr.32	s15, [r4]
 5687 073a C3ED007A 		vstr.32	s15, [r3]
 5688 073e FFF7FEFF 		bl	log10f
 5689 0742 DFED5D7A 		vldr.32	s15, .L877+72
 5690 0746 B7EE007A 		vmov.f32	s14, #1.0e+0
 5691 074a DFED5C5A 		vldr.32	s11, .L877+76
 5692 074e 30EE670A 		vsub.f32	s0, s0, s15
 5693 0752 DFED5B7A 		vldr.32	s15, .L877+80
 5694 0756 9FED5B6A 		vldr.32	s12, .L877+84
 5695 075a DFED5B6A 		vldr.32	s13, .L877+88
 5696 075e E0EE257A 		vfma.f32	s15, s0, s11
 5697 0762 77EE677A 		vsub.f32	s15, s14, s15
 5698 0766 67EE867A 		vmul.f32	s15, s15, s12
 5699 076a F4EEE67A 		vcmpe.f32	s15, s13
 5700 076e F1EE10FA 		vmrs	APSR_nzcv, FPSCR
 5701 0772 00F12486 		bmi	.L815
 5702 0776 9FED557A 		vldr.32	s14, .L877+92
 5703 077a F4EE477A 		vcmp.f32	s15, s14
 5704 077e F1EE10FA 		vmrs	APSR_nzcv, FPSCR
 5705 0782 77FE277A 		vselgt.f32	s15, s14, s15
 5706              	.L734:
 5707 0786 9FED527A 		vldr.32	s14, .L877+96
 5708 078a 4FF07C54 		mov	r4, #1056964608
 5709 078e 514D     		ldr	r5, .L877+100
 5710 0790 0022     		movs	r2, #0
 5711 0792 29EE079A 		vmul.f32	s18, s18, s14
 5712 0796 5048     		ldr	r0, .L877+104
 5713 0798 5049     		ldr	r1, .L877+108
 5714 079a 514B     		ldr	r3, .L877+112
 5715 079c 85ED009A 		vstr.32	s18, [r5]
 5716 07a0 0460     		str	r4, [r0]	@ float
 5717 07a2 C1ED007A 		vstr.32	s15, [r1]
 5718 07a6 1A60     		str	r2, [r3]	@ float
 5719 07a8 7EE5     		b	.L721
 5720              	.L726:
 5721 07aa 4E48     		ldr	r0, .L877+116
 5722 07ac FFF7FEFF 		bl	_ZN5daisy6GateIn4TrigEv
 5723 07b0 50B3     		cbz	r0, .L736
 5724 07b2 4D4B     		ldr	r3, .L877+120
 5725 07b4 0025     		movs	r5, #0
 5726 07b6 4D49     		ldr	r1, .L877+124
 5727 07b8 4FF07E52 		mov	r2, #1065353216
ARM GAS  /var/folders/lg/77ksxqjx0n7gwph6nqpzcmcw0000gn/T//ccn5JkAm.s 			page 100


 5728 07bc 1868     		ldr	r0, [r3]
 5729 07be 0A24     		movs	r4, #10
 5730 07c0 1D60     		str	r5, [r3]
 5731 07c2 0125     		movs	r5, #1
 5732 07c4 81FB0031 		smull	r3, r1, r1, r0
 5733 07c8 C317     		asrs	r3, r0, #31
 5734 07ca 494E     		ldr	r6, .L877+128
 5735 07cc C3EB2151 		rsb	r1, r3, r1, asr #20
 5736 07d0 484B     		ldr	r3, .L877+132
 5737 07d2 06FB1101 		mls	r1, r6, r1, r0
 5738 07d6 1B68     		ldr	r3, [r3]
 5739 07d8 4748     		ldr	r0, .L877+136
 5740 07da 5B1A     		subs	r3, r3, r1
 5741 07dc 474E     		ldr	r6, .L877+140
 5742 07de 0160     		str	r1, [r0]
 5743 07e0 07EE903A 		vmov	s15, r3	@ int
 5744 07e4 4648     		ldr	r0, .L877+144
 5745 07e6 474B     		ldr	r3, .L877+148
 5746 07e8 F8EEE77A 		vcvt.f32.s32	s15, s15
 5747 07ec 4649     		ldr	r1, .L877+152
 5748 07ee DA61     		str	r2, [r3, #28]	@ float
 5749 07f0 1A62     		str	r2, [r3, #32]	@ float
 5750 07f2 C6ED007A 		vstr.32	s15, [r6]
 5751 07f6 C0ED007A 		vstr.32	s15, [r0]
 5752 07fa 5A62     		str	r2, [r3, #36]	@ float
 5753 07fc 9A62     		str	r2, [r3, #40]	@ float
 5754 07fe DA62     		str	r2, [r3, #44]	@ float
 5755 0800 1A63     		str	r2, [r3, #48]	@ float
 5756 0802 0D70     		strb	r5, [r1]
 5757 0804 C3E90144 		strd	r4, r4, [r3, #4]
 5758              	.L736:
 5759 0808 F6EE007A 		vmov.f32	s15, #5.0e-1
 5760 080c 3F4B     		ldr	r3, .L877+156
 5761 080e F4EEE79A 		vcmpe.f32	s19, s15
 5762 0812 F1EE10FA 		vmrs	APSR_nzcv, FPSCR
 5763 0816 40F36B84 		ble	.L857
 5764 081a 1A78     		ldrb	r2, [r3]	@ zero_extendqisi2
 5765 081c 6AB9     		cbnz	r2, .L739
 5766 081e 3649     		ldr	r1, .L877+136
 5767 0820 0122     		movs	r2, #1
 5768 0822 364D     		ldr	r5, .L877+140
 5769 0824 0C68     		ldr	r4, [r1]
 5770 0826 3648     		ldr	r0, .L877+144
 5771 0828 3949     		ldr	r1, .L877+160
 5772 082a 2D68     		ldr	r5, [r5]	@ float
 5773 082c 0C60     		str	r4, [r1]
 5774 082e 0068     		ldr	r0, [r0]	@ float
 5775 0830 384C     		ldr	r4, .L877+164
 5776 0832 3949     		ldr	r1, .L877+168
 5777 0834 2560     		str	r5, [r4]	@ float
 5778 0836 0860     		str	r0, [r1]	@ float
 5779 0838 1A70     		strb	r2, [r3]
 5780              	.L739:
 5781 083a F0EE490A 		vmov.f32	s1, s18
 5782 083e B0EE4B0A 		vmov.f32	s0, s22
 5783 0842 FFF7FEFF 		bl	_Z20SelectLooperDivisionff
 5784 0846 F0EE480A 		vmov.f32	s1, s16
ARM GAS  /var/folders/lg/77ksxqjx0n7gwph6nqpzcmcw0000gn/T//ccn5JkAm.s 			page 101


 5785 084a B0EE6A0A 		vmov.f32	s0, s21
 5786 084e FFF7FEFF 		bl	_Z21SelectLooperPlaySpeedff
 5787 0852 B7EEE87A 		vcvt.f64.f32	d7, s17
 5788 0856 314B     		ldr	r3, .L877+172
 5789 0858 9FED056B 		vldr.64	d6, .L877
 5790 085c 27EE067B 		vmul.f64	d7, d7, d6
 5791 0860 B7EEC77B 		vcvt.f32.f64	s14, d7
 5792 0864 83ED007A 		vstr.32	s14, [r3]
 5793 0868 1EE5     		b	.L721
 5794              	.L878:
 5795 086a 00BFAFF3 		.align	3
 5795      0080
 5796              	.L877:
 5797 0870 295C8FC2 		.word	3264175145
 5798 0874 F528F03F 		.word	1072703733
 5799 0878 00000000 		.word	.LANCHOR94
 5800 087c 00000000 		.word	.LANCHOR57
 5801 0880 00000000 		.word	.LANCHOR36
 5802 0884 00000000 		.word	.LANCHOR62
 5803 0888 00000000 		.word	.LANCHOR38
 5804 088c 0000B442 		.word	1119092736
 5805 0890 00000000 		.word	.LANCHOR95
 5806 0894 00000000 		.word	.LANCHOR119
 5807 0898 00000000 		.word	_ZL3rev
 5808 089c 00000000 		.word	.LANCHOR58
 5809 08a0 00000000 		.word	.LANCHOR64
 5810 08a4 0800803F 		.word	1065353224
 5811 08a8 9A99993E 		.word	1050253722
 5812 08ac 3333333F 		.word	1060320051
 5813 08b0 00000000 		.word	.LANCHOR19
 5814 08b4 00000000 		.word	.LANCHOR54
 5815 08b8 69FF7F3F 		.word	1065353065
 5816 08bc CDCCCC3E 		.word	1053609165
 5817 08c0 9A99193F 		.word	1058642330
 5818 08c4 CDCC4C3D 		.word	1028443341
 5819 08c8 17B7D138 		.word	953267991
 5820 08cc 58FF7F3F 		.word	1065353048
 5821 08d0 CDCC4C3F 		.word	1061997773
 5822 08d4 00000000 		.word	.LANCHOR25
 5823 08d8 00000000 		.word	.LANCHOR22
 5824 08dc 00000000 		.word	.LANCHOR56
 5825 08e0 00000000 		.word	.LANCHOR20
 5826 08e4 60020000 		.word	.LANCHOR78+608
 5827 08e8 00000000 		.word	.LANCHOR77
 5828 08ec EFED345D 		.word	1563749871
 5829 08f0 00F22B00 		.word	2880000
 5830 08f4 00000000 		.word	.LANCHOR73
 5831 08f8 00000000 		.word	.LANCHOR75
 5832 08fc 00000000 		.word	.LANCHOR69
 5833 0900 00000000 		.word	.LANCHOR71
 5834 0904 00000000 		.word	.LANCHOR18
 5835 0908 00000000 		.word	.LANCHOR68
 5836 090c 00000000 		.word	.LANCHOR98
 5837 0910 00000000 		.word	.LANCHOR76
 5838 0914 00000000 		.word	.LANCHOR70
 5839 0918 00000000 		.word	.LANCHOR72
 5840 091c 00000000 		.word	.LANCHOR113
ARM GAS  /var/folders/lg/77ksxqjx0n7gwph6nqpzcmcw0000gn/T//ccn5JkAm.s 			page 102


 5841              	.L725:
 5842 0920 7348     		ldr	r0, .L879+8
 5843 0922 FFF7FEFF 		bl	_ZN5daisy6GateIn4TrigEv
 5844 0926 98B1     		cbz	r0, .L780
 5845 0928 724B     		ldr	r3, .L879+12
 5846 092a 0024     		movs	r4, #0
 5847 092c 4FF07C52 		mov	r2, #1056964608
 5848 0930 4FF07E50 		mov	r0, #1065353216
 5849 0934 1D68     		ldr	r5, [r3]
 5850 0936 0A21     		movs	r1, #10
 5851 0938 1C60     		str	r4, [r3]
 5852 093a 6F4B     		ldr	r3, .L879+16
 5853 093c 6F4C     		ldr	r4, .L879+20
 5854 093e D861     		str	r0, [r3, #28]	@ float
 5855 0940 2560     		str	r5, [r4]
 5856 0942 9862     		str	r0, [r3, #40]	@ float
 5857 0944 1A62     		str	r2, [r3, #32]	@ float
 5858 0946 5A62     		str	r2, [r3, #36]	@ float
 5859 0948 DA62     		str	r2, [r3, #44]	@ float
 5860 094a 1A63     		str	r2, [r3, #48]	@ float
 5861 094c C3E90111 		strd	r1, r1, [r3, #4]
 5862              	.L780:
 5863 0950 6B4E     		ldr	r6, .L879+24
 5864 0952 3368     		ldr	r3, [r6]
 5865 0954 002B     		cmp	r3, #0
 5866 0956 40F02B83 		bne	.L781
 5867 095a 6A4A     		ldr	r2, .L879+28
 5868 095c 6A49     		ldr	r1, .L879+32
 5869 095e 1468     		ldr	r4, [r2]
 5870 0960 6A48     		ldr	r0, .L879+36
 5871 0962 6B4A     		ldr	r2, .L879+40
 5872 0964 01EB8407 		add	r7, r1, r4, lsl #2
 5873 0968 0068     		ldr	r0, [r0]
 5874 096a 02EB840C 		add	ip, r2, r4, lsl #2
 5875 096e 3F68     		ldr	r7, [r7]	@ float
 5876 0970 01EB8001 		add	r1, r1, r0, lsl #2
 5877 0974 674D     		ldr	r5, .L879+44
 5878 0976 DCF800E0 		ldr	lr, [ip]	@ float
 5879 097a 02EB8002 		add	r2, r2, r0, lsl #2
 5880 097e DFF87CC1 		ldr	ip, .L879+20
 5881 0982 0F60     		str	r7, [r1]	@ float
 5882 0984 DCF80010 		ldr	r1, [ip]
 5883 0988 55F82470 		ldr	r7, [r5, r4, lsl #2]
 5884 098c 0029     		cmp	r1, #0
 5885 098e C2F800E0 		str	lr, [r2]	@ float
 5886 0992 45F82070 		str	r7, [r5, r0, lsl #2]
 5887 0996 40DD     		ble	.L782
 5888 0998 C1F3D612 		ubfx	r2, r1, #7, #23
 5889 099c 5E4F     		ldr	r7, .L879+48
 5890 099e CCF80030 		str	r3, [ip]
 5891 09a2 07EE900A 		vmov	s15, r0	@ int
 5892 09a6 A7FB0223 		umull	r2, r3, r7, r2
 5893 09aa 5C4A     		ldr	r2, .L879+52
 5894 09ac 5C4F     		ldr	r7, .L879+56
 5895 09ae F8EEE77A 		vcvt.f32.s32	s15, s15
 5896 09b2 9B08     		lsrs	r3, r3, #2
 5897 09b4 DFF89CC1 		ldr	ip, .L879+108
ARM GAS  /var/folders/lg/77ksxqjx0n7gwph6nqpzcmcw0000gn/T//ccn5JkAm.s 			page 103


 5898 09b8 02FB03F2 		mul	r2, r2, r3
 5899 09bc 3B68     		ldr	r3, [r7]
 5900 09be CCED007A 		vstr.32	s15, [ip]
 5901 09c2 C2EB8102 		rsb	r2, r2, r1, lsl #2
 5902 09c6 45F82020 		str	r2, [r5, r0, lsl #2]
 5903 09ca EBB9     		cbnz	r3, .L783
 5904 09cc 554A     		ldr	r2, .L879+60
 5905 09ce 5649     		ldr	r1, .L879+64
 5906 09d0 1268     		ldr	r2, [r2]
 5907 09d2 51F82410 		ldr	r1, [r1, r4, lsl #2]
 5908 09d6 5548     		ldr	r0, .L879+68
 5909 09d8 511A     		subs	r1, r2, r1
 5910 09da DFF87CC1 		ldr	ip, .L879+112
 5911 09de 50F82400 		ldr	r0, [r0, r4, lsl #2]
 5912 09e2 48BF     		it	mi
 5913 09e4 0331     		addmi	r1, r1, #3
 5914 09e6 121A     		subs	r2, r2, r0
 5915 09e8 5148     		ldr	r0, .L879+72
 5916 09ea 4FEAA101 		asr	r1, r1, #2
 5917 09ee 48BF     		it	mi
 5918 09f0 0332     		addmi	r2, r2, #3
 5919 09f2 CCF80010 		str	r1, [ip]
 5920 09f6 0021     		movs	r1, #0
 5921 09f8 9210     		asrs	r2, r2, #2
 5922 09fa DFF860C1 		ldr	ip, .L879+116
 5923 09fe 0160     		str	r1, [r0]
 5924 0a00 CCF80020 		str	r2, [ip]
 5925 0a04 4B4A     		ldr	r2, .L879+76
 5926 0a06 1160     		str	r1, [r2]
 5927              	.L783:
 5928 0a08 0133     		adds	r3, r3, #1
 5929 0a0a 5A42     		rsbs	r2, r3, #0
 5930 0a0c 03F00303 		and	r3, r3, #3
 5931 0a10 02F00302 		and	r2, r2, #3
 5932 0a14 58BF     		it	pl
 5933 0a16 5342     		rsbpl	r3, r2, #0
 5934 0a18 3B60     		str	r3, [r7]
 5935              	.L782:
 5936 0a1a F6EE007A 		vmov.f32	s15, #5.0e-1
 5937 0a1e F4EEE79A 		vcmpe.f32	s19, s15
 5938 0a22 F1EE10FA 		vmrs	APSR_nzcv, FPSCR
 5939 0a26 40F3B982 		ble	.L861
 5940 0a2a 434A     		ldr	r2, .L879+80
 5941 0a2c 1378     		ldrb	r3, [r2]	@ zero_extendqisi2
 5942 0a2e 002B     		cmp	r3, #0
 5943 0a30 40F0B782 		bne	.L788
 5944 0a34 3B49     		ldr	r1, .L879+60
 5945 0a36 0127     		movs	r7, #1
 5946 0a38 55F82430 		ldr	r3, [r5, r4, lsl #2]
 5947 0a3c 0C68     		ldr	r4, [r1]
 5948 0a3e 3748     		ldr	r0, .L879+52
 5949 0a40 E31A     		subs	r3, r4, r3
 5950 0a42 3E49     		ldr	r1, .L879+84
 5951 0a44 1770     		strb	r7, [r2]
 5952 0a46 0344     		add	r3, r3, r0
 5953 0a48 3D4D     		ldr	r5, .L879+88
 5954 0a4a 81FB0321 		smull	r2, r1, r1, r3
ARM GAS  /var/folders/lg/77ksxqjx0n7gwph6nqpzcmcw0000gn/T//ccn5JkAm.s 			page 104


 5955 0a4e DA17     		asrs	r2, r3, #31
 5956 0a50 2C60     		str	r4, [r5]
 5957 0a52 C2EB2152 		rsb	r2, r2, r1, asr #20
 5958 0a56 3B4C     		ldr	r4, .L879+92
 5959 0a58 3B49     		ldr	r1, .L879+96
 5960 0a5a 00FB1232 		mls	r2, r0, r2, r3
 5961 0a5e 2260     		str	r2, [r4]
 5962 0a60 0A60     		str	r2, [r1]
 5963 0a62 9EE2     		b	.L788
 5964              	.L724:
 5965 0a64 B7EE000A 		vmov.f32	s0, #1.0e+0
 5966 0a68 F5EE007A 		vmov.f32	s15, #2.5e-1
 5967 0a6c 30EE6A0A 		vsub.f32	s0, s0, s21
 5968 0a70 B4EEE70A 		vcmpe.f32	s0, s15
 5969 0a74 F1EE10FA 		vmrs	APSR_nzcv, FPSCR
 5970 0a78 40F12583 		bpl	.L858
 5971 0a7c 334E     		ldr	r6, .L879+100
 5972 0a7e 44F6E413 		movw	r3, #18916
 5973 0a82 0222     		movs	r2, #2
 5974 0a84 F250     		str	r2, [r6, r3]
 5975              	.L742:
 5976 0a86 324A     		ldr	r2, .L879+104
 5977 0a88 F2EE027A 		vmov.f32	s15, #9.0e+0
 5978 0a8c B2EE026B 		vmov.f64	d6, #9.0e+0
 5979 0a90 44F67413 		movw	r3, #18804
 5980 0a94 92ED007A 		vldr.32	s14, [r2]
 5981 0a98 0022     		movs	r2, #0
 5982 0a9a A8EEA77A 		vfma.f32	s14, s17, s15
 5983 0a9e F250     		str	r2, [r6, r3]
 5984 0aa0 9FED115B 		vldr.64	d5, .L879
 5985 0aa4 B7EEC77A 		vcvt.f64.f32	d7, s14
 5986 0aa8 27EE057B 		vmul.f64	d7, d7, d5
 5987 0aac 27EE067B 		vmul.f64	d7, d7, d6
 5988 0ab0 FDEEC77B 		vcvt.s32.f64	s15, d7
 5989 0ab4 17EE903A 		vmov	r3, s15	@ int
 5990 0ab8 082B     		cmp	r3, #8
 5991 0aba 00F27D85 		bhi	.L816
 5992 0abe 01A2     		adr	r2, .L750
 5993 0ac0 52F823F0 		ldr	pc, [r2, r3, lsl #2]
 5994              		.p2align 2
 5995              	.L750:
 5996 0ac4 91110000 		.word	.L758+1
 5997 0ac8 77110000 		.word	.L757+1
 5998 0acc 61110000 		.word	.L756+1
 5999 0ad0 4B110000 		.word	.L755+1
 6000 0ad4 B7110000 		.word	.L754+1
 6001 0ad8 A1110000 		.word	.L753+1
 6002 0adc CD110000 		.word	.L752+1
 6003 0ae0 33110000 		.word	.L751+1
 6004 0ae4 D7000000 		.word	.L749+1
 6005              		.p2align 1
 6006              	.L880:
 6007              		.align	3
 6008              	.L879:
 6009 0ae8 9A999999 		.word	2576980378
 6010 0aec 9999B93F 		.word	1069128089
 6011 0af0 60020000 		.word	.LANCHOR78+608
ARM GAS  /var/folders/lg/77ksxqjx0n7gwph6nqpzcmcw0000gn/T//ccn5JkAm.s 			page 105


 6012 0af4 00000000 		.word	.LANCHOR150
 6013 0af8 00000000 		.word	.LANCHOR18
 6014 0afc 00000000 		.word	.LANCHOR149
 6015 0b00 00000000 		.word	.LANCHOR151
 6016 0b04 00000000 		.word	.LANCHOR115
 6017 0b08 00000000 		.word	.LANCHOR92
 6018 0b0c 00000000 		.word	.LANCHOR116
 6019 0b10 00000000 		.word	.LANCHOR93
 6020 0b14 00000000 		.word	.LANCHOR89
 6021 0b18 779A2E00 		.word	3054199
 6022 0b1c 00F22B00 		.word	2880000
 6023 0b20 00000000 		.word	.LANCHOR152
 6024 0b24 00000000 		.word	.LANCHOR153
 6025 0b28 00000000 		.word	.LANCHOR87
 6026 0b2c 00000000 		.word	.LANCHOR88
 6027 0b30 00000000 		.word	.LANCHOR156
 6028 0b34 00000000 		.word	.LANCHOR157
 6029 0b38 00000000 		.word	.LANCHOR158
 6030 0b3c EFED345D 		.word	1563749871
 6031 0b40 00000000 		.word	.LANCHOR159
 6032 0b44 00000000 		.word	.LANCHOR160
 6033 0b48 00000000 		.word	.LANCHOR161
 6034 0b4c 00000000 		.word	_ZL15spectra_oscbank
 6035 0b50 00000000 		.word	.LANCHOR127
 6036 0b54 00000000 		.word	.LANCHOR117
 6037 0b58 00000000 		.word	.LANCHOR154
 6038 0b5c 00000000 		.word	.LANCHOR155
 6039              	.L729:
 6040 0b60 95F85532 		ldrb	r3, [r5, #597]	@ zero_extendqisi2
 6041 0b64 7F2B     		cmp	r3, #127
 6042 0b66 18D1     		bne	.L731
 6043 0b68 DF48     		ldr	r0, .L881+16
 6044 0b6a E049     		ldr	r1, .L881+20
 6045 0b6c 0268     		ldr	r2, [r0]
 6046 0b6e E04C     		ldr	r4, .L881+24
 6047 0b70 0132     		adds	r2, r2, #1
 6048 0b72 81FB0231 		smull	r3, r1, r1, r2
 6049 0b76 D317     		asrs	r3, r2, #31
 6050 0b78 C3EBA103 		rsb	r3, r3, r1, asr #2
 6051 0b7c 03EB8303 		add	r3, r3, r3, lsl #2
 6052 0b80 A2EB4303 		sub	r3, r2, r3, lsl #1
 6053 0b84 03FB03F2 		mul	r2, r3, r3
 6054 0b88 0360     		str	r3, [r0]
 6055 0b8a 03FB02F3 		mul	r3, r3, r2
 6056 0b8e 07EE903A 		vmov	s15, r3	@ int
 6057 0b92 F8EEE77A 		vcvt.f32.s32	s15, s15
 6058 0b96 C4ED007A 		vstr.32	s15, [r4]
 6059              	.L731:
 6060 0b9a B0EE6A0A 		vmov.f32	s0, s21
 6061 0b9e D54E     		ldr	r6, .L881+28
 6062 0ba0 FFF7FEFF 		bl	_Z21SelectResonatorOctavef
 6063 0ba4 F2EE087A 		vmov.f32	s15, #1.2e+1
 6064 0ba8 9FEDD37A 		vldr.32	s14, .L881+32
 6065 0bac F5EE006A 		vmov.f32	s13, #2.5e-1
 6066 0bb0 D24B     		ldr	r3, .L881+36
 6067 0bb2 F2EE04AA 		vmov.f32	s21, #1.0e+1
 6068 0bb6 E9EE877A 		vfma.f32	s15, s19, s14
ARM GAS  /var/folders/lg/77ksxqjx0n7gwph6nqpzcmcw0000gn/T//ccn5JkAm.s 			page 106


 6069 0bba DFEDD1BA 		vldr.32	s23, .L881+40
 6070 0bbe 38EE088A 		vadd.f32	s16, s16, s16
 6071 0bc2 D04A     		ldr	r2, .L881+44
 6072 0bc4 B0EE6A0A 		vmov.f32	s0, s21
 6073 0bc8 CF4D     		ldr	r5, .L881+48
 6074 0bca F6EE009A 		vmov.f32	s19, #5.0e-1
 6075 0bce CF4C     		ldr	r4, .L881+52
 6076 0bd0 82ED008A 		vstr.32	s16, [r2]
 6077 0bd4 A8EEAB0A 		vfma.f32	s0, s17, s23
 6078 0bd8 B0EE677A 		vmov.f32	s14, s15
 6079 0bdc D3ED007A 		vldr.32	s15, [r3]
 6080 0be0 CB4B     		ldr	r3, .L881+56
 6081 0be2 2AEE27AA 		vmul.f32	s20, s20, s15
 6082 0be6 FDEEC77A 		vcvt.s32.f32	s15, s14
 6083 0bea 2AEE26AA 		vmul.f32	s20, s20, s13
 6084 0bee F8EEE77A 		vcvt.f32.s32	s15, s15
 6085 0bf2 3AEE0A7A 		vadd.f32	s14, s20, s20
 6086 0bf6 85ED00AA 		vstr.32	s20, [r5]
 6087 0bfa C3ED007A 		vstr.32	s15, [r3]
 6088 0bfe 2AEE29AA 		vmul.f32	s20, s20, s19
 6089 0c02 86ED017A 		vstr.32	s14, [r6, #4]
 6090 0c06 FFF7FEFF 		bl	log10f
 6091 0c0a DFEDC27A 		vldr.32	s15, .L881+60
 6092 0c0e 9FEDC27A 		vldr.32	s14, .L881+64
 6093 0c12 30EE670A 		vsub.f32	s0, s0, s15
 6094 0c16 DFEDC17A 		vldr.32	s15, .L881+68
 6095 0c1a C14B     		ldr	r3, .L881+72
 6096 0c1c C14A     		ldr	r2, .L881+76
 6097 0c1e E0EE077A 		vfma.f32	s15, s0, s14
 6098 0c22 C148     		ldr	r0, .L881+80
 6099 0c24 C2ED008A 		vstr.32	s17, [r2]
 6100 0c28 80ED03AA 		vstr.32	s20, [r0, #12]
 6101 0c2c C6ED007A 		vstr.32	s15, [r6]
 6102 0c30 C3ED007A 		vstr.32	s15, [r3]
 6103 0c34 FFF7FEFF 		bl	_ZN7daisysp4Tone21CalculateCoefficientsEv
 6104 0c38 BC48     		ldr	r0, .L881+84
 6105 0c3a 80ED03AA 		vstr.32	s20, [r0, #12]
 6106 0c3e FFF7FEFF 		bl	_ZN7daisysp4Tone21CalculateCoefficientsEv
 6107 0c42 95ED000A 		vldr.32	s0, [r5]
 6108 0c46 BA48     		ldr	r0, .L881+88
 6109 0c48 FFF7FEFF 		bl	_ZN7daisysp3Svf7SetFreqEf
