ARM GAS  /var/folders/lg/77ksxqjx0n7gwph6nqpzcmcw0000gn/T//ccn5JkAm.s 			page 1


   1              		.cpu cortex-m7
   2              		.eabi_attribute 28, 1
   3              		.eabi_attribute 20, 1
   4              		.eabi_attribute 21, 1
   5              		.eabi_attribute 23, 3
   6              		.eabi_attribute 24, 1
   7              		.eabi_attribute 25, 1
   8              		.eabi_attribute 26, 1
   9              		.eabi_attribute 30, 2
  10              		.eabi_attribute 34, 1
  11              		.eabi_attribute 18, 4
  12              		.file	"MultiEffect.cpp"
  13              		.text
  14              		.section	.text._ZN7daisysp3SvfD2Ev,"axG",%progbits,_ZN7daisysp3SvfD5Ev,comdat
  15              		.align	1
  16              		.p2align 2,,3
  17              		.weak	_ZN7daisysp3SvfD2Ev
  18              		.arch armv7e-m
  19              		.syntax unified
  20              		.thumb
  21              		.thumb_func
  22              		.fpu fpv5-d16
  24              	_ZN7daisysp3SvfD2Ev:
  25              		@ args = 0, pretend = 0, frame = 0
  26              		@ frame_needed = 0, uses_anonymous_args = 0
  27              		@ link register save eliminated.
  28 0000 7047     		bx	lr
  30              		.weak	_ZN7daisysp3SvfD1Ev
  31              		.thumb_set _ZN7daisysp3SvfD1Ev,_ZN7daisysp3SvfD2Ev
  32 0002 00BF     		.section	.text._ZN7daisysp8ReverbScD2Ev,"axG",%progbits,_ZN7daisysp8ReverbScD5Ev,comdat
  33              		.align	1
  34              		.p2align 2,,3
  35              		.weak	_ZN7daisysp8ReverbScD2Ev
  36              		.syntax unified
  37              		.thumb
  38              		.thumb_func
  39              		.fpu fpv5-d16
  41              	_ZN7daisysp8ReverbScD2Ev:
  42              		@ args = 0, pretend = 0, frame = 0
  43              		@ frame_needed = 0, uses_anonymous_args = 0
  44              		@ link register save eliminated.
  45 0000 7047     		bx	lr
  47              		.weak	_ZN7daisysp8ReverbScD1Ev
  48              		.thumb_set _ZN7daisysp8ReverbScD1Ev,_ZN7daisysp8ReverbScD2Ev
  49 0002 00BF     		.section	.text._ZN7daisysp6BiquadD2Ev,"axG",%progbits,_ZN7daisysp6BiquadD5Ev,comdat
  50              		.align	1
  51              		.p2align 2,,3
  52              		.weak	_ZN7daisysp6BiquadD2Ev
  53              		.syntax unified
  54              		.thumb
  55              		.thumb_func
  56              		.fpu fpv5-d16
  58              	_ZN7daisysp6BiquadD2Ev:
  59              		@ args = 0, pretend = 0, frame = 0
  60              		@ frame_needed = 0, uses_anonymous_args = 0
  61              		@ link register save eliminated.
  62 0000 7047     		bx	lr
ARM GAS  /var/folders/lg/77ksxqjx0n7gwph6nqpzcmcw0000gn/T//ccn5JkAm.s 			page 2


  64              		.weak	_ZN7daisysp6BiquadD1Ev
  65              		.thumb_set _ZN7daisysp6BiquadD1Ev,_ZN7daisysp6BiquadD2Ev
  66 0002 00BF     		.section	.text._ZN7daisysp4ToneD2Ev,"axG",%progbits,_ZN7daisysp4ToneD5Ev,comdat
  67              		.align	1
  68              		.p2align 2,,3
  69              		.weak	_ZN7daisysp4ToneD2Ev
  70              		.syntax unified
  71              		.thumb
  72              		.thumb_func
  73              		.fpu fpv5-d16
  75              	_ZN7daisysp4ToneD2Ev:
  76              		@ args = 0, pretend = 0, frame = 0
  77              		@ frame_needed = 0, uses_anonymous_args = 0
  78              		@ link register save eliminated.
  79 0000 7047     		bx	lr
  81              		.weak	_ZN7daisysp4ToneD1Ev
  82              		.thumb_set _ZN7daisysp4ToneD1Ev,_ZN7daisysp4ToneD2Ev
  83 0002 00BF     		.section	.text._ZN7daisysp7DcBlockD2Ev,"axG",%progbits,_ZN7daisysp7DcBlockD5Ev,comdat
  84              		.align	1
  85              		.p2align 2,,3
  86              		.weak	_ZN7daisysp7DcBlockD2Ev
  87              		.syntax unified
  88              		.thumb
  89              		.thumb_func
  90              		.fpu fpv5-d16
  92              	_ZN7daisysp7DcBlockD2Ev:
  93              		@ args = 0, pretend = 0, frame = 0
  94              		@ frame_needed = 0, uses_anonymous_args = 0
  95              		@ link register save eliminated.
  96 0000 7047     		bx	lr
  98              		.weak	_ZN7daisysp7DcBlockD1Ev
  99              		.thumb_set _ZN7daisysp7DcBlockD1Ev,_ZN7daisysp7DcBlockD2Ev
 100 0002 00BF     		.section	.text._ZN5daisy9ParameterD2Ev,"axG",%progbits,_ZN5daisy9ParameterD5Ev,comdat
 101              		.align	1
 102              		.p2align 2,,3
 103              		.weak	_ZN5daisy9ParameterD2Ev
 104              		.syntax unified
 105              		.thumb
 106              		.thumb_func
 107              		.fpu fpv5-d16
 109              	_ZN5daisy9ParameterD2Ev:
 110              		@ args = 0, pretend = 0, frame = 0
 111              		@ frame_needed = 0, uses_anonymous_args = 0
 112              		@ link register save eliminated.
 113 0000 7047     		bx	lr
 115              		.weak	_ZN5daisy9ParameterD1Ev
 116              		.thumb_set _ZN5daisy9ParameterD1Ev,_ZN5daisy9ParameterD2Ev
 117 0002 00BF     		.section	.text._ZN5daisy11DaisyVersioD2Ev,"axG",%progbits,_ZN5daisy11DaisyVersioD5Ev,comdat
 118              		.align	1
 119              		.p2align 2,,3
 120              		.weak	_ZN5daisy11DaisyVersioD2Ev
 121              		.syntax unified
 122              		.thumb
 123              		.thumb_func
 124              		.fpu fpv5-d16
 126              	_ZN5daisy11DaisyVersioD2Ev:
 127              		@ args = 0, pretend = 0, frame = 0
ARM GAS  /var/folders/lg/77ksxqjx0n7gwph6nqpzcmcw0000gn/T//ccn5JkAm.s 			page 3


 128              		@ frame_needed = 0, uses_anonymous_args = 0
 129              		@ link register save eliminated.
 130 0000 7047     		bx	lr
 132              		.weak	_ZN5daisy11DaisyVersioD1Ev
 133              		.thumb_set _ZN5daisy11DaisyVersioD1Ev,_ZN5daisy11DaisyVersioD2Ev
 134 0002 00BF     		.section	.text._ZN6stmlib3SvfD2Ev,"axG",%progbits,_ZN6stmlib3SvfD5Ev,comdat
 135              		.align	1
 136              		.p2align 2,,3
 137              		.weak	_ZN6stmlib3SvfD2Ev
 138              		.syntax unified
 139              		.thumb
 140              		.thumb_func
 141              		.fpu fpv5-d16
 143              	_ZN6stmlib3SvfD2Ev:
 144              		@ args = 0, pretend = 0, frame = 0
 145              		@ frame_needed = 0, uses_anonymous_args = 0
 146              		@ link register save eliminated.
 147 0000 7047     		bx	lr
 149              		.weak	_ZN6stmlib3SvfD1Ev
 150              		.thumb_set _ZN6stmlib3SvfD1Ev,_ZN6stmlib3SvfD2Ev
 151 0002 00BF     		.section	.text._ZN11LedsControlD2Ev,"axG",%progbits,_ZN11LedsControlD5Ev,comdat
 152              		.align	1
 153              		.p2align 2,,3
 154              		.weak	_ZN11LedsControlD2Ev
 155              		.syntax unified
 156              		.thumb
 157              		.thumb_func
 158              		.fpu fpv5-d16
 160              	_ZN11LedsControlD2Ev:
 161              		@ args = 0, pretend = 0, frame = 0
 162              		@ frame_needed = 0, uses_anonymous_args = 0
 163              		@ link register save eliminated.
 164 0000 7047     		bx	lr
 166              		.weak	_ZN11LedsControlD1Ev
 167              		.thumb_set _ZN11LedsControlD1Ev,_ZN11LedsControlD2Ev
 168 0002 00BF     		.section	.text._ZN7OscBankD2Ev,"axG",%progbits,_ZN7OscBankD5Ev,comdat
 169              		.align	1
 170              		.p2align 2,,3
 171              		.weak	_ZN7OscBankD2Ev
 172              		.syntax unified
 173              		.thumb
 174              		.thumb_func
 175              		.fpu fpv5-d16
 177              	_ZN7OscBankD2Ev:
 178              		@ args = 0, pretend = 0, frame = 0
 179              		@ frame_needed = 0, uses_anonymous_args = 0
 180              		@ link register save eliminated.
 181 0000 7047     		bx	lr
 183              		.weak	_ZN7OscBankD1Ev
 184              		.thumb_set _ZN7OscBankD1Ev,_ZN7OscBankD2Ev
 185 0002 00BF     		.section	.text._ZN8AveragerD2Ev,"axG",%progbits,_ZN8AveragerD5Ev,comdat
 186              		.align	1
 187              		.p2align 2,,3
 188              		.weak	_ZN8AveragerD2Ev
 189              		.syntax unified
 190              		.thumb
 191              		.thumb_func
ARM GAS  /var/folders/lg/77ksxqjx0n7gwph6nqpzcmcw0000gn/T//ccn5JkAm.s 			page 4


 192              		.fpu fpv5-d16
 194              	_ZN8AveragerD2Ev:
 195              		@ args = 0, pretend = 0, frame = 0
 196              		@ frame_needed = 0, uses_anonymous_args = 0
 197              		@ link register save eliminated.
 198 0000 7047     		bx	lr
 200              		.weak	_ZN8AveragerD1Ev
 201              		.thumb_set _ZN8AveragerD1Ev,_ZN8AveragerD2Ev
 202 0002 00BF     		.section	.text.__tcf_0,"ax",%progbits
 203              		.align	1
 204              		.p2align 2,,3
 205              		.syntax unified
 206              		.thumb
 207              		.thumb_func
 208              		.fpu fpv5-d16
 210              	__tcf_0:
 211              		@ args = 0, pretend = 0, frame = 0
 212              		@ frame_needed = 0, uses_anonymous_args = 0
 213              		@ link register save eliminated.
 214 0000 7047     		bx	lr
 216 0002 00BF     		.section	.text._ZN7daisysp9DelayLineIfLj120000EED2Ev,"axG",%progbits,_ZN7daisysp9DelayLineIfLj1200
 217              		.align	1
 218              		.p2align 2,,3
 219              		.weak	_ZN7daisysp9DelayLineIfLj120000EED2Ev
 220              		.syntax unified
 221              		.thumb
 222              		.thumb_func
 223              		.fpu fpv5-d16
 225              	_ZN7daisysp9DelayLineIfLj120000EED2Ev:
 226              		@ args = 0, pretend = 0, frame = 0
 227              		@ frame_needed = 0, uses_anonymous_args = 0
 228              		@ link register save eliminated.
 229 0000 7047     		bx	lr
 231              		.weak	_ZN7daisysp9DelayLineIfLj120000EED1Ev
 232              		.thumb_set _ZN7daisysp9DelayLineIfLj120000EED1Ev,_ZN7daisysp9DelayLineIfLj120000EED2Ev
 233 0002 00BF     		.section	.text.startup._ZNSt7__cxx1112basic_stringIcSt11char_traitsIcESaIcEEC2EPKcRKS3_.isra.0.con
 234              		.align	1
 235              		.p2align 2,,3
 236              		.syntax unified
 237              		.thumb
 238              		.thumb_func
 239              		.fpu fpv5-d16
 241              	_ZNSt7__cxx1112basic_stringIcSt11char_traitsIcESaIcEEC2EPKcRKS3_.isra.0.constprop.0:
 242              		@ args = 0, pretend = 0, frame = 0
 243              		@ frame_needed = 0, uses_anonymous_args = 0
 244              		@ link register save eliminated.
 245 0000 0022     		movs	r2, #0
 246 0002 00F10801 		add	r1, r0, #8
 247 0006 4260     		str	r2, [r0, #4]
 248 0008 0272     		strb	r2, [r0, #8]
 249 000a 0160     		str	r1, [r0]
 250 000c 7047     		bx	lr
 252 000e 00BF     		.section	.text._Z5clampfff,"ax",%progbits
 253              		.align	1
 254              		.p2align 2,,3
 255              		.global	_Z5clampfff
 256              		.syntax unified
ARM GAS  /var/folders/lg/77ksxqjx0n7gwph6nqpzcmcw0000gn/T//ccn5JkAm.s 			page 5


 257              		.thumb
 258              		.thumb_func
 259              		.fpu fpv5-d16
 261              	_Z5clampfff:
 262              		@ args = 0, pretend = 0, frame = 0
 263              		@ frame_needed = 0, uses_anonymous_args = 0
 264              		@ link register save eliminated.
 265 0000 B4EEE00A 		vcmpe.f32	s0, s1
 266 0004 F1EE10FA 		vmrs	APSR_nzcv, FPSCR
 267 0008 06D4     		bmi	.L19
 268 000a B4EEC10A 		vcmpe.f32	s0, s2
 269 000e F1EE10FA 		vmrs	APSR_nzcv, FPSCR
 270 0012 31FE000A 		vselgt.f32	s0, s2, s0
 271 0016 7047     		bx	lr
 272              	.L19:
 273 0018 B0EE600A 		vmov.f32	s0, s1
 274 001c 7047     		bx	lr
 276 001e 00BF     		.section	.text._Z3mapfffff,"ax",%progbits
 277              		.align	1
 278              		.p2align 2,,3
 279              		.global	_Z3mapfffff
 280              		.syntax unified
 281              		.thumb
 282              		.thumb_func
 283              		.fpu fpv5-d16
 285              	_Z3mapfffff:
 286              		@ args = 0, pretend = 0, frame = 0
 287              		@ frame_needed = 0, uses_anonymous_args = 0
 288              		@ link register save eliminated.
 289 0000 30EE600A 		vsub.f32	s0, s0, s1
 290 0004 32EE612A 		vsub.f32	s4, s4, s3
 291 0008 71EE600A 		vsub.f32	s1, s2, s1
 292 000c 22EE002A 		vmul.f32	s4, s4, s0
 293 0010 82EE200A 		vdiv.f32	s0, s4, s1
 294 0014 30EE210A 		vadd.f32	s0, s0, s3
 295 0018 7047     		bx	lr
 297 001a 00BF     		.section	.text._Z15leftRotatebyOnePfi,"ax",%progbits
 298              		.align	1
 299              		.p2align 2,,3
 300              		.global	_Z15leftRotatebyOnePfi
 301              		.syntax unified
 302              		.thumb
 303              		.thumb_func
 304              		.fpu fpv5-d16
 306              	_Z15leftRotatebyOnePfi:
 307              		@ args = 0, pretend = 0, frame = 0
 308              		@ frame_needed = 0, uses_anonymous_args = 0
 309              		@ link register save eliminated.
 310 0000 0129     		cmp	r1, #1
 311 0002 30B4     		push	{r4, r5}
 312 0004 0568     		ldr	r5, [r0]	@ float
 313 0006 08DD     		ble	.L24
 314 0008 00EB8104 		add	r4, r0, r1, lsl #2
 315 000c 0346     		mov	r3, r0
 316 000e 043C     		subs	r4, r4, #4
 317              	.L25:
 318 0010 5A68     		ldr	r2, [r3, #4]	@ float
ARM GAS  /var/folders/lg/77ksxqjx0n7gwph6nqpzcmcw0000gn/T//ccn5JkAm.s 			page 6


 319 0012 43F8042B 		str	r2, [r3], #4	@ float
 320 0016 A342     		cmp	r3, r4
 321 0018 FAD1     		bne	.L25
 322              	.L24:
 323 001a 00EB8100 		add	r0, r0, r1, lsl #2
 324 001e 40F8045C 		str	r5, [r0, #-4]	@ float
 325 0022 30BC     		pop	{r4, r5}
 326 0024 7047     		bx	lr
 328 0026 00BF     		.section	.text._Z16rightRotatebyOnePfi,"ax",%progbits
 329              		.align	1
 330              		.p2align 2,,3
 331              		.global	_Z16rightRotatebyOnePfi
 332              		.syntax unified
 333              		.thumb
 334              		.thumb_func
 335              		.fpu fpv5-d16
 337              	_Z16rightRotatebyOnePfi:
 338              		@ args = 0, pretend = 0, frame = 0
 339              		@ frame_needed = 0, uses_anonymous_args = 0
 340              		@ link register save eliminated.
 341 0000 6FF04043 		mvn	r3, #-1073741824
 342 0004 0129     		cmp	r1, #1
 343 0006 0B44     		add	r3, r3, r1
 344 0008 00EB8303 		add	r3, r0, r3, lsl #2
 345 000c 10B4     		push	{r4}
 346 000e 1C68     		ldr	r4, [r3]	@ float
 347 0010 04DD     		ble	.L29
 348              	.L30:
 349 0012 53F8042D 		ldr	r2, [r3, #-4]!	@ float
 350 0016 9842     		cmp	r0, r3
 351 0018 5A60     		str	r2, [r3, #4]	@ float
 352 001a FAD1     		bne	.L30
 353              	.L29:
 354 001c 0460     		str	r4, [r0]	@ float
 355 001e 5DF8044B 		ldr	r4, [sp], #4
 356 0022 7047     		bx	lr
 358              		.section	.text._Z10leftRotatePffi,"ax",%progbits
 359              		.align	1
 360              		.p2align 2,,3
 361              		.global	_Z10leftRotatePffi
 362              		.syntax unified
 363              		.thumb
 364              		.thumb_func
 365              		.fpu fpv5-d16
 367              	_Z10leftRotatePffi:
 368              		@ args = 0, pretend = 0, frame = 0
 369              		@ frame_needed = 0, uses_anonymous_args = 0
 370              		@ link register save eliminated.
 371 0000 07EE901A 		vmov	s15, r1	@ int
 372 0004 F8EEE77A 		vcvt.f32.s32	s15, s15
 373 0008 27EE800A 		vmul.f32	s0, s15, s0
 374 000c B5EEC00A 		vcmpe.f32	s0, #0
 375 0010 F1EE10FA 		vmrs	APSR_nzcv, FPSCR
 376 0014 1DDD     		ble	.L42
 377 0016 F0B4     		push	{r4, r5, r6, r7}
 378 0018 6FF04044 		mvn	r4, #-1073741824
 379 001c 0025     		movs	r5, #0
ARM GAS  /var/folders/lg/77ksxqjx0n7gwph6nqpzcmcw0000gn/T//ccn5JkAm.s 			page 7


 380 001e 0C44     		add	r4, r4, r1
 381 0020 00EB8407 		add	r7, r0, r4, lsl #2
 382 0024 3C46     		mov	r4, r7
 383              	.L36:
 384 0026 0129     		cmp	r1, #1
 385 0028 0668     		ldr	r6, [r0]	@ float
 386 002a 05DD     		ble	.L38
 387 002c 0346     		mov	r3, r0
 388              	.L35:
 389 002e 5A68     		ldr	r2, [r3, #4]	@ float
 390 0030 43F8042B 		str	r2, [r3], #4	@ float
 391 0034 9C42     		cmp	r4, r3
 392 0036 FAD1     		bne	.L35
 393              	.L38:
 394 0038 0135     		adds	r5, r5, #1
 395 003a 3E60     		str	r6, [r7]	@ float
 396 003c 07EE905A 		vmov	s15, r5	@ int
 397 0040 F8EEE77A 		vcvt.f32.s32	s15, s15
 398 0044 F4EEC07A 		vcmpe.f32	s15, s0
 399 0048 F1EE10FA 		vmrs	APSR_nzcv, FPSCR
 400 004c EBD4     		bmi	.L36
 401 004e F0BC     		pop	{r4, r5, r6, r7}
 402 0050 7047     		bx	lr
 403              	.L42:
 404 0052 7047     		bx	lr
 406              		.section	.text._Z11rightRotatePffi,"ax",%progbits
 407              		.align	1
 408              		.p2align 2,,3
 409              		.global	_Z11rightRotatePffi
 410              		.syntax unified
 411              		.thumb
 412              		.thumb_func
 413              		.fpu fpv5-d16
 415              	_Z11rightRotatePffi:
 416              		@ args = 0, pretend = 0, frame = 0
 417              		@ frame_needed = 0, uses_anonymous_args = 0
 418              		@ link register save eliminated.
 419 0000 07EE901A 		vmov	s15, r1	@ int
 420 0004 F8EEE77A 		vcvt.f32.s32	s15, s15
 421 0008 27EE800A 		vmul.f32	s0, s15, s0
 422 000c B5EEC00A 		vcmpe.f32	s0, #0
 423 0010 F1EE10FA 		vmrs	APSR_nzcv, FPSCR
 424 0014 1CDD     		ble	.L54
 425 0016 70B4     		push	{r4, r5, r6}
 426 0018 6FF04045 		mvn	r5, #-1073741824
 427 001c 0024     		movs	r4, #0
 428 001e 0D44     		add	r5, r5, r1
 429 0020 00EB8505 		add	r5, r0, r5, lsl #2
 430              	.L48:
 431 0024 0129     		cmp	r1, #1
 432 0026 2E68     		ldr	r6, [r5]	@ float
 433 0028 05DD     		ble	.L50
 434 002a 2B46     		mov	r3, r5
 435              	.L51:
 436 002c 53F8042D 		ldr	r2, [r3, #-4]!	@ float
 437 0030 9842     		cmp	r0, r3
 438 0032 5A60     		str	r2, [r3, #4]	@ float
ARM GAS  /var/folders/lg/77ksxqjx0n7gwph6nqpzcmcw0000gn/T//ccn5JkAm.s 			page 8


 439 0034 FAD1     		bne	.L51
 440              	.L50:
 441 0036 0134     		adds	r4, r4, #1
 442 0038 0660     		str	r6, [r0]	@ float
 443 003a 07EE904A 		vmov	s15, r4	@ int
 444 003e F8EEE77A 		vcvt.f32.s32	s15, s15
 445 0042 F4EEC07A 		vcmpe.f32	s15, s0
 446 0046 F1EE10FA 		vmrs	APSR_nzcv, FPSCR
 447 004a EBD4     		bmi	.L48
 448 004c 70BC     		pop	{r4, r5, r6}
 449 004e 7047     		bx	lr
 450              	.L54:
 451 0050 7047     		bx	lr
 453 0052 00BF     		.section	.text._Z11findClosestPiPbiii,"ax",%progbits
 454              		.align	1
 455              		.p2align 2,,3
 456              		.global	_Z11findClosestPiPbiii
 457              		.syntax unified
 458              		.thumb
 459              		.thumb_func
 460              		.fpu fpv5-d16
 462              	_Z11findClosestPiPbiii:
 463              		@ args = 4, pretend = 0, frame = 0
 464              		@ frame_needed = 0, uses_anonymous_args = 0
 465 0000 002A     		cmp	r2, #0
 466 0002 2DE9F04F 		push	{r4, r5, r6, r7, r8, r9, r10, fp, lr}
 467 0006 40DD     		ble	.L65
 468 0008 8046     		mov	r8, r0
 469 000a 0998     		ldr	r0, [sp, #36]
 470 000c 551E     		subs	r5, r2, #1
 471 000e 099C     		ldr	r4, [sp, #36]
 472 0010 02EB4000 		add	r0, r2, r0, lsl #1
 473 0014 A8F10409 		sub	r9, r8, #4
 474 0018 2544     		add	r5, r5, r4
 475 001a 08EB8208 		add	r8, r8, r2, lsl #2
 476 001e 0138     		subs	r0, r0, #1
 477 0020 4FF0000B 		mov	fp, #0
 478              	.L63:
 479 0024 471B     		subs	r7, r0, r5
 480 0026 1B4E     		ldr	r6, .L76
 481 0028 EC17     		asrs	r4, r5, #31
 482 002a B446     		mov	ip, r6
 483 002c 86FB076E 		smull	r6, lr, r6, r7
 484 0030 FE17     		asrs	r6, r7, #31
 485 0032 8CFB05AC 		smull	r10, ip, ip, r5
 486 0036 05F1FF3A 		add	r10, r5, #-1
 487 003a C6EB6E06 		rsb	r6, r6, lr, asr #1
 488 003e C4EB6C0C 		rsb	ip, r4, ip, asr #1
 489 0042 59F8044F 		ldr	r4, [r9, #4]!
 490 0046 06EB4606 		add	r6, r6, r6, lsl #1
 491 004a 0CEB4C0C 		add	ip, ip, ip, lsl #1
 492 004e A7EB8606 		sub	r6, r7, r6, lsl #2
 493 0052 A5EB8C0C 		sub	ip, r5, ip, lsl #2
 494 0056 8E5D     		ldrb	r6, [r1, r6]	@ zero_extendqisi2
 495 0058 16B1     		cbz	r6, .L59
 496 005a 9C42     		cmp	r4, r3
 497 005c B8BF     		it	lt
ARM GAS  /var/folders/lg/77ksxqjx0n7gwph6nqpzcmcw0000gn/T//ccn5JkAm.s 			page 9


 498 005e A346     		movlt	fp, r4
 499              	.L59:
 500 0060 11F80C60 		ldrb	r6, [r1, ip]	@ zero_extendqisi2
 501 0064 58F8044D 		ldr	r4, [r8, #-4]!
 502 0068 16B1     		cbz	r6, .L61
 503 006a 9C42     		cmp	r4, r3
 504 006c C8BF     		it	gt
 505 006e 2246     		movgt	r2, r4
 506              	.L61:
 507 0070 099C     		ldr	r4, [sp, #36]
 508 0072 AC42     		cmp	r4, r5
 509 0074 5546     		mov	r5, r10
 510 0076 D5D1     		bne	.L63
 511 0078 A3EB0B00 		sub	r0, r3, fp
 512              	.L58:
 513 007c D31A     		subs	r3, r2, r3
 514 007e 8342     		cmp	r3, r0
 515 0080 D4BF     		ite	le
 516 0082 1046     		movle	r0, r2
 517 0084 5846     		movgt	r0, fp
 518 0086 BDE8F08F 		pop	{r4, r5, r6, r7, r8, r9, r10, fp, pc}
 519              	.L65:
 520 008a 1846     		mov	r0, r3
 521 008c 4FF0000B 		mov	fp, #0
 522 0090 F4E7     		b	.L58
 523              	.L77:
 524 0092 00BF     		.align	2
 525              	.L76:
 526 0094 ABAAAA2A 		.word	715827883
 528              		.section	.text._Z10getClosestiii,"ax",%progbits
 529              		.align	1
 530              		.p2align 2,,3
 531              		.global	_Z10getClosestiii
 532              		.syntax unified
 533              		.thumb
 534              		.thumb_func
 535              		.fpu fpv5-d16
 537              	_Z10getClosestiii:
 538              		@ args = 0, pretend = 0, frame = 0
 539              		@ frame_needed = 0, uses_anonymous_args = 0
 540              		@ link register save eliminated.
 541 0000 131A     		subs	r3, r2, r0
 542 0002 8A1A     		subs	r2, r1, r2
 543 0004 9342     		cmp	r3, r2
 544 0006 A8BF     		it	ge
 545 0008 0846     		movge	r0, r1
 546 000a 7047     		bx	lr
 548              		.section	.rodata._Z19SelectSpectraOctavef.str1.4,"aMS",%progbits,1
 549              		.align	2
 550              	.LC0:
 551 0000 2D3200   		.ascii	"-2\000"
 552 0003 00       		.align	2
 553              	.LC1:
 554 0004 2D3100   		.ascii	"-1\000"
 555 0007 00       		.align	2
 556              	.LC2:
 557 0008 203000   		.ascii	" 0\000"
ARM GAS  /var/folders/lg/77ksxqjx0n7gwph6nqpzcmcw0000gn/T//ccn5JkAm.s 			page 10


 558 000b 00       		.align	2
 559              	.LC3:
 560 000c 2B3100   		.ascii	"+1\000"
 561 000f 00       		.align	2
 562              	.LC4:
 563 0010 2B3200   		.ascii	"+2\000"
 564              		.section	.text._Z19SelectSpectraOctavef,"ax",%progbits
 565              		.align	1
 566              		.p2align 2,,3
 567              		.global	_Z19SelectSpectraOctavef
 568              		.syntax unified
 569              		.thumb
 570              		.thumb_func
 571              		.fpu fpv5-d16
 573              	_Z19SelectSpectraOctavef:
 574              		@ args = 0, pretend = 0, frame = 0
 575              		@ frame_needed = 0, uses_anonymous_args = 0
 576 0000 DFED317A 		vldr.32	s15, .L105
 577 0004 B4EEE70A 		vcmpe.f32	s0, s15
 578 0008 30B5     		push	{r4, r5, lr}
 579 000a F1EE10FA 		vmrs	APSR_nzcv, FPSCR
 580 000e 83B0     		sub	sp, sp, #12
 581 0010 30D4     		bmi	.L101
 582 0012 DFED2E7A 		vldr.32	s15, .L105+4
 583 0016 B4EEE70A 		vcmpe.f32	s0, s15
 584 001a F1EE10FA 		vmrs	APSR_nzcv, FPSCR
 585 001e 1BD4     		bmi	.L102
 586 0020 DFED2B7A 		vldr.32	s15, .L105+8
 587 0024 B4EEE70A 		vcmpe.f32	s0, s15
 588 0028 F1EE10FA 		vmrs	APSR_nzcv, FPSCR
 589 002c 30D4     		bmi	.L103
 590 002e DFED297A 		vldr.32	s15, .L105+12
 591 0032 B4EEE70A 		vcmpe.f32	s0, s15
 592 0036 F1EE10FA 		vmrs	APSR_nzcv, FPSCR
 593 003a 37D4     		bmi	.L104
 594 003c 18DD     		ble	.L80
 595 003e 0223     		movs	r3, #2
 596 0040 2548     		ldr	r0, .L105+16
 597 0042 4FF08145 		mov	r5, #1082130432
 598 0046 254C     		ldr	r4, .L105+20
 599 0048 4268     		ldr	r2, [r0, #4]
 600 004a 0021     		movs	r1, #0
 601 004c 0093     		str	r3, [sp]
 602 004e 244B     		ldr	r3, .L105+24
 603 0050 2560     		str	r5, [r4]	@ float
 604 0052 FFF7FEFF 		bl	_ZNSt7__cxx1112basic_stringIcSt11char_traitsIcESaIcEE10_M_replaceEjjPKcj
 605 0056 0BE0     		b	.L80
 606              	.L102:
 607 0058 0223     		movs	r3, #2
 608 005a 1F48     		ldr	r0, .L105+16
 609 005c 4FF07C55 		mov	r5, #1056964608
 610 0060 1E4C     		ldr	r4, .L105+20
 611 0062 4268     		ldr	r2, [r0, #4]
 612 0064 0021     		movs	r1, #0
 613 0066 0093     		str	r3, [sp]
 614 0068 1E4B     		ldr	r3, .L105+28
 615 006a 2560     		str	r5, [r4]	@ float
ARM GAS  /var/folders/lg/77ksxqjx0n7gwph6nqpzcmcw0000gn/T//ccn5JkAm.s 			page 11


 616 006c FFF7FEFF 		bl	_ZNSt7__cxx1112basic_stringIcSt11char_traitsIcESaIcEE10_M_replaceEjjPKcj
 617              	.L80:
 618 0070 03B0     		add	sp, sp, #12
 619              		@ sp needed
 620 0072 30BD     		pop	{r4, r5, pc}
 621              	.L101:
 622 0074 1848     		ldr	r0, .L105+16
 623 0076 0223     		movs	r3, #2
 624 0078 4FF07A55 		mov	r5, #1048576000
 625 007c 174C     		ldr	r4, .L105+20
 626 007e 4268     		ldr	r2, [r0, #4]
 627 0080 0021     		movs	r1, #0
 628 0082 0093     		str	r3, [sp]
 629 0084 184B     		ldr	r3, .L105+32
 630 0086 2560     		str	r5, [r4]	@ float
 631 0088 FFF7FEFF 		bl	_ZNSt7__cxx1112basic_stringIcSt11char_traitsIcESaIcEE10_M_replaceEjjPKcj
 632 008c 03B0     		add	sp, sp, #12
 633              		@ sp needed
 634 008e 30BD     		pop	{r4, r5, pc}
 635              	.L103:
 636 0090 1148     		ldr	r0, .L105+16
 637 0092 0223     		movs	r3, #2
 638 0094 4FF07E55 		mov	r5, #1065353216
 639 0098 104C     		ldr	r4, .L105+20
 640 009a 4268     		ldr	r2, [r0, #4]
 641 009c 0021     		movs	r1, #0
 642 009e 0093     		str	r3, [sp]
 643 00a0 124B     		ldr	r3, .L105+36
 644 00a2 2560     		str	r5, [r4]	@ float
 645 00a4 FFF7FEFF 		bl	_ZNSt7__cxx1112basic_stringIcSt11char_traitsIcESaIcEE10_M_replaceEjjPKcj
 646 00a8 03B0     		add	sp, sp, #12
 647              		@ sp needed
 648 00aa 30BD     		pop	{r4, r5, pc}
 649              	.L104:
 650 00ac 0223     		movs	r3, #2
 651 00ae 0A48     		ldr	r0, .L105+16
 652 00b0 4FF08045 		mov	r5, #1073741824
 653 00b4 094C     		ldr	r4, .L105+20
 654 00b6 4268     		ldr	r2, [r0, #4]
 655 00b8 0021     		movs	r1, #0
 656 00ba 0093     		str	r3, [sp]
 657 00bc 0C4B     		ldr	r3, .L105+40
 658 00be 2560     		str	r5, [r4]	@ float
 659 00c0 FFF7FEFF 		bl	_ZNSt7__cxx1112basic_stringIcSt11char_traitsIcESaIcEE10_M_replaceEjjPKcj
 660 00c4 D4E7     		b	.L80
 661              	.L106:
 662 00c6 00BF     		.align	2
 663              	.L105:
 664 00c8 CDCC4C3E 		.word	1045220557
 665 00cc CDCCCC3E 		.word	1053609165
 666 00d0 9A99193F 		.word	1058642330
 667 00d4 CDCC4C3F 		.word	1061997773
 668 00d8 00000000 		.word	.LANCHOR1
 669 00dc 00000000 		.word	.LANCHOR0
 670 00e0 10000000 		.word	.LC4
 671 00e4 04000000 		.word	.LC1
 672 00e8 00000000 		.word	.LC0
ARM GAS  /var/folders/lg/77ksxqjx0n7gwph6nqpzcmcw0000gn/T//ccn5JkAm.s 			page 12


 673 00ec 08000000 		.word	.LC2
 674 00f0 0C000000 		.word	.LC3
 676              		.section	.text._Z4swapPfS_,"ax",%progbits
 677              		.align	1
 678              		.p2align 2,,3
 679              		.global	_Z4swapPfS_
 680              		.syntax unified
 681              		.thumb
 682              		.thumb_func
 683              		.fpu fpv5-d16
 685              	_Z4swapPfS_:
 686              		@ args = 0, pretend = 0, frame = 0
 687              		@ frame_needed = 0, uses_anonymous_args = 0
 688              		@ link register save eliminated.
 689 0000 D0ED007A 		vldr.32	s15, [r0]
 690 0004 0B68     		ldr	r3, [r1]	@ float
 691 0006 FDEEE77A 		vcvt.s32.f32	s15, s15
 692 000a 0360     		str	r3, [r0]	@ float
 693 000c F8EEE77A 		vcvt.f32.s32	s15, s15
 694 0010 C1ED007A 		vstr.32	s15, [r1]
 695 0014 7047     		bx	lr
 697 0016 00BF     		.section	.text._Z10bubbleSortPfS_i,"ax",%progbits
 698              		.align	1
 699              		.p2align 2,,3
 700              		.global	_Z10bubbleSortPfS_i
 701              		.syntax unified
 702              		.thumb
 703              		.thumb_func
 704              		.fpu fpv5-d16
 706              	_Z10bubbleSortPfS_i:
 707              		@ args = 0, pretend = 0, frame = 0
 708              		@ frame_needed = 0, uses_anonymous_args = 0
 709              		@ link register save eliminated.
 710 0000 F0B4     		push	{r4, r5, r6, r7}
 711 0002 571E     		subs	r7, r2, #1
 712 0004 002F     		cmp	r7, #0
 713 0006 2ADD     		ble	.L108
 714 0008 031F     		subs	r3, r0, #4
 715 000a 00F1040C 		add	ip, r0, #4
 716 000e 03EB8205 		add	r5, r3, r2, lsl #2
 717              	.L113:
 718 0012 0B46     		mov	r3, r1
 719 0014 6446     		mov	r4, ip
 720 0016 0246     		mov	r2, r0
 721              	.L112:
 722 0018 F2EC017A 		vldmia.32	r2!, {s15}
 723 001c B4EC017A 		vldmia.32	r4!, {s14}
 724 0020 F4EEC77A 		vcmpe.f32	s15, s14
 725 0024 F1EE10FA 		vmrs	APSR_nzcv, FPSCR
 726 0028 11D5     		bpl	.L110
 727 002a FDEEE77A 		vcvt.s32.f32	s15, s15
 728 002e 02ED017A 		vstr.32	s14, [r2, #-4]
 729 0032 F8EEE77A 		vcvt.f32.s32	s15, s15
 730 0036 44ED017A 		vstr.32	s15, [r4, #-4]
 731 003a D3ED007A 		vldr.32	s15, [r3]
 732 003e 5E68     		ldr	r6, [r3, #4]	@ float
 733 0040 FDEEE77A 		vcvt.s32.f32	s15, s15
ARM GAS  /var/folders/lg/77ksxqjx0n7gwph6nqpzcmcw0000gn/T//ccn5JkAm.s 			page 13


 734 0044 1E60     		str	r6, [r3]	@ float
 735 0046 F8EEE77A 		vcvt.f32.s32	s15, s15
 736 004a C3ED017A 		vstr.32	s15, [r3, #4]
 737              	.L110:
 738 004e AA42     		cmp	r2, r5
 739 0050 03F10403 		add	r3, r3, #4
 740 0054 E0D1     		bne	.L112
 741 0056 013F     		subs	r7, r7, #1
 742 0058 A5F10405 		sub	r5, r5, #4
 743 005c D9D1     		bne	.L113
 744              	.L108:
 745 005e F0BC     		pop	{r4, r5, r6, r7}
 746 0060 7047     		bx	lr
 748 0062 00BF     		.section	.text._Z11ApplyWindowfjj,"ax",%progbits
 749              		.align	1
 750              		.p2align 2,,3
 751              		.global	_Z11ApplyWindowfjj
 752              		.syntax unified
 753              		.thumb
 754              		.thumb_func
 755              		.fpu fpv5-d16
 757              	_Z11ApplyWindowfjj:
 758              		@ args = 0, pretend = 0, frame = 0
 759              		@ frame_needed = 0, uses_anonymous_args = 0
 760 0000 07EE900A 		vmov	s15, r0	@ int
 761 0004 0139     		subs	r1, r1, #1
 762 0006 DFED106A 		vldr.32	s13, .L120
 763 000a B8EE677A 		vcvt.f32.u32	s14, s15
 764 000e 07EE901A 		vmov	s15, r1	@ int
 765 0012 08B5     		push	{r3, lr}
 766 0014 27EE267A 		vmul.f32	s14, s14, s13
 767 0018 2DED028B 		vpush.64	{d8}
 768 001c B0EE408A 		vmov.f32	s16, s0
 769 0020 B8EE670A 		vcvt.f32.u32	s0, s15
 770 0024 87EE000A 		vdiv.f32	s0, s14, s0
 771 0028 FFF7FEFF 		bl	cosf
 772 002c F7EE007A 		vmov.f32	s15, #1.0e+0
 773 0030 B6EE007A 		vmov.f32	s14, #5.0e-1
 774 0034 77EEC07A 		vsub.f32	s15, s15, s0
 775 0038 67EE877A 		vmul.f32	s15, s15, s14
 776 003c 27EE880A 		vmul.f32	s0, s15, s16
 777 0040 BDEC028B 		vldm	sp!, {d8}
 778 0044 08BD     		pop	{r3, pc}
 779              	.L121:
 780 0046 00BF     		.align	2
 781              	.L120:
 782 0048 DB0FC940 		.word	1086918619
 784              		.section	.text._Z21SelectResonatorOctavef,"ax",%progbits
 785              		.align	1
 786              		.p2align 2,,3
 787              		.global	_Z21SelectResonatorOctavef
 788              		.syntax unified
 789              		.thumb
 790              		.thumb_func
 791              		.fpu fpv5-d16
 793              	_Z21SelectResonatorOctavef:
 794              		@ args = 0, pretend = 0, frame = 0
ARM GAS  /var/folders/lg/77ksxqjx0n7gwph6nqpzcmcw0000gn/T//ccn5JkAm.s 			page 14


 795              		@ frame_needed = 0, uses_anonymous_args = 0
 796              		@ link register save eliminated.
 797 0000 DFED187A 		vldr.32	s15, .L143
 798 0004 B4EEE70A 		vcmpe.f32	s0, s15
 799 0008 F1EE10FA 		vmrs	APSR_nzcv, FPSCR
 800 000c 03D5     		bpl	.L138
 801 000e 164B     		ldr	r3, .L143+4
 802 0010 0122     		movs	r2, #1
 803 0012 1A60     		str	r2, [r3]
 804 0014 7047     		bx	lr
 805              	.L138:
 806 0016 DFED157A 		vldr.32	s15, .L143+8
 807 001a B4EEE70A 		vcmpe.f32	s0, s15
 808 001e F1EE10FA 		vmrs	APSR_nzcv, FPSCR
 809 0022 03D5     		bpl	.L139
 810 0024 104B     		ldr	r3, .L143+4
 811 0026 0222     		movs	r2, #2
 812 0028 1A60     		str	r2, [r3]
 813 002a 7047     		bx	lr
 814              	.L139:
 815 002c DFED107A 		vldr.32	s15, .L143+12
 816 0030 B4EEE70A 		vcmpe.f32	s0, s15
 817 0034 F1EE10FA 		vmrs	APSR_nzcv, FPSCR
 818 0038 0AD4     		bmi	.L142
 819 003a DFED0E7A 		vldr.32	s15, .L143+16
 820 003e B4EEE70A 		vcmpe.f32	s0, s15
 821 0042 F1EE10FA 		vmrs	APSR_nzcv, FPSCR
 822 0046 07D5     		bpl	.L141
 823 0048 074B     		ldr	r3, .L143+4
 824 004a 0822     		movs	r2, #8
 825 004c 1A60     		str	r2, [r3]
 826 004e 7047     		bx	lr
 827              	.L142:
 828 0050 054B     		ldr	r3, .L143+4
 829 0052 0422     		movs	r2, #4
 830 0054 1A60     		str	r2, [r3]
 831 0056 7047     		bx	lr
 832              	.L141:
 833 0058 02DD     		ble	.L122
 834 005a 034B     		ldr	r3, .L143+4
 835 005c 1022     		movs	r2, #16
 836 005e 1A60     		str	r2, [r3]
 837              	.L122:
 838 0060 7047     		bx	lr
 839              	.L144:
 840 0062 00BF     		.align	2
 841              	.L143:
 842 0064 CDCC4C3E 		.word	1045220557
 843 0068 00000000 		.word	.LANCHOR2
 844 006c CDCCCC3E 		.word	1053609165
 845 0070 9A99193F 		.word	1058642330
 846 0074 CDCC4C3F 		.word	1061997773
 848              		.section	.text._Z20SelectSpectraQualityf,"ax",%progbits
 849              		.align	1
 850              		.p2align 2,,3
 851              		.global	_Z20SelectSpectraQualityf
 852              		.syntax unified
ARM GAS  /var/folders/lg/77ksxqjx0n7gwph6nqpzcmcw0000gn/T//ccn5JkAm.s 			page 15


 853              		.thumb
 854              		.thumb_func
 855              		.fpu fpv5-d16
 857              	_Z20SelectSpectraQualityf:
 858              		@ args = 0, pretend = 0, frame = 0
 859              		@ frame_needed = 0, uses_anonymous_args = 0
 860              		@ link register save eliminated.
 861 0000 F5EE007A 		vmov.f32	s15, #2.5e-1
 862 0004 B4EEE70A 		vcmpe.f32	s0, s15
 863 0008 F1EE10FA 		vmrs	APSR_nzcv, FPSCR
 864 000c 05D5     		bpl	.L158
 865 000e 134A     		ldr	r2, .L162
 866 0010 44F6E413 		movw	r3, #18916
 867 0014 0221     		movs	r1, #2
 868 0016 D150     		str	r1, [r2, r3]
 869 0018 7047     		bx	lr
 870              	.L158:
 871 001a F6EE007A 		vmov.f32	s15, #5.0e-1
 872 001e B4EEE70A 		vcmpe.f32	s0, s15
 873 0022 F1EE10FA 		vmrs	APSR_nzcv, FPSCR
 874 0026 05D5     		bpl	.L159
 875 0028 0C4A     		ldr	r2, .L162
 876 002a 44F6E413 		movw	r3, #18916
 877 002e 0421     		movs	r1, #4
 878 0030 D150     		str	r1, [r2, r3]
 879 0032 7047     		bx	lr
 880              	.L159:
 881 0034 F6EE087A 		vmov.f32	s15, #7.5e-1
 882 0038 B4EEE70A 		vcmpe.f32	s0, s15
 883 003c F1EE10FA 		vmrs	APSR_nzcv, FPSCR
 884 0040 06D4     		bmi	.L161
 885 0042 04DD     		ble	.L145
 886 0044 054A     		ldr	r2, .L162
 887 0046 44F6E413 		movw	r3, #18916
 888 004a 1021     		movs	r1, #16
 889 004c D150     		str	r1, [r2, r3]
 890              	.L145:
 891 004e 7047     		bx	lr
 892              	.L161:
 893 0050 024A     		ldr	r2, .L162
 894 0052 44F6E413 		movw	r3, #18916
 895 0056 0821     		movs	r1, #8
 896 0058 D150     		str	r1, [r2, r3]
 897 005a 7047     		bx	lr
 898              	.L163:
 899              		.align	2
 900              	.L162:
 901 005c 00000000 		.word	_ZL15spectra_oscbank
 903              		.section	.text._Z11randomFloatv,"ax",%progbits
 904              		.align	1
 905              		.p2align 2,,3
 906              		.global	_Z11randomFloatv
 907              		.syntax unified
 908              		.thumb
 909              		.thumb_func
 910              		.fpu fpv5-d16
 912              	_Z11randomFloatv:
ARM GAS  /var/folders/lg/77ksxqjx0n7gwph6nqpzcmcw0000gn/T//ccn5JkAm.s 			page 16


 913              		@ args = 0, pretend = 0, frame = 0
 914              		@ frame_needed = 0, uses_anonymous_args = 0
 915 0000 08B5     		push	{r3, lr}
 916 0002 FFF7FEFF 		bl	rand
 917 0006 094B     		ldr	r3, .L166
 918 0008 42F21071 		movw	r1, #10000
 919 000c DFED087A 		vldr.32	s15, .L166+4
 920 0010 83FB0023 		smull	r2, r3, r3, r0
 921 0014 C217     		asrs	r2, r0, #31
 922 0016 C2EB2333 		rsb	r3, r2, r3, asr #12
 923 001a 01FB1303 		mls	r3, r1, r3, r0
 924 001e 00EE103A 		vmov	s0, r3	@ int
 925 0022 B8EEC00A 		vcvt.f32.s32	s0, s0
 926 0026 80EE270A 		vdiv.f32	s0, s0, s15
 927 002a 08BD     		pop	{r3, pc}
 928              	.L167:
 929              		.align	2
 930              	.L166:
 931 002c AD8BDB68 		.word	1759218605
 932 0030 00401C46 		.word	1176256512
 934              		.section	.text._Z19WriteShimmerBuffer1ff,"ax",%progbits
 935              		.align	1
 936              		.p2align 2,,3
 937              		.global	_Z19WriteShimmerBuffer1ff
 938              		.syntax unified
 939              		.thumb
 940              		.thumb_func
 941              		.fpu fpv5-d16
 943              	_Z19WriteShimmerBuffer1ff:
 944              		@ args = 0, pretend = 0, frame = 0
 945              		@ frame_needed = 0, uses_anonymous_args = 0
 946              		@ link register save eliminated.
 947 0000 104A     		ldr	r2, .L170
 948 0002 1149     		ldr	r1, .L170+4
 949 0004 1368     		ldr	r3, [r2]
 950 0006 0968     		ldr	r1, [r1]
 951 0008 1048     		ldr	r0, .L170+8
 952 000a F0B4     		push	{r4, r5, r6, r7}
 953 000c 5E1C     		adds	r6, r3, #1
 954 000e 0568     		ldr	r5, [r0]
 955 0010 0F4C     		ldr	r4, .L170+12
 956 0012 96FBF1F0 		sdiv	r0, r6, r1
 957 0016 2768     		ldr	r7, [r4]
 958 0018 01FB1060 		mls	r0, r1, r0, r6
 959 001c 0D49     		ldr	r1, .L170+16
 960 001e 7E1C     		adds	r6, r7, #1
 961 0020 1060     		str	r0, [r2]
 962 0022 01EB8301 		add	r1, r1, r3, lsl #2
 963 0026 0C4B     		ldr	r3, .L170+20
 964 0028 96FBF5F2 		sdiv	r2, r6, r5
 965 002c 03EB8703 		add	r3, r3, r7, lsl #2
 966 0030 05FB1262 		mls	r2, r5, r2, r6
 967 0034 81ED000A 		vstr.32	s0, [r1]
 968 0038 2260     		str	r2, [r4]
 969 003a C3ED000A 		vstr.32	s1, [r3]
 970 003e F0BC     		pop	{r4, r5, r6, r7}
 971 0040 7047     		bx	lr
ARM GAS  /var/folders/lg/77ksxqjx0n7gwph6nqpzcmcw0000gn/T//ccn5JkAm.s 			page 17


 972              	.L171:
 973 0042 00BF     		.align	2
 974              	.L170:
 975 0044 00000000 		.word	.LANCHOR3
 976 0048 00000000 		.word	.LANCHOR5
 977 004c 00000000 		.word	.LANCHOR6
 978 0050 00000000 		.word	.LANCHOR4
 979 0054 00000000 		.word	mlooper_buf_1l
 980 0058 00000000 		.word	mlooper_buf_1r
 982              		.section	.text._Z19WriteShimmerBuffer2ff,"ax",%progbits
 983              		.align	1
 984              		.p2align 2,,3
 985              		.global	_Z19WriteShimmerBuffer2ff
 986              		.syntax unified
 987              		.thumb
 988              		.thumb_func
 989              		.fpu fpv5-d16
 991              	_Z19WriteShimmerBuffer2ff:
 992              		@ args = 0, pretend = 0, frame = 0
 993              		@ frame_needed = 0, uses_anonymous_args = 0
 994              		@ link register save eliminated.
 995 0000 0B49     		ldr	r1, .L174
 996 0002 F6EE007A 		vmov.f32	s15, #5.0e-1
 997 0006 0B4B     		ldr	r3, .L174+4
 998 0008 30EE800A 		vadd.f32	s0, s1, s0
 999 000c 0868     		ldr	r0, [r1]
 1000 000e 30B4     		push	{r4, r5}
 1001 0010 1C68     		ldr	r4, [r3]
 1002 0012 451C     		adds	r5, r0, #1
 1003 0014 084B     		ldr	r3, .L174+8
 1004 0016 20EE270A 		vmul.f32	s0, s0, s15
 1005 001a 95FBF4F2 		sdiv	r2, r5, r4
 1006 001e 03EB8003 		add	r3, r3, r0, lsl #2
 1007 0022 04FB1252 		mls	r2, r4, r2, r5
 1008 0026 83ED000A 		vstr.32	s0, [r3]
 1009 002a 0A60     		str	r2, [r1]
 1010 002c 30BC     		pop	{r4, r5}
 1011 002e 7047     		bx	lr
 1012              	.L175:
 1013              		.align	2
 1014              	.L174:
 1015 0030 00000000 		.word	.LANCHOR7
 1016 0034 00000000 		.word	.LANCHOR8
 1017 0038 00000000 		.word	mlooper_frozen_buf_1l
 1019              		.section	.text._Z14CompressSamplef,"ax",%progbits
 1020              		.align	1
 1021              		.p2align 2,,3
 1022              		.global	_Z14CompressSamplef
 1023              		.syntax unified
 1024              		.thumb
 1025              		.thumb_func
 1026              		.fpu fpv5-d16
 1028              	_Z14CompressSamplef:
 1029              		@ args = 0, pretend = 0, frame = 0
 1030              		@ frame_needed = 0, uses_anonymous_args = 0
 1031              		@ link register save eliminated.
 1032 0000 9FED536B 		vldr.64	d6, .L200
ARM GAS  /var/folders/lg/77ksxqjx0n7gwph6nqpzcmcw0000gn/T//ccn5JkAm.s 			page 18


 1033 0004 B7EEC07A 		vcvt.f64.f32	d7, s0
 1034 0008 B4EEC67B 		vcmpe.f64	d7, d6
 1035 000c F1EE10FA 		vmrs	APSR_nzcv, FPSCR
 1036 0010 1FDD     		ble	.L177
 1037 0012 9FED577A 		vldr.32	s14, .L200+32
 1038 0016 DFED576A 		vldr.32	s13, .L200+36
 1039 001a 30EE477A 		vsub.f32	s14, s0, s14
 1040 001e 9FED566A 		vldr.32	s12, .L200+40
 1041 0022 DFED567A 		vldr.32	s15, .L200+44
 1042 0026 27EE267A 		vmul.f32	s14, s14, s13
 1043 002a C7EE066A 		vdiv.f32	s13, s14, s12
 1044 002e 36EEA77A 		vadd.f32	s14, s13, s15
 1045 0032 30EE470A 		vsub.f32	s0, s0, s14
 1046 0036 B4EEE70A 		vcmpe.f32	s0, s15
 1047 003a F1EE10FA 		vmrs	APSR_nzcv, FPSCR
 1048 003e 78D4     		bmi	.L191
 1049 0040 F0EE007A 		vmov.f32	s15, #2.0e+0
 1050 0044 B4EEE70A 		vcmpe.f32	s0, s15
 1051 0048 F1EE10FA 		vmrs	APSR_nzcv, FPSCR
 1052 004c 7ADC     		bgt	.L187
 1053 004e B7EEC07A 		vcvt.f64.f32	d7, s0
 1054              	.L177:
 1055 0052 9FED416B 		vldr.64	d6, .L200+8
 1056 0056 B4EEC67B 		vcmpe.f64	d7, d6
 1057 005a F1EE10FA 		vmrs	APSR_nzcv, FPSCR
 1058 005e 1DD5     		bpl	.L180
 1059 0060 F1EE047A 		vmov.f32	s15, #5.0e+0
 1060 0064 DFED436A 		vldr.32	s13, .L200+36
 1061 0068 DFED435A 		vldr.32	s11, .L200+40
 1062 006c B8EE006A 		vmov.f32	s12, #-2.0e+0
 1063 0070 70EE277A 		vadd.f32	s15, s0, s15
 1064 0074 67EEA67A 		vmul.f32	s15, s15, s13
 1065 0078 87EEA57A 		vdiv.f32	s14, s15, s11
 1066 007c 77EE667A 		vsub.f32	s15, s14, s13
 1067 0080 30EE670A 		vsub.f32	s0, s0, s15
 1068 0084 B4EEC60A 		vcmpe.f32	s0, s12
 1069 0088 F1EE10FA 		vmrs	APSR_nzcv, FPSCR
 1070 008c 57D4     		bmi	.L188
 1071 008e B5EEC00A 		vcmpe.f32	s0, #0
 1072 0092 F1EE10FA 		vmrs	APSR_nzcv, FPSCR
 1073 0096 4FDC     		bgt	.L189
 1074 0098 B7EEC07A 		vcvt.f64.f32	d7, s0
 1075              	.L180:
 1076 009c 9FED306B 		vldr.64	d6, .L200+16
 1077 00a0 B4EEC67B 		vcmpe.f64	d7, d6
 1078 00a4 F1EE10FA 		vmrs	APSR_nzcv, FPSCR
 1079 00a8 1FDD     		ble	.L182
 1080 00aa 9FED357A 		vldr.32	s14, .L200+48
 1081 00ae DFED356A 		vldr.32	s13, .L200+52
 1082 00b2 30EE477A 		vsub.f32	s14, s0, s14
 1083 00b6 9FED346A 		vldr.32	s12, .L200+56
 1084 00ba DFED307A 		vldr.32	s15, .L200+44
 1085 00be 27EE267A 		vmul.f32	s14, s14, s13
 1086 00c2 C7EE066A 		vdiv.f32	s13, s14, s12
 1087 00c6 36EEA77A 		vadd.f32	s14, s13, s15
 1088 00ca 30EE470A 		vsub.f32	s0, s0, s14
 1089 00ce B4EEE70A 		vcmpe.f32	s0, s15
ARM GAS  /var/folders/lg/77ksxqjx0n7gwph6nqpzcmcw0000gn/T//ccn5JkAm.s 			page 19


 1090 00d2 F1EE10FA 		vmrs	APSR_nzcv, FPSCR
 1091 00d6 2CD4     		bmi	.L191
 1092 00d8 DFED2C7A 		vldr.32	s15, .L200+60
 1093 00dc B4EEE70A 		vcmpe.f32	s0, s15
 1094 00e0 F1EE10FA 		vmrs	APSR_nzcv, FPSCR
 1095 00e4 25DC     		bgt	.L191
 1096 00e6 B7EEC07A 		vcvt.f64.f32	d7, s0
 1097              	.L182:
 1098 00ea 9FED1F6B 		vldr.64	d6, .L200+24
 1099 00ee B4EEC67B 		vcmpe.f64	d7, d6
 1100 00f2 F1EE10FA 		vmrs	APSR_nzcv, FPSCR
 1101 00f6 1BD5     		bpl	.L176
 1102 00f8 B0EE007A 		vmov.f32	s14, #2.0e+0
 1103 00fc DFED216A 		vldr.32	s13, .L200+52
 1104 0100 DFED215A 		vldr.32	s11, .L200+56
 1105 0104 9FED226A 		vldr.32	s12, .L200+64
 1106 0108 30EE077A 		vadd.f32	s14, s0, s14
 1107 010c 27EE267A 		vmul.f32	s14, s14, s13
 1108 0110 C7EE257A 		vdiv.f32	s15, s14, s11
 1109 0114 77EEE67A 		vsub.f32	s15, s15, s13
 1110 0118 30EE670A 		vsub.f32	s0, s0, s15
 1111 011c B4EEC60A 		vcmpe.f32	s0, s12
 1112 0120 F1EE10FA 		vmrs	APSR_nzcv, FPSCR
 1113 0124 11D4     		bmi	.L193
 1114 0126 B5EEC00A 		vcmpe.f32	s0, #0
 1115 012a F1EE10FA 		vmrs	APSR_nzcv, FPSCR
 1116 012e 03DC     		bgt	.L189
 1117              	.L176:
 1118 0130 7047     		bx	lr
 1119              	.L191:
 1120 0132 B0EE670A 		vmov.f32	s0, s15
 1121 0136 7047     		bx	lr
 1122              	.L189:
 1123 0138 9FED100A 		vldr.32	s0, .L200+44
 1124 013c 7047     		bx	lr
 1125              	.L188:
 1126 013e 9FED140A 		vldr.32	s0, .L200+64
 1127 0142 7047     		bx	lr
 1128              	.L187:
 1129 0144 9FED110A 		vldr.32	s0, .L200+60
 1130 0148 7047     		bx	lr
 1131              	.L193:
 1132 014a B0EE460A 		vmov.f32	s0, s12
 1133 014e EFE7     		b	.L176
 1134              	.L201:
 1135              		.align	3
 1136              	.L200:
 1137 0150 9A999999 		.word	2576980378
 1138 0154 9999D93F 		.word	1071225241
 1139 0158 9A999999 		.word	2576980378
 1140 015c 9999D9BF 		.word	-1076258407
 1141 0160 9A999999 		.word	2576980378
 1142 0164 9999E93F 		.word	1072273817
 1143 0168 9A999999 		.word	2576980378
 1144 016c 9999E9BF 		.word	-1075209831
 1145 0170 CDCCCC3E 		.word	1053609165
 1146 0174 9A99193F 		.word	1058642330
ARM GAS  /var/folders/lg/77ksxqjx0n7gwph6nqpzcmcw0000gn/T//ccn5JkAm.s 			page 20


 1147 0178 33339340 		.word	1083388723
 1148 017c 00000000 		.word	0
 1149 0180 CDCC4C3F 		.word	1061997773
 1150 0184 CDCCCC3D 		.word	1036831949
 1151 0188 9A99993F 		.word	1067030938
 1152 018c 6666663F 		.word	1063675494
 1153 0190 666666BF 		.word	3211159142
 1155              		.section	.text._Z15GetReverbSampleRfS_ff,"ax",%progbits
 1156              		.align	1
 1157              		.p2align 2,,3
 1158              		.global	_Z15GetReverbSampleRfS_ff
 1159              		.syntax unified
 1160              		.thumb
 1161              		.thumb_func
 1162              		.fpu fpv5-d16
 1164              	_Z15GetReverbSampleRfS_ff:
 1165              		@ args = 0, pretend = 0, frame = 16
 1166              		@ frame_needed = 0, uses_anonymous_args = 0
 1167 0000 C54B     		ldr	r3, .L285
 1168 0002 1A68     		ldr	r2, [r3]
 1169 0004 012A     		cmp	r2, #1
 1170 0006 2DE9F04F 		push	{r4, r5, r6, r7, r8, r9, r10, fp, lr}
 1171 000a 0446     		mov	r4, r0
 1172 000c 0D46     		mov	r5, r1
 1173 000e 2DED068B 		vpush.64	{d8, d9, d10}
 1174 0012 B0EE409A 		vmov.f32	s18, s0
 1175 0016 87B0     		sub	sp, sp, #28
 1176 0018 F0EE608A 		vmov.f32	s17, s1
 1177 001c 40F2AA81 		bls	.L278
 1178 0020 9FEDBEAA 		vldr.32	s20, .L285+4
 1179 0024 B0EE4A6A 		vmov.f32	s12, s20
 1180              	.L206:
 1181 0028 BD4F     		ldr	r7, .L285+8
 1182 002a BE48     		ldr	r0, .L285+12
 1183 002c 3968     		ldr	r1, [r7]
 1184 002e 0131     		adds	r1, r1, #1
 1185 0030 80FB0130 		smull	r3, r0, r0, r1
 1186 0034 CB17     		asrs	r3, r1, #31
 1187 0036 C3EBE003 		rsb	r3, r3, r0, asr #3
 1188 003a 03EB4303 		add	r3, r3, r3, lsl #1
 1189 003e A1EB0313 		sub	r3, r1, r3, lsl #4
 1190 0042 3B60     		str	r3, [r7]
 1191 0044 002B     		cmp	r3, #0
 1192 0046 00F06A82 		beq	.L211
 1193 004a B74B     		ldr	r3, .L285+16
 1194 004c B74F     		ldr	r7, .L285+20
 1195 004e 93ED008A 		vldr.32	s16, [r3]
 1196              	.L212:
 1197 0052 B749     		ldr	r1, .L285+24
 1198 0054 B74B     		ldr	r3, .L285+28
 1199 0056 D1ED007A 		vldr.32	s15, [r1]
 1200 005a D3ED006A 		vldr.32	s13, [r3]
 1201 005e 78EE674A 		vsub.f32	s9, s16, s15
 1202 0062 9FEDB55A 		vldr.32	s10, .L285+32
 1203 0066 78EE665A 		vsub.f32	s11, s16, s13
 1204 006a 9FEDB47A 		vldr.32	s14, .L285+36
 1205 006e E4EE857A 		vfma.f32	s15, s9, s10
ARM GAS  /var/folders/lg/77ksxqjx0n7gwph6nqpzcmcw0000gn/T//ccn5JkAm.s 			page 21


 1206 0072 E5EE876A 		vfma.f32	s13, s11, s14
 1207 0076 C1ED007A 		vstr.32	s15, [r1]
 1208 007a F0EE663A 		vmov.f32	s7, s13
 1209 007e C3ED006A 		vstr.32	s13, [r3]
 1210 0082 002A     		cmp	r2, #0
 1211 0084 40F09480 		bne	.L217
 1212 0088 F5EEC07A 		vcmpe.f32	s15, #0
 1213 008c F1EE10FA 		vmrs	APSR_nzcv, FPSCR
 1214 0090 00F17482 		bmi	.L246
 1215 0094 F7EE006A 		vmov.f32	s13, #1.0e+0
 1216 0098 F4EEE67A 		vcmpe.f32	s15, s13
 1217 009c F1EE10FA 		vmrs	APSR_nzcv, FPSCR
 1218 00a0 B5EEC08A 		vcmpe.f32	s16, #0
 1219 00a4 76FEA76A 		vselgt.f32	s13, s13, s15
 1220 00a8 F1EE10FA 		vmrs	APSR_nzcv, FPSCR
 1221 00ac 00F16E82 		bmi	.L248
 1222              	.L283:
 1223 00b0 B7EE007A 		vmov.f32	s14, #1.0e+0
 1224 00b4 DFED995A 		vldr.32	s11, .L285+4
 1225 00b8 B4EEC78A 		vcmpe.f32	s16, s14
 1226 00bc F1EE10FA 		vmrs	APSR_nzcv, FPSCR
 1227 00c0 F4EEE57A 		vcmpe.f32	s15, s11
 1228 00c4 37FE087A 		vselgt.f32	s14, s14, s16
 1229 00c8 F1EE10FA 		vmrs	APSR_nzcv, FPSCR
 1230 00cc 00F16882 		bmi	.L222
 1231              	.L284:
 1232 00d0 F7EE005A 		vmov.f32	s11, #1.0e+0
 1233 00d4 9A4B     		ldr	r3, .L285+40
 1234 00d6 C3ED106A 		vstr.32	s13, [r3, #64]
 1235 00da F4EEE57A 		vcmpe.f32	s15, s11
 1236 00de 83ED117A 		vstr.32	s14, [r3, #68]
 1237 00e2 F1EE10FA 		vmrs	APSR_nzcv, FPSCR
 1238 00e6 B5EEC08A 		vcmpe.f32	s16, #0
 1239 00ea D8BF     		it	le
 1240 00ec 67EEA75A 		vmulle.f32	s11, s15, s15
 1241 00f0 F1EE10FA 		vmrs	APSR_nzcv, FPSCR
 1242 00f4 C3ED125A 		vstr.32	s11, [r3, #72]
 1243 00f8 00F17B82 		bmi	.L252
 1244              	.L243:
 1245 00fc B7EE007A 		vmov.f32	s14, #1.0e+0
 1246 0100 B4EEC78A 		vcmpe.f32	s16, s14
 1247 0104 F1EE10FA 		vmrs	APSR_nzcv, FPSCR
 1248 0108 00F36B82 		bgt	.L253
 1249 010c 28EE087A 		vmul.f32	s14, s16, s16
 1250 0110 F0EE486A 		vmov.f32	s13, s16
 1251              	.L224:
 1252 0114 F5EEC07A 		vcmpe.f32	s15, #0
 1253 0118 C3ED136A 		vstr.32	s13, [r3, #76]
 1254 011c C3ED146A 		vstr.32	s13, [r3, #80]
 1255 0120 83ED157A 		vstr.32	s14, [r3, #84]
 1256 0124 F1EE10FA 		vmrs	APSR_nzcv, FPSCR
 1257 0128 00F15882 		bmi	.L255
 1258 012c F7EE006A 		vmov.f32	s13, #1.0e+0
 1259 0130 F4EEE67A 		vcmpe.f32	s15, s13
 1260 0134 F1EE10FA 		vmrs	APSR_nzcv, FPSCR
 1261 0138 76FEA76A 		vselgt.f32	s13, s13, s15
 1262              	.L225:
ARM GAS  /var/folders/lg/77ksxqjx0n7gwph6nqpzcmcw0000gn/T//ccn5JkAm.s 			page 22


 1263 013c 9FED777A 		vldr.32	s14, .L285+4
 1264 0140 B4EEC78A 		vcmpe.f32	s16, s14
 1265 0144 F1EE10FA 		vmrs	APSR_nzcv, FPSCR
 1266 0148 00F14082 		bmi	.L227
 1267 014c F7EE005A 		vmov.f32	s11, #1.0e+0
 1268 0150 B4EEE58A 		vcmpe.f32	s16, s11
 1269 0154 F1EE10FA 		vmrs	APSR_nzcv, FPSCR
 1270 0158 F4EEC77A 		vcmpe.f32	s15, s14
 1271 015c 75FE885A 		vselgt.f32	s11, s11, s16
 1272 0160 F1EE10FA 		vmrs	APSR_nzcv, FPSCR
 1273 0164 08D4     		bmi	.L230
 1274              	.L241:
 1275 0166 B7EE007A 		vmov.f32	s14, #1.0e+0
 1276 016a F4EEC77A 		vcmpe.f32	s15, s14
 1277 016e F1EE10FA 		vmrs	APSR_nzcv, FPSCR
 1278 0172 D8BF     		it	le
 1279 0174 27EEA77A 		vmulle.f32	s14, s15, s15
 1280              	.L230:
 1281 0178 B5EEC08A 		vcmpe.f32	s16, #0
 1282 017c C3ED196A 		vstr.32	s13, [r3, #100]
 1283 0180 C3ED1A5A 		vstr.32	s11, [r3, #104]
 1284 0184 83ED1B7A 		vstr.32	s14, [r3, #108]
 1285 0188 F1EE10FA 		vmrs	APSR_nzcv, FPSCR
 1286 018c 00F12C82 		bmi	.L261
 1287 0190 B7EE007A 		vmov.f32	s14, #1.0e+0
 1288 0194 B4EEC78A 		vcmpe.f32	s16, s14
 1289 0198 F1EE10FA 		vmrs	APSR_nzcv, FPSCR
 1290 019c 00F32E82 		bgt	.L262
 1291 01a0 28EE087A 		vmul.f32	s14, s16, s16
 1292              	.L231:
 1293 01a4 83ED168A 		vstr.32	s16, [r3, #88]
 1294 01a8 83ED178A 		vstr.32	s16, [r3, #92]
 1295 01ac 83ED187A 		vstr.32	s14, [r3, #96]
 1296              	.L217:
 1297 01b0 F6EE009A 		vmov.f32	s19, #5.0e-1
 1298 01b4 634A     		ldr	r2, .L285+44
 1299 01b6 644B     		ldr	r3, .L285+48
 1300 01b8 B6EE083A 		vmov.f32	s6, #7.5e-1
 1301 01bc D2ED006A 		vldr.32	s13, [r2]
 1302 01c0 B0EE694A 		vmov.f32	s8, s19
 1303 01c4 93ED007A 		vldr.32	s14, [r3]
 1304 01c8 604A     		ldr	r2, .L285+52
 1305 01ca F0EE694A 		vmov.f32	s9, s19
 1306 01ce 604B     		ldr	r3, .L285+56
 1307 01d0 27EE066A 		vmul.f32	s12, s14, s12
 1308 01d4 A6EEA94A 		vfma.f32	s8, s13, s19
 1309 01d8 D2ED005A 		vldr.32	s11, [r2]
 1310 01dc 93ED005A 		vldr.32	s10, [r3]
 1311 01e0 E7EEA94A 		vfma.f32	s9, s15, s19
 1312 01e4 DFED5B7A 		vldr.32	s15, .L285+60
 1313 01e8 27EE0A7A 		vmul.f32	s14, s14, s20
 1314 01ec 75EEC55A 		vsub.f32	s11, s11, s10
 1315 01f0 5948     		ldr	r0, .L285+64
 1316 01f2 E3EEC36A 		vfms.f32	s13, s7, s6
 1317 01f6 DFF87491 		ldr	r9, .L285+84
 1318 01fa 584E     		ldr	r6, .L285+68
 1319 01fc A5EEA75A 		vfma.f32	s10, s11, s15
ARM GAS  /var/folders/lg/77ksxqjx0n7gwph6nqpzcmcw0000gn/T//ccn5JkAm.s 			page 23


 1320 0200 DFF86C81 		ldr	r8, .L285+88
 1321 0204 26EE046A 		vmul.f32	s12, s12, s8
 1322 0208 F0EE497A 		vmov.f32	s15, s18
 1323 020c 27EE047A 		vmul.f32	s14, s14, s8
 1324 0210 C0ED006A 		vstr.32	s13, [r0]
 1325 0214 E6EE247A 		vfma.f32	s15, s12, s9
 1326 0218 83ED005A 		vstr.32	s10, [r3]
 1327 021c B0EE676A 		vmov.f32	s12, s15
 1328 0220 F0EE687A 		vmov.f32	s15, s17
 1329 0224 26EE296A 		vmul.f32	s12, s12, s19
 1330 0228 E4EE877A 		vfma.f32	s15, s9, s14
 1331 022c 26EE050A 		vmul.f32	s0, s12, s10
 1332 0230 F0EE674A 		vmov.f32	s9, s15
 1333 0234 FFF7FEFF 		bl	_Z14CompressSamplef
 1334 0238 8DED040A 		vstr.32	s0, [sp, #16]
 1335 023c 64EEA94A 		vmul.f32	s9, s9, s19
 1336 0240 24EE850A 		vmul.f32	s0, s9, s10
 1337 0244 FFF7FEFF 		bl	_Z14CompressSamplef
 1338 0248 2346     		mov	r3, r4
 1339 024a 05AA     		add	r2, sp, #20
 1340 024c 04A9     		add	r1, sp, #16
 1341 024e 0095     		str	r5, [sp]
 1342 0250 8DED050A 		vstr.32	s0, [sp, #20]
 1343 0254 FFF7FEFF 		bl	_ZN7daisysp8ReverbSc7ProcessERKfS2_PfS3_
 1344 0258 94ED008A 		vldr.32	s16, [r4]
 1345 025c D6ED006A 		vldr.32	s13, [r6]
 1346 0260 89ED008A 		vstr.32	s16, [r9]
 1347 0264 95ED006A 		vldr.32	s12, [r5]
 1348 0268 DFED3D7A 		vldr.32	s15, .L285+72
 1349 026c 26EE067A 		vmul.f32	s14, s12, s12
 1350 0270 D7F8C030 		ldr	r3, [r7, #192]
 1351 0274 F4EEE76A 		vcmpe.f32	s13, s15
 1352 0278 88ED006A 		vstr.32	s12, [r8]
 1353 027c 07EB8302 		add	r2, r7, r3, lsl #2
 1354 0280 0133     		adds	r3, r3, #1
 1355 0282 A8EE087A 		vfma.f32	s14, s16, s16
 1356 0286 F1EE10FA 		vmrs	APSR_nzcv, FPSCR
 1357 028a C7F8C030 		str	r3, [r7, #192]
 1358 028e 27EE297A 		vmul.f32	s14, s14, s19
 1359 0292 82ED007A 		vstr.32	s14, [r2]
 1360 0296 40F3F680 		ble	.L274
 1361 029a 4FF07E53 		mov	r3, #1065353216
 1362 029e DFED1F9A 		vldr.32	s19, .L285+4
 1363 02a2 3360     		str	r3, [r6]	@ float
 1364              	.L234:
 1365 02a4 A9EE298A 		vfma.f32	s16, s18, s19
 1366 02a8 DFED2E7A 		vldr.32	s15, .L285+76
 1367 02ac B6EE007A 		vmov.f32	s14, #5.0e-1
 1368 02b0 28EE278A 		vmul.f32	s16, s16, s15
 1369 02b4 84ED008A 		vstr.32	s16, [r4]
 1370 02b8 96ED000A 		vldr.32	s0, [r6]
 1371 02bc 70EE007A 		vadd.f32	s15, s0, s0
 1372 02c0 27EE877A 		vmul.f32	s14, s15, s14
 1373 02c4 B5EE407A 		vcmp.f32	s14, #0
 1374 02c8 B1EEC78A 		vsqrt.f32	s16, s14
 1375 02cc F1EE10FA 		vmrs	APSR_nzcv, FPSCR
 1376 02d0 00F1B581 		bmi	.L279
ARM GAS  /var/folders/lg/77ksxqjx0n7gwph6nqpzcmcw0000gn/T//ccn5JkAm.s 			page 24


 1377              	.L238:
 1378 02d4 B0EE000A 		vmov.f32	s0, #2.0e+0
 1379 02d8 9FED237A 		vldr.32	s14, .L285+80
 1380 02dc D8ED006A 		vldr.32	s13, [r8]
 1381 02e0 30EE670A 		vsub.f32	s0, s0, s15
 1382 02e4 28EE268A 		vmul.f32	s16, s16, s13
 1383 02e8 20EE070A 		vmul.f32	s0, s0, s14
 1384 02ec B5EE400A 		vcmp.f32	s0, #0
 1385 02f0 B1EEC09A 		vsqrt.f32	s18, s0
 1386 02f4 F1EE10FA 		vmrs	APSR_nzcv, FPSCR
 1387 02f8 00F19E81 		bmi	.L280
 1388              	.L239:
 1389 02fc A8EE898A 		vfma.f32	s16, s17, s18
 1390 0300 DFED187A 		vldr.32	s15, .L285+76
 1391 0304 28EE278A 		vmul.f32	s16, s16, s15
 1392 0308 85ED008A 		vstr.32	s16, [r5]
 1393 030c 07B0     		add	sp, sp, #28
 1394              		@ sp needed
 1395 030e BDEC068B 		vldm	sp!, {d8-d10}
 1396 0312 BDE8F08F 		pop	{r4, r5, r6, r7, r8, r9, r10, fp, pc}
 1397              	.L286:
 1398 0316 00BF     		.align	2
 1399              	.L285:
 1400 0318 00000000 		.word	.LANCHOR9
 1401 031c 00000000 		.word	0
 1402 0320 00000000 		.word	.LANCHOR13
 1403 0324 ABAAAA2A 		.word	715827883
 1404 0328 00000000 		.word	.LANCHOR14
 1405 032c 00000000 		.word	.LANCHOR15
 1406 0330 00000000 		.word	.LANCHOR16
 1407 0334 00000000 		.word	.LANCHOR17
 1408 0338 CDCCCC3D 		.word	1036831949
 1409 033c 0AD7233C 		.word	1008981770
 1410 0340 00000000 		.word	.LANCHOR18
 1411 0344 00000000 		.word	.LANCHOR19
 1412 0348 00000000 		.word	.LANCHOR20
 1413 034c 00000000 		.word	.LANCHOR22
 1414 0350 00000000 		.word	.LANCHOR21
 1415 0354 6F12833A 		.word	981668463
 1416 0358 00000000 		.word	_ZL3rev
 1417 035c 00000000 		.word	.LANCHOR25
 1418 0360 48E17A3F 		.word	1065017672
 1419 0364 3333333F 		.word	1060320051
 1420 0368 3333733F 		.word	1064514355
 1421 036c 00000000 		.word	.LANCHOR23
 1422 0370 00000000 		.word	.LANCHOR24
 1423              	.L278:
 1424 0374 DFF824B3 		ldr	fp, .L287+60
 1425 0378 B94B     		ldr	r3, .L287
 1426 037a DBF80000 		ldr	r0, [fp]
 1427 037e 1F68     		ldr	r7, [r3]
 1428 0380 B849     		ldr	r1, .L287+4
 1429 0382 3E46     		mov	r6, r7
 1430 0384 871C     		adds	r7, r0, #2
 1431 0386 0968     		ldr	r1, [r1]
 1432 0388 B74B     		ldr	r3, .L287+8
 1433 038a 06F1020A 		add	r10, r6, #2
ARM GAS  /var/folders/lg/77ksxqjx0n7gwph6nqpzcmcw0000gn/T//ccn5JkAm.s 			page 25


 1434 038e DFF810E3 		ldr	lr, .L287+64
 1435 0392 1B68     		ldr	r3, [r3]
 1436 0394 DFF80CC3 		ldr	ip, .L287+68
 1437 0398 0396     		str	r6, [sp, #12]
 1438 039a 0E46     		mov	r6, r1
 1439 039c 97FBF1F8 		sdiv	r8, r7, r1
 1440 03a0 01FB1877 		mls	r7, r1, r8, r7
 1441 03a4 DEF80010 		ldr	r1, [lr]
 1442 03a8 CBF80070 		str	r7, [fp]
 1443 03ac 01F10109 		add	r9, r1, #1
 1444 03b0 DCF80010 		ldr	r1, [ip]
 1445 03b4 9AFBF3F7 		sdiv	r7, r10, r3
 1446 03b8 01F10108 		add	r8, r1, #1
 1447 03bc 03FB17AA 		mls	r10, r3, r7, r10
 1448 03c0 A749     		ldr	r1, .L287
 1449 03c2 AA4F     		ldr	r7, .L287+12
 1450 03c4 C1F800A0 		str	r10, [r1]
 1451 03c8 07EB8000 		add	r0, r7, r0, lsl #2
 1452 03cc DEF80010 		ldr	r1, [lr]
 1453 03d0 90ED006A 		vldr.32	s12, [r0]
 1454 03d4 07EB8107 		add	r7, r7, r1, lsl #2
 1455 03d8 99FBF6F0 		sdiv	r0, r9, r6
 1456 03dc 87ED000A 		vstr.32	s0, [r7]
 1457 03e0 06FB1091 		mls	r1, r6, r0, r9
 1458 03e4 A248     		ldr	r0, .L287+16
 1459 03e6 98FBF3F7 		sdiv	r7, r8, r3
 1460 03ea CEF80010 		str	r1, [lr]
 1461 03ee 03FB1783 		mls	r3, r3, r7, r8
 1462 03f2 DCF80010 		ldr	r1, [ip]
 1463 03f6 039F     		ldr	r7, [sp, #12]
 1464 03f8 CCF80030 		str	r3, [ip]
 1465 03fc 00EB8707 		add	r7, r0, r7, lsl #2
 1466 0400 00EB8100 		add	r0, r0, r1, lsl #2
 1467 0404 97ED00AA 		vldr.32	s20, [r7]
 1468 0408 C0ED000A 		vstr.32	s1, [r0]
 1469 040c 002A     		cmp	r2, #0
 1470 040e 5DD1     		bne	.L281
 1471 0410 984F     		ldr	r7, .L287+20
 1472 0412 F1EE006A 		vmov.f32	s13, #4.0e+0
 1473 0416 9848     		ldr	r0, .L287+24
 1474 0418 B6EE007A 		vmov.f32	s14, #5.0e-1
 1475 041c D7ED007A 		vldr.32	s15, [r7]
 1476 0420 0068     		ldr	r0, [r0]
 1477 0422 FDEEE75A 		vcvt.s32.f32	s11, s15
 1478 0426 954B     		ldr	r3, .L287+28
 1479 0428 77EEA67A 		vadd.f32	s15, s15, s13
 1480 042c 06EE900A 		vmov	s13, r0	@ int
 1481 0430 15EE901A 		vmov	r1, s11	@ int
 1482 0434 F8EEE65A 		vcvt.f32.s32	s11, s13
 1483 0438 C7ED007A 		vstr.32	s15, [r7]
 1484 043c 03EB8101 		add	r1, r3, r1, lsl #2
 1485 0440 F4EEE57A 		vcmpe.f32	s15, s11
 1486 0444 D1ED006A 		vldr.32	s13, [r1]
 1487 0448 F1EE10FA 		vmrs	APSR_nzcv, FPSCR
 1488 044c A6EE876A 		vfma.f32	s12, s13, s14
 1489 0450 A6EE87AA 		vfma.f32	s20, s13, s14
 1490 0454 03DD     		ble	.L209
ARM GAS  /var/folders/lg/77ksxqjx0n7gwph6nqpzcmcw0000gn/T//ccn5JkAm.s 			page 26


 1491 0456 77EEE57A 		vsub.f32	s15, s15, s11
 1492 045a C7ED007A 		vstr.32	s15, [r7]
 1493              	.L209:
 1494 045e 884F     		ldr	r7, .L287+32
 1495 0460 79EE287A 		vadd.f32	s15, s18, s17
 1496 0464 B6EE007A 		vmov.f32	s14, #5.0e-1
 1497 0468 3968     		ldr	r1, [r7]
 1498 046a 01F1010C 		add	ip, r1, #1
 1499 046e 03EB8103 		add	r3, r3, r1, lsl #2
 1500 0472 67EE877A 		vmul.f32	s15, s15, s14
 1501 0476 9CFBF0F1 		sdiv	r1, ip, r0
 1502 047a 00FB11C1 		mls	r1, r0, r1, ip
 1503 047e C3ED007A 		vstr.32	s15, [r3]
 1504 0482 3960     		str	r1, [r7]
 1505 0484 D0E5     		b	.L206
 1506              	.L274:
 1507 0486 76EEA66A 		vadd.f32	s13, s13, s13
 1508 048a 26EEA90A 		vmul.f32	s0, s13, s19
 1509 048e B5EE400A 		vcmp.f32	s0, #0
 1510 0492 F1EEC09A 		vsqrt.f32	s19, s0
 1511 0496 F1EE10FA 		vmrs	APSR_nzcv, FPSCR
 1512 049a 00F1BB80 		bmi	.L275
 1513 049e B0EE000A 		vmov.f32	s0, #2.0e+0
 1514 04a2 DFED787A 		vldr.32	s15, .L287+36
 1515 04a6 70EE666A 		vsub.f32	s13, s0, s13
 1516 04aa 66EEA76A 		vmul.f32	s13, s13, s15
 1517              	.L237:
 1518 04ae F5EE406A 		vcmp.f32	s13, #0
 1519 04b2 28EE298A 		vmul.f32	s16, s16, s19
 1520 04b6 F1EEE69A 		vsqrt.f32	s19, s13
 1521 04ba F1EE10FA 		vmrs	APSR_nzcv, FPSCR
 1522 04be 7FF5F1AE 		bpl	.L234
 1523 04c2 B0EE660A 		vmov.f32	s0, s13
 1524 04c6 FFF7FEFF 		bl	sqrtf
 1525 04ca EBE6     		b	.L234
 1526              	.L281:
 1527 04cc 012A     		cmp	r2, #1
 1528 04ce 7FF4ABAD 		bne	.L206
 1529 04d2 684F     		ldr	r7, .L287+20
 1530 04d4 B6EE007A 		vmov.f32	s14, #5.0e-1
 1531 04d8 6748     		ldr	r0, .L287+24
 1532 04da D7ED007A 		vldr.32	s15, [r7]
 1533 04de 0068     		ldr	r0, [r0]
 1534 04e0 FDEEE76A 		vcvt.s32.f32	s13, s15
 1535 04e4 654B     		ldr	r3, .L287+28
 1536 04e6 77EE877A 		vadd.f32	s15, s15, s14
 1537 04ea 07EE100A 		vmov	s14, r0	@ int
 1538 04ee 16EE901A 		vmov	r1, s13	@ int
 1539 04f2 F8EEC76A 		vcvt.f32.s32	s13, s14
 1540 04f6 C7ED007A 		vstr.32	s15, [r7]
 1541 04fa 03EB8101 		add	r1, r3, r1, lsl #2
 1542 04fe F4EEE67A 		vcmpe.f32	s15, s13
 1543 0502 91ED007A 		vldr.32	s14, [r1]
 1544 0506 F1EE10FA 		vmrs	APSR_nzcv, FPSCR
 1545 050a 36EE076A 		vadd.f32	s12, s12, s14
 1546 050e 3AEE07AA 		vadd.f32	s20, s20, s14
 1547 0512 A4DD     		ble	.L209
ARM GAS  /var/folders/lg/77ksxqjx0n7gwph6nqpzcmcw0000gn/T//ccn5JkAm.s 			page 27


 1548 0514 77EEE67A 		vsub.f32	s15, s15, s13
 1549 0518 C7ED007A 		vstr.32	s15, [r7]
 1550 051c 9FE7     		b	.L209
 1551              	.L211:
 1552 051e 5A4F     		ldr	r7, .L287+40
 1553 0520 D7F8C020 		ldr	r2, [r7, #192]
 1554 0524 002A     		cmp	r2, #0
 1555 0526 40F38480 		ble	.L245
 1556 052a 3B46     		mov	r3, r7
 1557 052c 07EB8201 		add	r1, r7, r2, lsl #2
 1558 0530 DFED567A 		vldr.32	s15, .L287+44
 1559              	.L214:
 1560 0534 B3EC017A 		vldmia.32	r3!, {s14}
 1561 0538 9942     		cmp	r1, r3
 1562 053a 77EE877A 		vadd.f32	s15, s15, s14
 1563 053e F9D1     		bne	.L214
 1564              	.L213:
 1565 0540 07EE102A 		vmov	s14, r2	@ int
 1566 0544 B8EEC77A 		vcvt.f32.s32	s14, s14
 1567 0548 87EE870A 		vdiv.f32	s0, s15, s14
 1568 054c B5EE400A 		vcmp.f32	s0, #0
 1569 0550 B1EEC08A 		vsqrt.f32	s16, s0
 1570 0554 F1EE10FA 		vmrs	APSR_nzcv, FPSCR
 1571 0558 7AD4     		bmi	.L282
 1572              	.L215:
 1573 055a 4B4B     		ldr	r3, .L287+40
 1574 055c 03F1C001 		add	r1, r3, #192
 1575              	.L216:
 1576 0560 0022     		movs	r2, #0
 1577 0562 43F8042B 		str	r2, [r3], #4	@ float
 1578 0566 8B42     		cmp	r3, r1
 1579 0568 FAD1     		bne	.L216
 1580 056a 494B     		ldr	r3, .L287+48
 1581 056c 0021     		movs	r1, #0
 1582 056e 1A68     		ldr	r2, [r3]
 1583 0570 484B     		ldr	r3, .L287+52
 1584 0572 C7F8C010 		str	r1, [r7, #192]
 1585 0576 83ED008A 		vstr.32	s16, [r3]
 1586 057a 6AE5     		b	.L212
 1587              	.L246:
 1588 057c B5EEC08A 		vcmpe.f32	s16, #0
 1589 0580 DFED426A 		vldr.32	s13, .L287+44
 1590 0584 F1EE10FA 		vmrs	APSR_nzcv, FPSCR
 1591 0588 7FF592AD 		bpl	.L283
 1592              	.L248:
 1593 058c DFED3F5A 		vldr.32	s11, .L287+44
 1594 0590 9FED3E7A 		vldr.32	s14, .L287+44
 1595 0594 F4EEE57A 		vcmpe.f32	s15, s11
 1596 0598 F1EE10FA 		vmrs	APSR_nzcv, FPSCR
 1597 059c 7FF598AD 		bpl	.L284
 1598              	.L222:
 1599 05a0 B5EEC08A 		vcmpe.f32	s16, #0
 1600 05a4 3C4B     		ldr	r3, .L287+56
 1601 05a6 C3ED106A 		vstr.32	s13, [r3, #64]
 1602 05aa F1EE10FA 		vmrs	APSR_nzcv, FPSCR
 1603 05ae 83ED117A 		vstr.32	s14, [r3, #68]
 1604 05b2 C3ED125A 		vstr.32	s11, [r3, #72]
ARM GAS  /var/folders/lg/77ksxqjx0n7gwph6nqpzcmcw0000gn/T//ccn5JkAm.s 			page 28


 1605 05b6 7FF5A1AD 		bpl	.L243
 1606 05ba F0EE656A 		vmov.f32	s13, s11
 1607 05be C3ED135A 		vstr.32	s11, [r3, #76]
 1608 05c2 C3ED145A 		vstr.32	s11, [r3, #80]
 1609 05c6 C3ED155A 		vstr.32	s11, [r3, #84]
 1610 05ca B7E5     		b	.L225
 1611              	.L227:
 1612 05cc F5EEC07A 		vcmpe.f32	s15, #0
 1613 05d0 F1EE10FA 		vmrs	APSR_nzcv, FPSCR
 1614 05d4 15D4     		bmi	.L240
 1615 05d6 F0EE475A 		vmov.f32	s11, s14
 1616 05da C4E5     		b	.L241
 1617              	.L255:
 1618 05dc DFED2B6A 		vldr.32	s13, .L287+44
 1619 05e0 ACE5     		b	.L225
 1620              	.L253:
 1621 05e2 F0EE476A 		vmov.f32	s13, s14
 1622 05e6 95E5     		b	.L224
 1623              	.L261:
 1624 05e8 9FED288A 		vldr.32	s16, .L287+44
 1625 05ec B0EE487A 		vmov.f32	s14, s16
 1626 05f0 D8E5     		b	.L231
 1627              	.L252:
 1628 05f2 9FED267A 		vldr.32	s14, .L287+44
 1629 05f6 F0EE476A 		vmov.f32	s13, s14
 1630 05fa 8BE5     		b	.L224
 1631              	.L262:
 1632 05fc B0EE478A 		vmov.f32	s16, s14
 1633 0600 D0E5     		b	.L231
 1634              	.L240:
 1635 0602 B0EE478A 		vmov.f32	s16, s14
 1636 0606 C3ED196A 		vstr.32	s13, [r3, #100]
 1637 060a 83ED1A7A 		vstr.32	s14, [r3, #104]
 1638 060e 83ED1B7A 		vstr.32	s14, [r3, #108]
 1639 0612 C7E5     		b	.L231
 1640              	.L275:
 1641 0614 FFF7FEFF 		bl	sqrtf
 1642 0618 F0EE007A 		vmov.f32	s15, #2.0e+0
 1643 061c 96ED007A 		vldr.32	s14, [r6]
 1644 0620 DFED186A 		vldr.32	s13, .L287+36
 1645 0624 E7EE677A 		vfms.f32	s15, s14, s15
 1646 0628 99ED008A 		vldr.32	s16, [r9]
 1647 062c 67EEA66A 		vmul.f32	s13, s15, s13
 1648 0630 3DE7     		b	.L237
 1649              	.L245:
 1650 0632 DFED167A 		vldr.32	s15, .L287+44
 1651 0636 83E7     		b	.L213
 1652              	.L280:
 1653 0638 FFF7FEFF 		bl	sqrtf
 1654 063c 5EE6     		b	.L239
 1655              	.L279:
 1656 063e B0EE470A 		vmov.f32	s0, s14
 1657 0642 FFF7FEFF 		bl	sqrtf
 1658 0646 96ED000A 		vldr.32	s0, [r6]
 1659 064a 70EE007A 		vadd.f32	s15, s0, s0
 1660 064e 41E6     		b	.L238
 1661              	.L282:
ARM GAS  /var/folders/lg/77ksxqjx0n7gwph6nqpzcmcw0000gn/T//ccn5JkAm.s 			page 29


 1662 0650 8DED036A 		vstr.32	s12, [sp, #12]	@ int
 1663 0654 FFF7FEFF 		bl	sqrtf
 1664 0658 9DED036A 		vldr.32	s12, [sp, #12]	@ int
 1665 065c 7DE7     		b	.L215
 1666              	.L288:
 1667 065e 00BF     		.align	2
 1668              	.L287:
 1669 0660 00000000 		.word	.LANCHOR11
 1670 0664 00000000 		.word	.LANCHOR5
 1671 0668 00000000 		.word	.LANCHOR6
 1672 066c 00000000 		.word	mlooper_buf_1l
 1673 0670 00000000 		.word	mlooper_buf_1r
 1674 0674 00000000 		.word	.LANCHOR12
 1675 0678 00000000 		.word	.LANCHOR8
 1676 067c 00000000 		.word	mlooper_frozen_buf_1l
 1677 0680 00000000 		.word	.LANCHOR7
 1678 0684 3333733F 		.word	1064514355
 1679 0688 00000000 		.word	.LANCHOR15
 1680 068c 00000000 		.word	0
 1681 0690 00000000 		.word	.LANCHOR9
 1682 0694 00000000 		.word	.LANCHOR14
 1683 0698 00000000 		.word	.LANCHOR18
 1684 069c 00000000 		.word	.LANCHOR10
 1685 06a0 00000000 		.word	.LANCHOR3
 1686 06a4 00000000 		.word	.LANCHOR4
 1688              		.section	.text._Z18GetResonatorSampleRfS_ff,"ax",%progbits
 1689              		.align	1
 1690              		.p2align 2,,3
 1691              		.global	_Z18GetResonatorSampleRfS_ff
 1692              		.syntax unified
 1693              		.thumb
 1694              		.thumb_func
 1695              		.fpu fpv5-d16
 1697              	_Z18GetResonatorSampleRfS_ff:
 1698              		@ args = 0, pretend = 0, frame = 16
 1699              		@ frame_needed = 0, uses_anonymous_args = 0
 1700 0000 EB4B     		ldr	r3, .L340+16
 1701 0002 B2EE087A 		vmov.f32	s14, #1.2e+1
 1702 0006 DFEDEB6A 		vldr.32	s13, .L340+20
 1703 000a D3ED007A 		vldr.32	s15, [r3]
 1704 000e EA4B     		ldr	r3, .L340+24
 1705 0010 77EEE67A 		vsub.f32	s15, s15, s13
 1706 0014 2DE9F04F 		push	{r4, r5, r6, r7, r8, r9, r10, fp, lr}
 1707 0018 2DED088B 		vpush.64	{d8, d9, d10, d11}
 1708 001c 85B0     		sub	sp, sp, #20
 1709 001e B0EE409A 		vmov.f32	s18, s0
 1710 0022 F0EE608A 		vmov.f32	s17, s1
 1711 0026 93ED008A 		vldr.32	s16, [r3]
 1712 002a C7EE870A 		vdiv.f32	s1, s15, s14
 1713 002e 0E46     		mov	r6, r1
 1714 0030 0090     		str	r0, [sp]
 1715 0032 E24F     		ldr	r7, .L340+28
 1716 0034 E24C     		ldr	r4, .L340+32
 1717 0036 E34D     		ldr	r5, .L340+36
 1718 0038 B0EE000A 		vmov.f32	s0, #2.0e+0
 1719 003c FFF7FEFF 		bl	powf
 1720 0040 DFEDE17A 		vldr.32	s15, .L340+40
ARM GAS  /var/folders/lg/77ksxqjx0n7gwph6nqpzcmcw0000gn/T//ccn5JkAm.s 			page 30


 1721 0044 E14B     		ldr	r3, .L340+44
 1722 0046 B3EE096A 		vmov.f32	s12, #2.5e+1
 1723 004a 20EE270A 		vmul.f32	s0, s0, s15
 1724 004e E04A     		ldr	r2, .L340+48
 1725 0050 F7EE007A 		vmov.f32	s15, #1.0e+0
 1726 0054 93ED005A 		vldr.32	s10, [r3]
 1727 0058 92ED007A 		vldr.32	s14, [r2]	@ int
 1728 005c C8EE005A 		vdiv.f32	s11, s16, s0
 1729 0060 D7ED006A 		vldr.32	s13, [r7]
 1730 0064 DB48     		ldr	r0, .L340+52
 1731 0066 DC49     		ldr	r1, .L340+56
 1732 0068 0268     		ldr	r2, [r0]
 1733 006a DFF8B0E3 		ldr	lr, .L340+124
 1734 006e F0EE674A 		vmov.f32	s9, s15
 1735 0072 0132     		adds	r2, r2, #1
 1736 0074 B8EEC77A 		vcvt.f32.s32	s14, s14
 1737 0078 81FB0231 		smull	r3, r1, r1, r2
 1738 007c D317     		asrs	r3, r2, #31
 1739 007e E5EE064A 		vfma.f32	s9, s10, s12
 1740 0082 C3EBE103 		rsb	r3, r3, r1, asr #3
 1741 0086 03EB4303 		add	r3, r3, r3, lsl #1
 1742 008a A2EB0313 		sub	r3, r2, r3, lsl #4
 1743 008e 87EEA46A 		vdiv.f32	s12, s15, s9
 1744 0092 0360     		str	r3, [r0]
 1745 0094 C5EE877A 		vdiv.f32	s15, s11, s14
 1746 0098 77EEE67A 		vsub.f32	s15, s15, s13
 1747 009c E6EE276A 		vfma.f32	s13, s12, s15
 1748 00a0 FDEEE67A 		vcvt.s32.f32	s15, s13
 1749 00a4 C7ED006A 		vstr.32	s13, [r7]
 1750 00a8 17EE902A 		vmov	r2, s15	@ int
 1751 00ac B8EEE77A 		vcvt.f32.s32	s14, s15
 1752 00b0 7245     		cmp	r2, lr
 1753 00b2 76EEC76A 		vsub.f32	s13, s13, s14
 1754 00b6 28BF     		it	cs
 1755 00b8 7246     		movcs	r2, lr
 1756 00ba C4ED006A 		vstr.32	s13, [r4]
 1757 00be A260     		str	r2, [r4, #8]
 1758 00c0 AA60     		str	r2, [r5, #8]
 1759 00c2 C5ED006A 		vstr.32	s13, [r5]
 1760 00c6 002B     		cmp	r3, #0
 1761 00c8 00F09C82 		beq	.L290
 1762 00cc 9646     		mov	lr, r2
 1763 00ce C34A     		ldr	r2, .L340+60
 1764 00d0 C34B     		ldr	r3, .L340+64
 1765 00d2 7746     		mov	r7, lr
 1766 00d4 92ED008A 		vldr.32	s16, [r2]
 1767              	.L291:
 1768 00d8 C24A     		ldr	r2, .L340+68
 1769 00da DFEDC35A 		vldr.32	s11, .L340+72
 1770 00de 92ED007A 		vldr.32	s14, [r2]
 1771 00e2 C249     		ldr	r1, .L340+76
 1772 00e4 38EE475A 		vsub.f32	s10, s16, s14
 1773 00e8 9FEDC16A 		vldr.32	s12, .L340+80
 1774 00ec D1ED007A 		vldr.32	s15, [r1]
 1775 00f0 A5EE257A 		vfma.f32	s14, s10, s11
 1776 00f4 38EE678A 		vsub.f32	s16, s16, s15
 1777 00f8 E8EE067A 		vfma.f32	s15, s16, s12
ARM GAS  /var/folders/lg/77ksxqjx0n7gwph6nqpzcmcw0000gn/T//ccn5JkAm.s 			page 31


 1778 00fc B5EEC07A 		vcmpe.f32	s14, #0
 1779 0100 82ED007A 		vstr.32	s14, [r2]
 1780 0104 F1EE10FA 		vmrs	APSR_nzcv, FPSCR
 1781 0108 C1ED007A 		vstr.32	s15, [r1]
 1782 010c 00F17582 		bmi	.L321
 1783 0110 B7EE006A 		vmov.f32	s12, #1.0e+0
 1784 0114 9FEDB75A 		vldr.32	s10, .L340+84
 1785 0118 B4EEC67A 		vcmpe.f32	s14, s12
 1786 011c F1EE10FA 		vmrs	APSR_nzcv, FPSCR
 1787 0120 B4EEC57A 		vcmpe.f32	s14, s10
 1788 0124 36FE076A 		vselgt.f32	s12, s12, s14
 1789 0128 F1EE10FA 		vmrs	APSR_nzcv, FPSCR
 1790 012c D4BF     		ite	le
 1791 012e 26EE075A 		vmulle.f32	s10, s12, s14
 1792 0132 26EE055A 		vmulgt.f32	s10, s12, s10
 1793              	.L296:
 1794 0136 B049     		ldr	r1, .L340+88
 1795 0138 B2EE044A 		vmov.f32	s8, #1.0e+1
 1796 013c AF48     		ldr	r0, .L340+92
 1797 013e D1ED005A 		vldr.32	s11, [r1]	@ int
 1798 0142 80ED106A 		vstr.32	s12, [r0, #64]
 1799 0146 F8EEE55A 		vcvt.f32.s32	s11, s11
 1800 014a DFEDAD4A 		vldr.32	s9, .L340+96
 1801 014e 80ED115A 		vstr.32	s10, [r0, #68]
 1802 0152 F4EEE47A 		vcmpe.f32	s15, s9
 1803 0156 85EE846A 		vdiv.f32	s12, s11, s8
 1804 015a F1EE10FA 		vmrs	APSR_nzcv, FPSCR
 1805 015e 80ED126A 		vstr.32	s12, [r0, #72]
 1806 0162 00F13382 		bmi	.L300
 1807 0166 F7EE005A 		vmov.f32	s11, #1.0e+0
 1808 016a 9FEDA25A 		vldr.32	s10, .L340+84
 1809 016e 80ED156A 		vstr.32	s12, [r0, #84]
 1810 0172 F4EEE57A 		vcmpe.f32	s15, s11
 1811 0176 F1EE10FA 		vmrs	APSR_nzcv, FPSCR
 1812 017a F4EEC57A 		vcmpe.f32	s15, s10
 1813 017e 75FEA75A 		vselgt.f32	s11, s11, s15
 1814 0182 C0ED135A 		vstr.32	s11, [r0, #76]
 1815 0186 F1EE10FA 		vmrs	APSR_nzcv, FPSCR
 1816 018a B5EEC07A 		vcmpe.f32	s14, #0
 1817 018e D4BF     		ite	le
 1818 0190 25EEA75A 		vmulle.f32	s10, s11, s15
 1819 0194 25EE855A 		vmulgt.f32	s10, s11, s10
 1820 0198 F1EE10FA 		vmrs	APSR_nzcv, FPSCR
 1821 019c 80ED145A 		vstr.32	s10, [r0, #80]
 1822 01a0 00F1D381 		bmi	.L324
 1823              	.L319:
 1824 01a4 F7EE005A 		vmov.f32	s11, #1.0e+0
 1825 01a8 9FED925A 		vldr.32	s10, .L340+84
 1826 01ac B4EEE57A 		vcmpe.f32	s14, s11
 1827 01b0 F1EE10FA 		vmrs	APSR_nzcv, FPSCR
 1828 01b4 B4EEC57A 		vcmpe.f32	s14, s10
 1829 01b8 75FE875A 		vselgt.f32	s11, s11, s14
 1830 01bc F1EE10FA 		vmrs	APSR_nzcv, FPSCR
 1831 01c0 D4BF     		ite	le
 1832 01c2 25EE877A 		vmulle.f32	s14, s11, s14
 1833 01c6 25EE857A 		vmulgt.f32	s14, s11, s10
 1834              	.L305:
ARM GAS  /var/folders/lg/77ksxqjx0n7gwph6nqpzcmcw0000gn/T//ccn5JkAm.s 			page 32


 1835 01ca F5EEC07A 		vcmpe.f32	s15, #0
 1836 01ce C0ED195A 		vstr.32	s11, [r0, #100]
 1837 01d2 80ED1A7A 		vstr.32	s14, [r0, #104]
 1838 01d6 80ED1B6A 		vstr.32	s12, [r0, #108]
 1839 01da F1EE10FA 		vmrs	APSR_nzcv, FPSCR
 1840 01de 00F14282 		bmi	.L326
 1841 01e2 B7EE007A 		vmov.f32	s14, #1.0e+0
 1842 01e6 DFED835A 		vldr.32	s11, .L340+84
 1843 01ea F4EEC77A 		vcmpe.f32	s15, s14
 1844 01ee F1EE10FA 		vmrs	APSR_nzcv, FPSCR
 1845 01f2 F4EEE57A 		vcmpe.f32	s15, s11
 1846 01f6 37FE277A 		vselgt.f32	s14, s14, s15
 1847 01fa F1EE10FA 		vmrs	APSR_nzcv, FPSCR
 1848 01fe D4BF     		ite	le
 1849 0200 67EE277A 		vmulle.f32	s15, s14, s15
 1850 0204 67EE257A 		vmulgt.f32	s15, s14, s11
 1851              	.L309:
 1852 0208 0193     		str	r3, [sp, #4]
 1853 020a B7EE008A 		vmov.f32	s16, #1.0e+0
 1854 020e 6B68     		ldr	r3, [r5, #4]
 1855 0210 DFF80CC2 		ldr	ip, .L340+128
 1856 0214 1F44     		add	r7, r7, r3
 1857 0216 DFF80C82 		ldr	r8, .L340+132
 1858 021a 80ED186A 		vstr.32	s12, [r0, #96]
 1859 021e 07F1010A 		add	r10, r7, #1
 1860 0222 ACFB073B 		umull	r3, fp, ip, r7
 1861 0226 80ED167A 		vstr.32	s14, [r0, #88]
 1862 022a ACFB0A39 		umull	r3, r9, ip, r10
 1863 022e 4FEADB3B 		lsr	fp, fp, #15
 1864 0232 C0ED177A 		vstr.32	s15, [r0, #92]
 1865 0236 4FEAD939 		lsr	r9, r9, #15
 1866 023a 08FB1B77 		mls	r7, r8, fp, r7
 1867 023e 6068     		ldr	r0, [r4, #4]
 1868 0240 08FB19AA 		mls	r10, r8, r9, r10
 1869 0244 05EB8707 		add	r7, r5, r7, lsl #2
 1870 0248 7044     		add	r0, r0, lr
 1871 024a 0099     		ldr	r1, [sp]
 1872 024c 05EB8A0A 		add	r10, r5, r10, lsl #2
 1873 0250 D7ED037A 		vldr.32	s15, [r7, #12]
 1874 0254 471C     		adds	r7, r0, #1
 1875 0256 ACFB003E 		umull	r3, lr, ip, r0
 1876 025a 9AED037A 		vldr.32	s14, [r10, #12]
 1877 025e ACFB073C 		umull	r3, ip, ip, r7
 1878 0262 4FEADE3E 		lsr	lr, lr, #15
 1879 0266 37EE677A 		vsub.f32	s14, s14, s15
 1880 026a DFF8BCA1 		ldr	r10, .L340+136
 1881 026e 4FEADC3C 		lsr	ip, ip, #15
 1882 0272 08FB1E0E 		mls	lr, r8, lr, r0
 1883 0276 6348     		ldr	r0, .L340+100
 1884 0278 E7EE267A 		vfma.f32	s15, s14, s13
 1885 027c 08FB1C78 		mls	r8, r8, ip, r7
 1886 0280 04EB8E0E 		add	lr, r4, lr, lsl #2
 1887 0284 DFF8A4B1 		ldr	fp, .L340+140
 1888 0288 04EB880C 		add	ip, r4, r8, lsl #2
 1889 028c DFF8A091 		ldr	r9, .L340+144
 1890 0290 DFF8A081 		ldr	r8, .L340+148
 1891 0294 5C4F     		ldr	r7, .L340+104
ARM GAS  /var/folders/lg/77ksxqjx0n7gwph6nqpzcmcw0000gn/T//ccn5JkAm.s 			page 33


 1892 0296 C1ED007A 		vstr.32	s15, [r1]
 1893 029a DEED037A 		vldr.32	s15, [lr, #12]
 1894 029e 9CED037A 		vldr.32	s14, [ip, #12]
 1895 02a2 D4ED006A 		vldr.32	s13, [r4]
 1896 02a6 37EE677A 		vsub.f32	s14, s14, s15
 1897 02aa E7EE267A 		vfma.f32	s15, s14, s13
 1898 02ae C6ED007A 		vstr.32	s15, [r6]
 1899 02b2 FFF7FEFF 		bl	_ZN7daisysp4Tone7ProcessERf
 1900 02b6 5046     		mov	r0, r10
 1901 02b8 FFF7FEFF 		bl	_ZN7daisysp3Svf7ProcessEf
 1902 02bc 3146     		mov	r1, r6
 1903 02be 5348     		ldr	r0, .L340+108
 1904 02c0 FFF7FEFF 		bl	_ZN7daisysp4Tone7ProcessERf
 1905 02c4 5846     		mov	r0, fp
 1906 02c6 FFF7FEFF 		bl	_ZN7daisysp3Svf7ProcessEf
 1907 02ca 99ED003A 		vldr.32	s6, [r9]
 1908 02ce 98ED005A 		vldr.32	s10, [r8]
 1909 02d2 B7EEE84A 		vcvt.f64.f32	d4, s17
 1910 02d6 9FED467A 		vldr.32	s14, .L340+80
 1911 02da B7EEC90A 		vcvt.f64.f32	d0, s18
 1912 02de DFED4C5A 		vldr.32	s11, .L340+112
 1913 02e2 03A9     		add	r1, sp, #12
 1914 02e4 23EE076A 		vmul.f32	s12, s6, s14
 1915 02e8 D7ED009A 		vldr.32	s19, [r7]
 1916 02ec 25EE077A 		vmul.f32	s14, s10, s14
 1917 02f0 DBED0C8A 		vldr.32	s17, [fp, #48]
 1918 02f4 23EE253A 		vmul.f32	s6, s6, s11
 1919 02f8 02A8     		add	r0, sp, #8
 1920 02fa B7EEC66A 		vcvt.f64.f32	d6, s12
 1921 02fe 9AED0C9A 		vldr.32	s18, [r10, #48]
 1922 0302 B7EEC77A 		vcvt.f64.f32	d7, s14
 1923 0306 25EE255A 		vmul.f32	s10, s10, s11
 1924 030a B7EEC33A 		vcvt.f64.f32	d3, s6
 1925 030e 9FED242B 		vldr.64	d2, .L340
 1926 0312 9FED251B 		vldr.64	d1, .L340+8
 1927 0316 B7EEC55A 		vcvt.f64.f32	d5, s10
 1928 031a A4EE027B 		vfma.f64	d7, d4, d2
 1929 031e A0EE026B 		vfma.f64	d6, d0, d2
 1930 0322 A4EE015B 		vfma.f64	d5, d4, d1
 1931 0326 B0EE472B 		vmov.f64	d2, d7
 1932 032a 78EE697A 		vsub.f32	s15, s16, s19
 1933 032e A0EE013B 		vfma.f64	d3, d0, d1
 1934 0332 B7EEE77A 		vcvt.f64.f32	d7, s15
 1935 0336 B7EEE94A 		vcvt.f64.f32	d4, s19
 1936 033a DFED369A 		vldr.32	s19, .L340+116
 1937 033e 26EE076B 		vmul.f64	d6, d6, d7
 1938 0342 27EE027B 		vmul.f64	d7, d7, d2
 1939 0346 A3EE046B 		vfma.f64	d6, d3, d4
 1940 034a A4EE057B 		vfma.f64	d7, d4, d5
 1941 034e B7EEC60B 		vcvt.f32.f64	s0, d6
 1942 0352 F7EEC70B 		vcvt.f32.f64	s1, d7
 1943 0356 FFF7FEFF 		bl	_Z15GetReverbSampleRfS_ff
 1944 035a 68EEA87A 		vmul.f32	s15, s17, s17
 1945 035e 2E4A     		ldr	r2, .L340+120
 1946 0360 F6EE006A 		vmov.f32	s13, #5.0e-1
 1947 0364 019B     		ldr	r3, [sp, #4]
 1948 0366 B7EEC90A 		vcvt.f64.f32	d0, s18
ARM GAS  /var/folders/lg/77ksxqjx0n7gwph6nqpzcmcw0000gn/T//ccn5JkAm.s 			page 34


 1949 036a E9EE097A 		vfma.f32	s15, s18, s18
 1950 036e 92ED007A 		vldr.32	s14, [r2]
 1951 0372 97ED006A 		vldr.32	s12, [r7]
 1952 0376 B5EEC07A 		vcmpe.f32	s14, #0
 1953 037a D3F8C010 		ldr	r1, [r3, #192]
 1954 037e 38EE466A 		vsub.f32	s12, s16, s12
 1955 0382 184A     		ldr	r2, .L340+68
 1956 0384 03EB8100 		add	r0, r3, r1, lsl #2
 1957 0388 9DED025A 		vldr.32	s10, [sp, #8]
 1958 038c F1EE10FA 		vmrs	APSR_nzcv, FPSCR
 1959 0390 01F10101 		add	r1, r1, #1
 1960 0394 67EEA67A 		vmul.f32	s15, s15, s13
 1961 0398 4EE0     		b	.L341
 1962              	.L342:
 1963 039a 00BFAFF3 		.align	3
 1963      0080
 1964              	.L340:
 1965 03a0 2B8716D9 		.word	3642132267
 1966 03a4 CEF7EF3F 		.word	1072691150
 1967 03a8 7B14AE47 		.word	1202590843
 1968 03ac E17A843F 		.word	1065646817
 1969 03b0 00000000 		.word	.LANCHOR27
 1970 03b4 00008A42 		.word	1116340224
 1971 03b8 00000000 		.word	.LANCHOR26
 1972 03bc 00000000 		.word	.LANCHOR29
 1973 03c0 0020BF02 		.word	_ZL4delr
 1974 03c4 0C73C602 		.word	_ZL4dell
 1975 03c8 0000DC43 		.word	1138491392
 1976 03cc 00000000 		.word	.LANCHOR28
 1977 03d0 00000000 		.word	.LANCHOR2
 1978 03d4 00000000 		.word	.LANCHOR30
 1979 03d8 ABAAAA2A 		.word	715827883
 1980 03dc 00000000 		.word	.LANCHOR31
 1981 03e0 00000000 		.word	.LANCHOR32
 1982 03e4 00000000 		.word	.LANCHOR33
 1983 03e8 17B7D138 		.word	953267991
 1984 03ec 00000000 		.word	.LANCHOR34
 1985 03f0 6F12833A 		.word	981668463
 1986 03f4 CDCCCC3D 		.word	1036831949
 1987 03f8 00000000 		.word	.LANCHOR35
 1988 03fc 00000000 		.word	.LANCHOR18
 1989 0400 00000000 		.word	0
 1990 0404 00000000 		.word	.LANCHOR36
 1991 0408 00000000 		.word	.LANCHOR41
 1992 040c 00000000 		.word	.LANCHOR38
 1993 0410 3333333F 		.word	1060320051
 1994 0414 9A99593F 		.word	1062836634
 1995 0418 00000000 		.word	.LANCHOR43
 1996 041c BFD40100 		.word	119999
 1997 0420 73B2E745 		.word	1172812403
 1998 0424 C0D40100 		.word	120000
 1999 0428 00000000 		.word	.LANCHOR37
 2000 042c 00000000 		.word	.LANCHOR39
 2001 0430 00000000 		.word	.LANCHOR40
 2002 0434 00000000 		.word	.LANCHOR42
 2003              	.L341:
 2004 0438 B7EEC55A 		vcvt.f64.f32	d5, s10
ARM GAS  /var/folders/lg/77ksxqjx0n7gwph6nqpzcmcw0000gn/T//ccn5JkAm.s 			page 35


 2005 043c C3F8C010 		str	r1, [r3, #192]
 2006 0440 26EE296A 		vmul.f32	s12, s12, s19
 2007 0444 C0ED007A 		vstr.32	s15, [r0]
 2008 0448 D2ED007A 		vldr.32	s15, [r2]
 2009 044c 8E48     		ldr	r0, .L343+8
 2010 044e 40F38180 		ble	.L336
 2011 0452 B7EEC66A 		vcvt.f64.f32	d6, s12
 2012 0456 A7EEE97A 		vfms.f32	s14, s15, s19
 2013 045a 9FED89AB 		vldr.64	d10, .L343
 2014 045e 36EE0A6B 		vadd.f64	d6, d6, d10
 2015 0462 B7EEC77A 		vcvt.f64.f32	d7, s14
 2016 0466 A5EE060B 		vfma.f64	d0, d5, d6
 2017 046a 27EE000B 		vmul.f64	d0, d7, d0
 2018 046e B7EEC00B 		vcvt.f32.f64	s0, d0
 2019 0472 FFF7FEFF 		bl	_ZN7daisysp7DcBlock7ProcessEf
 2020 0476 D7ED007A 		vldr.32	s15, [r7]
 2021 047a 844A     		ldr	r2, .L343+12
 2022 047c B7EEE85A 		vcvt.f64.f32	d5, s17
 2023 0480 38EE677A 		vsub.f32	s14, s16, s15
 2024 0484 9DED034A 		vldr.32	s8, [sp, #12]
 2025 0488 D2ED007A 		vldr.32	s15, [r2]
 2026 048c B0EE40BA 		vmov.f32	s22, s0
 2027 0490 7F4A     		ldr	r2, .L343+16
 2028 0492 B7EEC44A 		vcvt.f64.f32	d4, s8
 2029 0496 27EE297A 		vmul.f32	s14, s14, s19
 2030 049a 7E48     		ldr	r0, .L343+20
 2031 049c 92ED006A 		vldr.32	s12, [r2]
 2032 04a0 A7EEE96A 		vfms.f32	s12, s15, s19
 2033 04a4 B7EEC77A 		vcvt.f64.f32	d7, s14
 2034 04a8 37EE0A7B 		vadd.f64	d7, d7, d10
 2035 04ac B7EEC66A 		vcvt.f64.f32	d6, s12
 2036 04b0 A4EE075B 		vfma.f64	d5, d4, d7
 2037 04b4 26EE056B 		vmul.f64	d6, d6, d5
 2038 04b8 B7EEC60B 		vcvt.f32.f64	s0, d6
 2039 04bc FFF7FEFF 		bl	_ZN7daisysp7DcBlock7ProcessEf
 2040 04c0 F0EE407A 		vmov.f32	s15, s0
 2041              	.L315:
 2042 04c4 9FED747A 		vldr.32	s14, .L343+24
 2043 04c8 D7ED006A 		vldr.32	s13, [r7]
 2044 04cc F4EEC76A 		vcmpe.f32	s13, s14
 2045 04d0 F1EE10FA 		vmrs	APSR_nzcv, FPSCR
 2046 04d4 02DD     		ble	.L316
 2047 04d6 4FF07E53 		mov	r3, #1065353216
 2048 04da 3B60     		str	r3, [r7]	@ float
 2049              	.L316:
 2050 04dc 6A68     		ldr	r2, [r5, #4]
 2051 04de 6068     		ldr	r0, [r4, #4]
 2052 04e0 6E49     		ldr	r1, .L343+28
 2053 04e2 05EB8207 		add	r7, r5, r2, lsl #2
 2054 04e6 6E4B     		ldr	r3, .L343+32
 2055 04e8 02EB010E 		add	lr, r2, r1
 2056 04ec 0144     		add	r1, r1, r0
 2057 04ee DFF8C4C1 		ldr	ip, .L343+52
 2058 04f2 04EB8000 		add	r0, r4, r0, lsl #2
 2059 04f6 A3FB0EA2 		umull	r10, r2, r3, lr
 2060 04fa 9FED6A5A 		vldr.32	s10, .L343+36
 2061 04fe A3FB01A3 		umull	r10, r3, r3, r1
ARM GAS  /var/folders/lg/77ksxqjx0n7gwph6nqpzcmcw0000gn/T//ccn5JkAm.s 			page 36


 2062 0502 D20B     		lsrs	r2, r2, #15
 2063 0504 29EE050A 		vmul.f32	s0, s18, s10
 2064 0508 DB0B     		lsrs	r3, r3, #15
 2065 050a C0ED037A 		vstr.32	s15, [r0, #12]
 2066 050e 0CFB12E2 		mls	r2, ip, r2, lr
 2067 0512 0CFB1313 		mls	r3, ip, r3, r1
 2068 0516 6A60     		str	r2, [r5, #4]
 2069 0518 6360     		str	r3, [r4, #4]
 2070 051a 89ED009A 		vstr.32	s18, [r9]
 2071 051e C8ED008A 		vstr.32	s17, [r8]
 2072 0522 87ED03BA 		vstr.32	s22, [r7, #12]
 2073 0526 FFF7FEFF 		bl	_Z14CompressSamplef
 2074 052a F0EE407A 		vmov.f32	s15, s0
 2075 052e 009B     		ldr	r3, [sp]
 2076 0530 28EE850A 		vmul.f32	s0, s17, s10
 2077 0534 C3ED007A 		vstr.32	s15, [r3]
 2078 0538 FFF7FEFF 		bl	_Z14CompressSamplef
 2079 053c 86ED000A 		vstr.32	s0, [r6]
 2080 0540 05B0     		add	sp, sp, #20
 2081              		@ sp needed
 2082 0542 BDEC088B 		vldm	sp!, {d8-d11}
 2083 0546 BDE8F08F 		pop	{r4, r5, r6, r7, r8, r9, r10, fp, pc}
 2084              	.L324:
 2085 054a 9FED577A 		vldr.32	s14, .L343+40
 2086 054e F0EE475A 		vmov.f32	s11, s14
 2087 0552 3AE6     		b	.L305
 2088              	.L336:
 2089 0554 9FED4AAB 		vldr.64	d10, .L343
 2090 0558 B7EEC66A 		vcvt.f64.f32	d6, s12
 2091 055c A7EEA97A 		vfma.f32	s14, s15, s19
 2092 0560 36EE0A6B 		vadd.f64	d6, d6, d10
 2093 0564 A5EE060B 		vfma.f64	d0, d5, d6
 2094 0568 B7EEC77A 		vcvt.f64.f32	d7, s14
 2095 056c 27EE000B 		vmul.f64	d0, d7, d0
 2096 0570 B7EEC00B 		vcvt.f32.f64	s0, d0
 2097 0574 FFF7FEFF 		bl	_ZN7daisysp7DcBlock7ProcessEf
 2098 0578 97ED007A 		vldr.32	s14, [r7]
 2099 057c 434A     		ldr	r2, .L343+12
 2100 057e B7EEE85A 		vcvt.f64.f32	d5, s17
 2101 0582 38EE477A 		vsub.f32	s14, s16, s14
 2102 0586 424B     		ldr	r3, .L343+16
 2103 0588 D2ED007A 		vldr.32	s15, [r2]
 2104 058c B0EE40BA 		vmov.f32	s22, s0
 2105 0590 93ED006A 		vldr.32	s12, [r3]
 2106 0594 B0EE450B 		vmov.f64	d0, d5
 2107 0598 27EE297A 		vmul.f32	s14, s14, s19
 2108 059c 9DED034A 		vldr.32	s8, [sp, #12]
 2109 05a0 A7EEA96A 		vfma.f32	s12, s15, s19
 2110 05a4 3B48     		ldr	r0, .L343+20
 2111 05a6 B7EEC44A 		vcvt.f64.f32	d4, s8
 2112 05aa B7EEC77A 		vcvt.f64.f32	d7, s14
 2113 05ae 37EE0A7B 		vadd.f64	d7, d7, d10
 2114 05b2 B7EEC66A 		vcvt.f64.f32	d6, s12
 2115 05b6 A4EE070B 		vfma.f64	d0, d4, d7
 2116 05ba 26EE000B 		vmul.f64	d0, d6, d0
 2117 05be B7EEC00B 		vcvt.f32.f64	s0, d0
 2118 05c2 FFF7FEFF 		bl	_ZN7daisysp7DcBlock7ProcessEf
ARM GAS  /var/folders/lg/77ksxqjx0n7gwph6nqpzcmcw0000gn/T//ccn5JkAm.s 			page 37


 2119 05c6 F0EE407A 		vmov.f32	s15, s0
 2120 05ca 7BE7     		b	.L315
 2121              	.L300:
 2122 05cc B5EEC07A 		vcmpe.f32	s14, #0
 2123 05d0 C0ED134A 		vstr.32	s9, [r0, #76]
 2124 05d4 C0ED144A 		vstr.32	s9, [r0, #80]
 2125 05d8 80ED156A 		vstr.32	s12, [r0, #84]
 2126 05dc F1EE10FA 		vmrs	APSR_nzcv, FPSCR
 2127 05e0 7FF5E0AD 		bpl	.L319
 2128 05e4 F0EE647A 		vmov.f32	s15, s9
 2129 05e8 C0ED194A 		vstr.32	s9, [r0, #100]
 2130 05ec B0EE647A 		vmov.f32	s14, s9
 2131 05f0 C0ED1A4A 		vstr.32	s9, [r0, #104]
 2132 05f4 80ED1B6A 		vstr.32	s12, [r0, #108]
 2133 05f8 06E6     		b	.L309
 2134              	.L321:
 2135 05fa 9FED2B5A 		vldr.32	s10, .L343+40
 2136 05fe B0EE456A 		vmov.f32	s12, s10
 2137 0602 98E5     		b	.L296
 2138              	.L290:
 2139 0604 294B     		ldr	r3, .L343+44
 2140 0606 D3F8C010 		ldr	r1, [r3, #192]
 2141 060a 0029     		cmp	r1, #0
 2142 060c 30DD     		ble	.L320
 2143 060e 1A46     		mov	r2, r3
 2144 0610 03EB8100 		add	r0, r3, r1, lsl #2
 2145 0614 DFED247A 		vldr.32	s15, .L343+40
 2146              	.L293:
 2147 0618 B2EC017A 		vldmia.32	r2!, {s14}
 2148 061c 9042     		cmp	r0, r2
 2149 061e 77EE877A 		vadd.f32	s15, s15, s14
 2150 0622 F9D1     		bne	.L293
 2151              	.L292:
 2152 0624 07EE101A 		vmov	s14, r1	@ int
 2153 0628 B8EEC77A 		vcvt.f32.s32	s14, s14
 2154 062c 87EE870A 		vdiv.f32	s0, s15, s14
 2155 0630 B5EE400A 		vcmp.f32	s0, #0
 2156 0634 B1EEC08A 		vsqrt.f32	s16, s0
 2157 0638 F1EE10FA 		vmrs	APSR_nzcv, FPSCR
 2158 063c 1BD4     		bmi	.L339
 2159              	.L294:
 2160 063e 1B4A     		ldr	r2, .L343+44
 2161 0640 02F1C000 		add	r0, r2, #192
 2162              	.L295:
 2163 0644 0021     		movs	r1, #0
 2164 0646 42F8041B 		str	r1, [r2], #4	@ float
 2165 064a 9042     		cmp	r0, r2
 2166 064c FAD1     		bne	.L295
 2167 064e 0021     		movs	r1, #0
 2168 0650 174A     		ldr	r2, .L343+48
 2169 0652 D5ED006A 		vldr.32	s13, [r5]
 2170 0656 D4F808E0 		ldr	lr, [r4, #8]
 2171 065a AF68     		ldr	r7, [r5, #8]
 2172 065c C3F8C010 		str	r1, [r3, #192]
 2173 0660 82ED008A 		vstr.32	s16, [r2]
 2174 0664 38E5     		b	.L291
 2175              	.L326:
ARM GAS  /var/folders/lg/77ksxqjx0n7gwph6nqpzcmcw0000gn/T//ccn5JkAm.s 			page 38


 2176 0666 DFED107A 		vldr.32	s15, .L343+40
 2177 066a B0EE677A 		vmov.f32	s14, s15
 2178 066e CBE5     		b	.L309
 2179              	.L320:
 2180 0670 DFED0D7A 		vldr.32	s15, .L343+40
 2181 0674 D6E7     		b	.L292
 2182              	.L339:
 2183 0676 0193     		str	r3, [sp, #4]
 2184 0678 FFF7FEFF 		bl	sqrtf
 2185 067c 019B     		ldr	r3, [sp, #4]
 2186 067e DEE7     		b	.L294
 2187              	.L344:
 2188              		.align	3
 2189              	.L343:
 2190 0680 33333333 		.word	858993459
 2191 0684 3333C33F 		.word	1069757235
 2192 0688 00000000 		.word	.LANCHOR44
 2193 068c 00000000 		.word	.LANCHOR33
 2194 0690 00000000 		.word	.LANCHOR43
 2195 0694 00000000 		.word	.LANCHOR45
 2196 0698 48E17A3F 		.word	1065017672
 2197 069c BFD40100 		.word	119999
 2198 06a0 73B2E745 		.word	1172812403
 2199 06a4 CDCCCC3D 		.word	1036831949
 2200 06a8 00000000 		.word	0
 2201 06ac 00000000 		.word	.LANCHOR32
 2202 06b0 00000000 		.word	.LANCHOR31
 2203 06b4 C0D40100 		.word	120000
 2205              		.section	.text._Z16GetFilterSamplesPfS_S_S_j,"ax",%progbits
 2206              		.align	1
 2207              		.p2align 2,,3
 2208              		.global	_Z16GetFilterSamplesPfS_S_S_j
 2209              		.syntax unified
 2210              		.thumb
 2211              		.thumb_func
 2212              		.fpu fpv5-d16
 2214              	_Z16GetFilterSamplesPfS_S_S_j:
 2215              		@ args = 4, pretend = 0, frame = 16
 2216              		@ frame_needed = 0, uses_anonymous_args = 0
 2217 0000 F0B5     		push	{r4, r5, r6, r7, lr}
 2218 0002 8A4C     		ldr	r4, .L379
 2219 0004 B6EE007A 		vmov.f32	s14, #5.0e-1
 2220 0008 D4ED007A 		vldr.32	s15, [r4]
 2221 000c 884C     		ldr	r4, .L379+4
 2222 000e F4EEC77A 		vcmpe.f32	s15, s14
 2223 0012 D4ED035A 		vldr.32	s11, [r4, #12]
 2224 0016 94ED045A 		vldr.32	s10, [r4, #16]
 2225 001a F1EE10FA 		vmrs	APSR_nzcv, FPSCR
 2226 001e 2DED028B 		vpush.64	{d8}
 2227 0022 85B0     		sub	sp, sp, #20
 2228 0024 0C9E     		ldr	r6, [sp, #48]
 2229 0026 40F1DF80 		bpl	.L370
 2230 002a F1EE677A 		vneg.f32	s15, s15
 2231 002e 9FED813A 		vldr.32	s6, .L379+8
 2232 0032 B0EE007A 		vmov.f32	s14, #2.0e+0
 2233 0036 F7EE003A 		vmov.f32	s7, #1.0e+0
 2234 003a 37EEA74A 		vadd.f32	s8, s15, s15
ARM GAS  /var/folders/lg/77ksxqjx0n7gwph6nqpzcmcw0000gn/T//ccn5JkAm.s 			page 39


 2235 003e E7EE873A 		vfma.f32	s7, s15, s14
 2236              	.L348:
 2237 0042 751E     		subs	r5, r6, #1
 2238 0044 002E     		cmp	r6, #0
 2239 0046 72D0     		beq	.L357
 2240 0048 0746     		mov	r7, r0
 2241              	.L352:
 2242 004a 94ED017A 		vldr.32	s14, [r4, #4]
 2243 004e B0EE656A 		vmov.f32	s12, s11
 2244 0052 F2EC017A 		vldmia.32	r2!, {s15}
 2245 0056 013D     		subs	r5, r5, #1
 2246 0058 D4ED006A 		vldr.32	s13, [r4]
 2247 005c E7EE657A 		vfms.f32	s15, s14, s11
 2248 0060 94ED027A 		vldr.32	s14, [r4, #8]
 2249 0064 B5F1FF3F 		cmp	r5, #-1
 2250 0068 E6EEE57A 		vfms.f32	s15, s13, s11
 2251 006c 77EEC57A 		vsub.f32	s15, s15, s10
 2252 0070 67EE877A 		vmul.f32	s15, s15, s14
 2253 0074 A6EEA76A 		vfma.f32	s12, s13, s15
 2254 0078 26EE037A 		vmul.f32	s14, s12, s6
 2255 007c A6EE865A 		vfma.f32	s10, s13, s12
 2256 0080 F0EE465A 		vmov.f32	s11, s12
 2257 0084 A7EE847A 		vfma.f32	s14, s15, s8
 2258 0088 E6EEA75A 		vfma.f32	s11, s13, s15
 2259 008c F0EE454A 		vmov.f32	s9, s10
 2260 0090 A6EE865A 		vfma.f32	s10, s13, s12
 2261 0094 F0EE477A 		vmov.f32	s15, s14
 2262 0098 E4EEA37A 		vfma.f32	s15, s9, s7
 2263 009c E7EC017A 		vstmia.32	r7!, {s15}
 2264 00a0 D3D1     		bne	.L352
 2265 00a2 C4ED035A 		vstr.32	s11, [r4, #12]
 2266 00a6 03EB8607 		add	r7, r3, r6, lsl #2
 2267 00aa 84ED045A 		vstr.32	s10, [r4, #16]
 2268 00ae 1C46     		mov	r4, r3
 2269 00b0 614D     		ldr	r5, .L379+12
 2270 00b2 28E0     		b	.L358
 2271              	.L377:
 2272 00b4 B4EEE70A 		vcmpe.f32	s0, s15
 2273 00b8 F1EE10FA 		vmrs	APSR_nzcv, FPSCR
 2274 00bc 34DC     		bgt	.L354
 2275 00be 30EE000A 		vadd.f32	s0, s0, s0
 2276 00c2 20EE260A 		vmul.f32	s0, s0, s13
 2277 00c6 B5EE400A 		vcmp.f32	s0, #0
 2278 00ca F1EEC08A 		vsqrt.f32	s17, s0
 2279 00ce F1EE10FA 		vmrs	APSR_nzcv, FPSCR
 2280 00d2 00F19680 		bmi	.L375
 2281              	.L355:
 2282 00d6 B0EE000A 		vmov.f32	s0, #2.0e+0
 2283 00da B0EC018A 		vldmia.32	r0!, {s16}
 2284 00de 28EE288A 		vmul.f32	s16, s16, s17
 2285 00e2 A7EE400A 		vfms.f32	s0, s14, s0
 2286 00e6 B5EE400A 		vcmp.f32	s0, #0
 2287 00ea F1EEC08A 		vsqrt.f32	s17, s0
 2288 00ee F1EE10FA 		vmrs	APSR_nzcv, FPSCR
 2289 00f2 00F19180 		bmi	.L376
 2290              	.L356:
 2291 00f6 D4ED007A 		vldr.32	s15, [r4]
ARM GAS  /var/folders/lg/77ksxqjx0n7gwph6nqpzcmcw0000gn/T//ccn5JkAm.s 			page 40


 2292 00fa A7EEA88A 		vfma.f32	s16, s15, s17
 2293 00fe A4EC018A 		vstmia.32	r4!, {s16}
 2294 0102 A742     		cmp	r7, r4
 2295 0104 13D0     		beq	.L357
 2296              	.L358:
 2297 0106 95ED007A 		vldr.32	s14, [r5]
 2298 010a F6EE006A 		vmov.f32	s13, #5.0e-1
 2299 010e 9FED4B0A 		vldr.32	s0, .L379+16
 2300 0112 F7EE007A 		vmov.f32	s15, #1.0e+0
 2301 0116 37EE400A 		vsub.f32	s0, s14, s0
 2302 011a B5EEC00A 		vcmpe.f32	s0, #0
 2303 011e F1EE10FA 		vmrs	APSR_nzcv, FPSCR
 2304 0122 C7D5     		bpl	.L377
 2305 0124 DFED437A 		vldr.32	s15, .L379+8
 2306              	.L354:
 2307 0128 F1EEE78A 		vsqrt.f32	s17, s15
 2308 012c D3E7     		b	.L355
 2309              	.L357:
 2310 012e 4448     		ldr	r0, .L379+20
 2311 0130 B6EE007A 		vmov.f32	s14, #5.0e-1
 2312 0134 434A     		ldr	r2, .L379+24
 2313 0136 D0ED007A 		vldr.32	s15, [r0]
 2314 013a D2ED035A 		vldr.32	s11, [r2, #12]
 2315 013e F4EEC77A 		vcmpe.f32	s15, s14
 2316 0142 92ED045A 		vldr.32	s10, [r2, #16]
 2317 0146 F1EE10FA 		vmrs	APSR_nzcv, FPSCR
 2318 014a 40D5     		bpl	.L378
 2319 014c F1EE677A 		vneg.f32	s15, s15
 2320 0150 9FED383A 		vldr.32	s6, .L379+8
 2321 0154 B0EE007A 		vmov.f32	s14, #2.0e+0
 2322 0158 F7EE003A 		vmov.f32	s7, #1.0e+0
 2323 015c 37EEA74A 		vadd.f32	s8, s15, s15
 2324 0160 E7EE873A 		vfma.f32	s7, s15, s14
 2325              	.L359:
 2326 0164 5EB3     		cbz	r6, .L360
 2327 0166 01EB8606 		add	r6, r1, r6, lsl #2
 2328              	.L361:
 2329 016a 92ED017A 		vldr.32	s14, [r2, #4]
 2330 016e B0EE656A 		vmov.f32	s12, s11
 2331 0172 F3EC017A 		vldmia.32	r3!, {s15}
 2332 0176 D2ED006A 		vldr.32	s13, [r2]
 2333 017a E7EE657A 		vfms.f32	s15, s14, s11
 2334 017e 92ED027A 		vldr.32	s14, [r2, #8]
 2335 0182 E6EEE57A 		vfms.f32	s15, s13, s11
 2336 0186 77EEC57A 		vsub.f32	s15, s15, s10
 2337 018a 67EE877A 		vmul.f32	s15, s15, s14
 2338 018e A6EEA76A 		vfma.f32	s12, s13, s15
 2339 0192 26EE037A 		vmul.f32	s14, s12, s6
 2340 0196 A6EE865A 		vfma.f32	s10, s13, s12
 2341 019a F0EE465A 		vmov.f32	s11, s12
 2342 019e A4EE277A 		vfma.f32	s14, s8, s15
 2343 01a2 E6EEA75A 		vfma.f32	s11, s13, s15
 2344 01a6 F0EE454A 		vmov.f32	s9, s10
 2345 01aa A6EE865A 		vfma.f32	s10, s13, s12
 2346 01ae F0EE477A 		vmov.f32	s15, s14
 2347 01b2 E4EEA37A 		vfma.f32	s15, s9, s7
 2348 01b6 E1EC017A 		vstmia.32	r1!, {s15}
ARM GAS  /var/folders/lg/77ksxqjx0n7gwph6nqpzcmcw0000gn/T//ccn5JkAm.s 			page 41


 2349 01ba B142     		cmp	r1, r6
 2350 01bc D5D1     		bne	.L361
 2351              	.L360:
 2352 01be C2ED035A 		vstr.32	s11, [r2, #12]
 2353 01c2 82ED045A 		vstr.32	s10, [r2, #16]
 2354 01c6 05B0     		add	sp, sp, #20
 2355              		@ sp needed
 2356 01c8 BDEC028B 		vldm	sp!, {d8}
 2357 01cc F0BD     		pop	{r4, r5, r6, r7, pc}
 2358              	.L378:
 2359 01ce B0EE007A 		vmov.f32	s14, #2.0e+0
 2360 01d2 DFED183A 		vldr.32	s7, .L379+8
 2361 01d6 B8EE004A 		vmov.f32	s8, #-2.0e+0
 2362 01da BFEE003A 		vmov.f32	s6, #-1.0e+0
 2363 01de A7EE874A 		vfma.f32	s8, s15, s14
 2364 01e2 A7EE873A 		vfma.f32	s6, s15, s14
 2365 01e6 BDE7     		b	.L359
 2366              	.L370:
 2367 01e8 B0EE007A 		vmov.f32	s14, #2.0e+0
 2368 01ec DFED113A 		vldr.32	s7, .L379+8
 2369 01f0 B8EE004A 		vmov.f32	s8, #-2.0e+0
 2370 01f4 BFEE003A 		vmov.f32	s6, #-1.0e+0
 2371 01f8 A7EE874A 		vfma.f32	s8, s15, s14
 2372 01fc A7EE873A 		vfma.f32	s6, s15, s14
 2373 0200 1FE7     		b	.L348
 2374              	.L375:
 2375 0202 CDE90213 		strd	r1, r3, [sp, #8]
 2376 0206 0190     		str	r0, [sp, #4]
 2377 0208 FFF7FEFF 		bl	sqrtf
 2378 020c 95ED007A 		vldr.32	s14, [r5]
 2379 0210 0198     		ldr	r0, [sp, #4]
 2380 0212 DDE90213 		ldrd	r1, r3, [sp, #8]
 2381 0216 5EE7     		b	.L355
 2382              	.L376:
 2383 0218 CDE90213 		strd	r1, r3, [sp, #8]
 2384 021c 0190     		str	r0, [sp, #4]
 2385 021e FFF7FEFF 		bl	sqrtf
 2386 0222 0198     		ldr	r0, [sp, #4]
 2387 0224 DDE90213 		ldrd	r1, r3, [sp, #8]
 2388 0228 65E7     		b	.L356
 2389              	.L380:
 2390 022a 00BF     		.align	2
 2391              	.L379:
 2392 022c 00000000 		.word	.LANCHOR46
 2393 0230 00000000 		.word	.LANCHOR47
 2394 0234 00000000 		.word	0
 2395 0238 00000000 		.word	.LANCHOR50
 2396 023c CDCC4C3D 		.word	1028443341
 2397 0240 00000000 		.word	.LANCHOR48
 2398 0244 00000000 		.word	.LANCHOR49
 2400              		.section	.text._Z13GetLofiSampleRfS_ff,"ax",%progbits
 2401              		.align	1
 2402              		.p2align 2,,3
 2403              		.global	_Z13GetLofiSampleRfS_ff
 2404              		.syntax unified
 2405              		.thumb
 2406              		.thumb_func
ARM GAS  /var/folders/lg/77ksxqjx0n7gwph6nqpzcmcw0000gn/T//ccn5JkAm.s 			page 42


 2407              		.fpu fpv5-d16
 2409              	_Z13GetLofiSampleRfS_ff:
 2410              		@ args = 0, pretend = 0, frame = 16
 2411              		@ frame_needed = 0, uses_anonymous_args = 0
 2412 0000 EB4A     		ldr	r2, .L461+16
 2413 0002 DFEDEC7A 		vldr.32	s15, .L461+20
 2414 0006 1368     		ldr	r3, [r2]
 2415 0008 2DE9F04F 		push	{r4, r5, r6, r7, r8, r9, r10, fp, lr}
 2416 000c 0133     		adds	r3, r3, #1
 2417 000e EA4C     		ldr	r4, .L461+24
 2418 0010 8046     		mov	r8, r0
 2419 0012 2DED068B 		vpush.64	{d8, d9, d10}
 2420 0016 85B0     		sub	sp, sp, #20
 2421 0018 60EE279A 		vmul.f32	s19, s0, s15
 2422 001c 20EEA78A 		vmul.f32	s16, s1, s15
 2423 0020 0091     		str	r1, [sp]
 2424 0022 84FB0314 		smull	r1, r4, r4, r3
 2425 0026 D917     		asrs	r1, r3, #31
 2426 0028 C1EBE404 		rsb	r4, r1, r4, asr #3
 2427 002c 04EB4404 		add	r4, r4, r4, lsl #1
 2428 0030 A3EB0414 		sub	r4, r3, r4, lsl #4
 2429 0034 E14B     		ldr	r3, .L461+28
 2430 0036 1460     		str	r4, [r2]
 2431 0038 002C     		cmp	r4, #0
 2432 003a 00F0E483 		beq	.L382
 2433 003e E04A     		ldr	r2, .L461+32
 2434 0040 D3F8C040 		ldr	r4, [r3, #192]
 2435 0044 92ED007A 		vldr.32	s14, [r2]
 2436 0048 621C     		adds	r2, r4, #1
 2437              	.L383:
 2438 004a DE4D     		ldr	r5, .L461+36
 2439 004c D5ED007A 		vldr.32	s15, [r5]
 2440 0050 F4EEC77A 		vcmpe.f32	s15, s14
 2441 0054 F1EE10FA 		vmrs	APSR_nzcv, FPSCR
 2442 0058 40F38A83 		ble	.L452
 2443 005c DA49     		ldr	r1, .L461+40
 2444 005e B2EE046A 		vmov.f32	s12, #1.0e+1
 2445 0062 DFEDDA5A 		vldr.32	s11, .L461+44
 2446 0066 37EE677A 		vsub.f32	s14, s14, s15
 2447 006a D1ED006A 		vldr.32	s13, [r1]
 2448 006e 66EEA56A 		vmul.f32	s13, s13, s11
 2449 0072 66EE866A 		vmul.f32	s13, s13, s12
 2450 0076 E6EE877A 		vfma.f32	s15, s13, s14
 2451              	.L390:
 2452 007a D54E     		ldr	r6, .L461+48
 2453 007c B2EE0A6A 		vmov.f32	s12, #1.3e+1
 2454 0080 29EEA99A 		vmul.f32	s18, s19, s19
 2455 0084 03EB8404 		add	r4, r3, r4, lsl #2
 2456 0088 96ED00AA 		vldr.32	s20, [r6]
 2457 008c 68EE088A 		vmul.f32	s17, s16, s16
 2458 0090 F3EE046A 		vmov.f32	s13, #2.0e+1
 2459 0094 C5ED007A 		vstr.32	s15, [r5]
 2460 0098 27EE8AAA 		vmul.f32	s20, s15, s20
 2461 009c C3F8C020 		str	r2, [r3, #192]
 2462 00a0 F6EE005A 		vmov.f32	s11, #5.0e-1
 2463 00a4 39EE287A 		vadd.f32	s14, s18, s17
 2464 00a8 2AEE06AA 		vmul.f32	s20, s20, s12
ARM GAS  /var/folders/lg/77ksxqjx0n7gwph6nqpzcmcw0000gn/T//ccn5JkAm.s 			page 43


 2465 00ac 27EE257A 		vmul.f32	s14, s14, s11
 2466 00b0 B4EEE6AA 		vcmpe.f32	s20, s13
 2467 00b4 84ED007A 		vstr.32	s14, [r4]
 2468 00b8 F1EE10FA 		vmrs	APSR_nzcv, FPSCR
 2469 00bc 00F17C83 		bmi	.L427
 2470 00c0 9FEDC47A 		vldr.32	s14, .L461+52
 2471 00c4 B4EE47AA 		vcmp.f32	s20, s14
 2472 00c8 F1EE10FA 		vmrs	APSR_nzcv, FPSCR
 2473 00cc 37FE0AAA 		vselgt.f32	s20, s14, s20
 2474              	.L391:
 2475 00d0 27EEA77A 		vmul.f32	s14, s15, s15
 2476 00d4 DFF860A3 		ldr	r10, .L461+152
 2477 00d8 DFEDBFAA 		vldr.32	s21, .L461+56
 2478 00dc BF48     		ldr	r0, .L461+60
 2479 00de 8AED107A 		vstr.32	s14, [r10, #64]
 2480 00e2 CAED137A 		vstr.32	s15, [r10, #76]
 2481 00e6 8AED197A 		vstr.32	s14, [r10, #100]
 2482 00ea CAED167A 		vstr.32	s15, [r10, #88]
 2483 00ee 80ED03AA 		vstr.32	s20, [r0, #12]
 2484 00f2 CAED14AA 		vstr.32	s21, [r10, #80]
 2485 00f6 CAED15AA 		vstr.32	s21, [r10, #84]
 2486 00fa CAED11AA 		vstr.32	s21, [r10, #68]
 2487 00fe CAED12AA 		vstr.32	s21, [r10, #72]
 2488 0102 CAED1AAA 		vstr.32	s21, [r10, #104]
 2489 0106 CAED1BAA 		vstr.32	s21, [r10, #108]
 2490 010a CAED17AA 		vstr.32	s21, [r10, #92]
 2491 010e CAED18AA 		vstr.32	s21, [r10, #96]
 2492 0112 FFF7FEFF 		bl	_ZN7daisysp4Tone21CalculateCoefficientsEv
 2493 0116 B248     		ldr	r0, .L461+64
 2494 0118 DFF82093 		ldr	r9, .L461+156
 2495 011c 80ED03AA 		vstr.32	s20, [r0, #12]
 2496 0120 FFF7FEFF 		bl	_ZN7daisysp4Tone21CalculateCoefficientsEv
 2497 0124 AF4B     		ldr	r3, .L461+68
 2498 0126 B7EECA4A 		vcvt.f64.f32	d4, s20
 2499 012a 9FEDAF3A 		vldr.32	s6, .L461+72
 2500 012e B0EE005A 		vmov.f32	s10, #2.0e+0
 2501 0132 93ED006A 		vldr.32	s12, [r3]
 2502 0136 F7EE003A 		vmov.f32	s7, #1.0e+0
 2503 013a 96ED002A 		vldr.32	s4, [r6]
 2504 013e 8AEE067A 		vdiv.f32	s14, s20, s12
 2505 0142 DFEDAA2A 		vldr.32	s5, .L461+76
 2506 0146 DFEDAA5A 		vldr.32	s11, .L461+80
 2507 014a DFEDAA7A 		vldr.32	s15, .L461+84
 2508 014e AA4C     		ldr	r4, .L461+88
 2509 0150 AA4B     		ldr	r3, .L461+92
 2510 0152 B0EE43AA 		vmov.f32	s20, s6
 2511 0156 C9ED013A 		vstr.32	s7, [r9, #4]
 2512 015a B7EEC66A 		vcvt.f64.f32	d6, s12
 2513 015e C4ED013A 		vstr.32	s7, [r4, #4]
 2514 0162 A2EE45AA 		vfms.f32	s20, s4, s10
 2515 0166 9FED8E1B 		vldr.64	d1, .L461
 2516 016a 26EE016B 		vmul.f64	d6, d6, d1
 2517 016e 27EE075A 		vmul.f32	s10, s14, s14
 2518 0172 B4EEEAAA 		vcmpe.f32	s20, s21
 2519 0176 E5EE225A 		vfma.f32	s11, s10, s5
 2520 017a F1EE10FA 		vmrs	APSR_nzcv, FPSCR
 2521 017e 9FED8A2B 		vldr.64	d2, .L461+8
ARM GAS  /var/folders/lg/77ksxqjx0n7gwph6nqpzcmcw0000gn/T//ccn5JkAm.s 			page 44


 2522 0182 E5EE257A 		vfma.f32	s15, s10, s11
 2523 0186 A4EE026B 		vfma.f64	d6, d4, d2
 2524 018a 67EE277A 		vmul.f32	s15, s14, s15
 2525 018e 37EEA37A 		vadd.f32	s14, s15, s7
 2526 0192 C9ED007A 		vstr.32	s15, [r9]
 2527 0196 C4ED007A 		vstr.32	s15, [r4]
 2528 019a B7EEC66B 		vcvt.f32.f64	s12, d6
 2529 019e A7EEA77A 		vfma.f32	s14, s15, s15
 2530 01a2 83ED016A 		vstr.32	s12, [r3, #4]
 2531 01a6 F0EE477A 		vmov.f32	s15, s14
 2532 01aa 83EEA77A 		vdiv.f32	s14, s7, s15
 2533 01ae 89ED027A 		vstr.32	s14, [r9, #8]
 2534 01b2 84ED027A 		vstr.32	s14, [r4, #8]
 2535 01b6 00F1FC82 		bmi	.L428
 2536 01ba B4EE43AA 		vcmp.f32	s20, s6
 2537 01be F1EE10FA 		vmrs	APSR_nzcv, FPSCR
 2538 01c2 33FE0AAA 		vselgt.f32	s20, s6, s20
 2539              	.L393:
 2540 01c6 B0EE4A0A 		vmov.f32	s0, s20
 2541 01ca 8D48     		ldr	r0, .L461+96
 2542 01cc DFF870B2 		ldr	fp, .L461+160
 2543 01d0 FFF7FEFF 		bl	_ZN7daisysp3Svf7SetFreqEf
 2544 01d4 8B48     		ldr	r0, .L461+100
 2545 01d6 B0EE4A0A 		vmov.f32	s0, s20
 2546 01da FFF7FEFF 		bl	_ZN7daisysp3Svf7SetFreqEf
 2547 01de DBF80020 		ldr	r2, [fp]
 2548 01e2 8949     		ldr	r1, .L461+104
 2549 01e4 501C     		adds	r0, r2, #1
 2550 01e6 0B68     		ldr	r3, [r1]
 2551 01e8 90FBF3F2 		sdiv	r2, r0, r3
 2552 01ec 03FB1202 		mls	r2, r3, r2, r0
 2553 01f0 CBF80020 		str	r2, [fp]
 2554 01f4 002A     		cmp	r2, #0
 2555 01f6 00F06F83 		beq	.L395
 2556 01fa 8449     		ldr	r1, .L461+108
 2557 01fc 844A     		ldr	r2, .L461+112
 2558 01fe D1ED006A 		vldr.32	s13, [r1]
 2559 0202 D2ED005A 		vldr.32	s11, [r2]
 2560              	.L396:
 2561 0206 13EB4303 		adds	r3, r3, r3, lsl #1
 2562 020a 9FED825A 		vldr.32	s10, .L461+116
 2563 020e B7EE006A 		vmov.f32	s12, #1.0e+0
 2564 0212 8149     		ldr	r1, .L461+120
 2565 0214 48BF     		it	mi
 2566 0216 0133     		addmi	r3, r3, #1
 2567 0218 8048     		ldr	r0, .L461+124
 2568 021a 91ED007A 		vldr.32	s14, [r1]
 2569 021e 5B10     		asrs	r3, r3, #1
 2570 0220 90ED000A 		vldr.32	s0, [r0]
 2571 0224 76EEC76A 		vsub.f32	s13, s13, s14
 2572 0228 7D4A     		ldr	r2, .L461+128
 2573 022a 07EE903A 		vmov	s15, r3	@ int
 2574 022e DFF814A2 		ldr	r10, .L461+164
 2575 0232 7C4B     		ldr	r3, .L461+132
 2576 0234 F8EEE77A 		vcvt.f32.s32	s15, s15
 2577 0238 77EEA57A 		vadd.f32	s15, s15, s11
 2578 023c DFED7A5A 		vldr.32	s11, .L461+136
ARM GAS  /var/folders/lg/77ksxqjx0n7gwph6nqpzcmcw0000gn/T//ccn5JkAm.s 			page 45


 2579 0240 B4EEE50A 		vcmpe.f32	s0, s11
 2580 0244 67EE857A 		vmul.f32	s15, s15, s10
 2581 0248 86EE275A 		vdiv.f32	s10, s12, s15
 2582 024c F0EE477A 		vmov.f32	s15, s14
 2583 0250 E5EE267A 		vfma.f32	s15, s10, s13
 2584 0254 FDEEE76A 		vcvt.s32.f32	s13, s15
 2585 0258 C1ED007A 		vstr.32	s15, [r1]
 2586 025c 16EE901A 		vmov	r1, s13	@ int
 2587 0260 B8EEE67A 		vcvt.f32.s32	s14, s13
 2588 0264 9142     		cmp	r1, r2
 2589 0266 77EEC77A 		vsub.f32	s15, s15, s14
 2590 026a 28BF     		it	cs
 2591 026c 1146     		movcs	r1, r2
 2592 026e F1EE10FA 		vmrs	APSR_nzcv, FPSCR
 2593 0272 0A46     		mov	r2, r1
 2594 0274 9960     		str	r1, [r3, #8]
 2595 0276 CAF80810 		str	r1, [r10, #8]
 2596 027a C3ED007A 		vstr.32	s15, [r3]
 2597 027e CAED007A 		vstr.32	s15, [r10]
 2598 0282 40F37C82 		ble	.L453
 2599 0286 9FED540A 		vldr.32	s0, .L461+56
 2600 028a 80ED006A 		vstr.32	s12, [r0]
 2601              	.L400:
 2602 028e 5968     		ldr	r1, [r3, #4]
 2603 0290 B5EE400A 		vcmp.f32	s0, #0
 2604 0294 DFF894C1 		ldr	ip, .L461+140
 2605 0298 B1EEC0AA 		vsqrt.f32	s20, s0
 2606 029c 0A44     		add	r2, r2, r1
 2607 029e DFF890E1 		ldr	lr, .L461+144
 2608 02a2 02F1010B 		add	fp, r2, #1
 2609 02a6 ACFB0271 		umull	r7, r1, ip, r2
 2610 02aa ACFB0B7C 		umull	r7, ip, ip, fp
 2611 02ae C90B     		lsrs	r1, r1, #15
 2612 02b0 F1EE10FA 		vmrs	APSR_nzcv, FPSCR
 2613 02b4 4FEADC3C 		lsr	ip, ip, #15
 2614 02b8 0EFB1121 		mls	r1, lr, r1, r2
 2615 02bc 0EFB1CBC 		mls	ip, lr, ip, fp
 2616 02c0 03EB8101 		add	r1, r3, r1, lsl #2
 2617 02c4 03EB8C0C 		add	ip, r3, ip, lsl #2
 2618 02c8 91ED037A 		vldr.32	s14, [r1, #12]
 2619 02cc DCED036A 		vldr.32	s13, [ip, #12]
 2620 02d0 76EEC76A 		vsub.f32	s13, s13, s14
 2621 02d4 A6EEA77A 		vfma.f32	s14, s13, s15
 2622 02d8 27EE067A 		vmul.f32	s14, s14, s12
 2623 02dc 00F18E83 		bmi	.L457
 2624              	.L403:
 2625 02e0 A9EE8A7A 		vfma.f32	s14, s19, s20
 2626 02e4 F6EE007A 		vmov.f32	s15, #5.0e-1
 2627 02e8 88ED007A 		vstr.32	s14, [r8]
 2628 02ec 90ED000A 		vldr.32	s0, [r0]
 2629 02f0 30EE007A 		vadd.f32	s14, s0, s0
 2630 02f4 67EE277A 		vmul.f32	s15, s14, s15
 2631 02f8 F5EE407A 		vcmp.f32	s15, #0
 2632 02fc F1EEE7AA 		vsqrt.f32	s21, s15
 2633 0300 F1EE10FA 		vmrs	APSR_nzcv, FPSCR
 2634 0304 00F17083 		bmi	.L458
 2635              	.L404:
ARM GAS  /var/folders/lg/77ksxqjx0n7gwph6nqpzcmcw0000gn/T//ccn5JkAm.s 			page 46


 2636 0308 DAF80410 		ldr	r1, [r10, #4]
 2637 030c B0EE000A 		vmov.f32	s0, #2.0e+0
 2638 0310 DAF80820 		ldr	r2, [r10, #8]
 2639 0314 4548     		ldr	r0, .L461+140
 2640 0316 01EB020E 		add	lr, r1, r2
 2641 031a 4549     		ldr	r1, .L461+144
 2642 031c 30EE470A 		vsub.f32	s0, s0, s14
 2643 0320 DFED447A 		vldr.32	s15, .L461+148
 2644 0324 0EF1010C 		add	ip, lr, #1
 2645 0328 A0FB0E72 		umull	r7, r2, r0, lr
 2646 032c DAED006A 		vldr.32	s13, [r10]
 2647 0330 A0FB0C70 		umull	r7, r0, r0, ip
 2648 0334 D20B     		lsrs	r2, r2, #15
 2649 0336 20EE270A 		vmul.f32	s0, s0, s15
 2650 033a C00B     		lsrs	r0, r0, #15
 2651 033c 01FB12E2 		mls	r2, r1, r2, lr
 2652 0340 01FB10C0 		mls	r0, r1, r0, ip
 2653 0344 0AEB8202 		add	r2, r10, r2, lsl #2
 2654 0348 B5EE400A 		vcmp.f32	s0, #0
 2655 034c 0AEB8000 		add	r0, r10, r0, lsl #2
 2656 0350 D2ED037A 		vldr.32	s15, [r2, #12]
 2657 0354 B1EEC0AA 		vsqrt.f32	s20, s0
 2658 0358 90ED037A 		vldr.32	s14, [r0, #12]
 2659 035c 37EE677A 		vsub.f32	s14, s14, s15
 2660 0360 F1EE10FA 		vmrs	APSR_nzcv, FPSCR
 2661 0364 E7EE267A 		vfma.f32	s15, s14, s13
 2662 0368 67EEAA7A 		vmul.f32	s15, s15, s21
 2663 036c 00F14E83 		bmi	.L459
 2664              	.L405:
 2665 0370 E8EE0A7A 		vfma.f32	s15, s16, s20
 2666 0374 009B     		ldr	r3, [sp]
 2667 0376 DFF888B0 		ldr	fp, .L461+96
 2668 037a 02A9     		add	r1, sp, #8
 2669 037c 1748     		ldr	r0, .L461+60
 2670 037e DFF88480 		ldr	r8, .L461+100
 2671 0382 C3ED007A 		vstr.32	s15, [r3]
 2672 0386 99ED037A 		vldr.32	s14, [r9, #12]
 2673 038a D4ED037A 		vldr.32	s15, [r4, #12]
 2674 038e 99ED016A 		vldr.32	s12, [r9, #4]
 2675 0392 D4ED016A 		vldr.32	s13, [r4, #4]
 2676 0396 E6EE479A 		vfms.f32	s19, s12, s14
 2677 039a 55E0     		b	.L462
 2678              	.L463:
 2679 039c AFF30080 		.align	3
 2680              	.L461:
 2681 03a0 33333333 		.word	858993459
 2682 03a4 3333D33F 		.word	1070805811
 2683 03a8 33333333 		.word	858993459
 2684 03ac 3333E33F 		.word	1071854387
 2685 03b0 00000000 		.word	.LANCHOR51
 2686 03b4 CDCC4C3F 		.word	1061997773
 2687 03b8 ABAAAA2A 		.word	715827883
 2688 03bc 00000000 		.word	.LANCHOR53
 2689 03c0 00000000 		.word	.LANCHOR52
 2690 03c4 00000000 		.word	.LANCHOR55
 2691 03c8 00000000 		.word	.LANCHOR56
 2692 03cc 0AD7A33B 		.word	1000593162
ARM GAS  /var/folders/lg/77ksxqjx0n7gwph6nqpzcmcw0000gn/T//ccn5JkAm.s 			page 47


 2693 03d0 00000000 		.word	.LANCHOR57
 2694 03d4 00409C46 		.word	1184645120
 2695 03d8 00000000 		.word	0
 2696 03dc 00000000 		.word	.LANCHOR36
 2697 03e0 00000000 		.word	.LANCHOR38
 2698 03e4 00000000 		.word	.LANCHOR26
 2699 03e8 00004843 		.word	1128792064
 2700 03ec 49265F42 		.word	1113531977
 2701 03f0 8FBA2141 		.word	1092729487
 2702 03f4 DB0F4940 		.word	1078530011
 2703 03f8 00000000 		.word	.LANCHOR49
 2704 03fc 00000000 		.word	_ZL3rev
 2705 0400 00000000 		.word	.LANCHOR37
 2706 0404 00000000 		.word	.LANCHOR39
 2707 0408 00000000 		.word	.LANCHOR58
 2708 040c 00000000 		.word	.LANCHOR60
 2709 0410 00000000 		.word	.LANCHOR61
 2710 0414 9A99993F 		.word	1067030938
 2711 0418 00000000 		.word	.LANCHOR63
 2712 041c 00000000 		.word	.LANCHOR64
 2713 0420 BFD40100 		.word	119999
 2714 0424 0C73C602 		.word	_ZL4dell
 2715 0428 48E17A3F 		.word	1065017672
 2716 042c 73B2E745 		.word	1172812403
 2717 0430 C0D40100 		.word	120000
 2718 0434 3333733F 		.word	1064514355
 2719 0438 00000000 		.word	.LANCHOR18
 2720 043c 00000000 		.word	.LANCHOR47
 2721 0440 00000000 		.word	.LANCHOR59
 2722 0444 0020BF02 		.word	_ZL4delr
 2723              	.L462:
 2724 0448 99ED005A 		vldr.32	s10, [r9]
 2725 044c A6EEE78A 		vfms.f32	s16, s13, s15
 2726 0450 94ED006A 		vldr.32	s12, [r4]
 2727 0454 D9ED045A 		vldr.32	s11, [r9, #16]
 2728 0458 D4ED046A 		vldr.32	s13, [r4, #16]
 2729 045c 99ED024A 		vldr.32	s8, [r9, #8]
 2730 0460 D4ED024A 		vldr.32	s9, [r4, #8]
 2731 0464 E7EE459A 		vfms.f32	s19, s14, s10
 2732 0468 A7EEC68A 		vfms.f32	s16, s15, s12
 2733 046c 79EEE59A 		vsub.f32	s19, s19, s11
 2734 0470 38EE668A 		vsub.f32	s16, s16, s13
 2735 0474 69EE849A 		vmul.f32	s19, s19, s8
 2736 0478 28EE248A 		vmul.f32	s16, s16, s9
 2737 047c A5EE297A 		vfma.f32	s14, s10, s19
 2738 0480 E6EE087A 		vfma.f32	s15, s12, s16
 2739 0484 E5EE075A 		vfma.f32	s11, s10, s14
 2740 0488 E6EE276A 		vfma.f32	s13, s12, s15
 2741 048c B0EE474A 		vmov.f32	s8, s14
 2742 0490 F0EE674A 		vmov.f32	s9, s15
 2743 0494 A5EE294A 		vfma.f32	s8, s10, s19
 2744 0498 F0EE653A 		vmov.f32	s7, s11
 2745 049c CDED025A 		vstr.32	s11, [sp, #8]
 2746 04a0 F0EE665A 		vmov.f32	s11, s13
 2747 04a4 CDED036A 		vstr.32	s13, [sp, #12]
 2748 04a8 E6EE084A 		vfma.f32	s9, s12, s16
 2749 04ac E5EE073A 		vfma.f32	s7, s10, s14
ARM GAS  /var/folders/lg/77ksxqjx0n7gwph6nqpzcmcw0000gn/T//ccn5JkAm.s 			page 48


 2750 04b0 E6EE275A 		vfma.f32	s11, s12, s15
 2751 04b4 89ED034A 		vstr.32	s8, [r9, #12]
 2752 04b8 C4ED034A 		vstr.32	s9, [r4, #12]
 2753 04bc C9ED043A 		vstr.32	s7, [r9, #16]
 2754 04c0 C4ED045A 		vstr.32	s11, [r4, #16]
 2755 04c4 FFF7FEFF 		bl	_ZN7daisysp4Tone7ProcessERf
 2756 04c8 5846     		mov	r0, fp
 2757 04ca FFF7FEFF 		bl	_ZN7daisysp3Svf7ProcessEf
 2758 04ce 03A9     		add	r1, sp, #12
 2759 04d0 EB48     		ldr	r0, .L464+16
 2760 04d2 FFF7FEFF 		bl	_ZN7daisysp4Tone7ProcessERf
 2761 04d6 4046     		mov	r0, r8
 2762 04d8 FFF7FEFF 		bl	_ZN7daisysp3Svf7ProcessEf
 2763 04dc B3EE0E6A 		vmov.f32	s12, #3.0e+1
 2764 04e0 D6ED004A 		vldr.32	s9, [r6]
 2765 04e4 E748     		ldr	r0, .L464+20
 2766 04e6 F4EEC64A 		vcmpe.f32	s9, s12
 2767 04ea DBED0D1A 		vldr.32	s3, [fp, #52]
 2768 04ee D0ED006A 		vldr.32	s13, [r0]
 2769 04f2 98ED0D1A 		vldr.32	s2, [r8, #52]
 2770 04f6 F1EE10FA 		vmrs	APSR_nzcv, FPSCR
 2771 04fa E34B     		ldr	r3, .L464+24
 2772 04fc 76EEA66A 		vadd.f32	s13, s13, s13
 2773 0500 00F15D81 		bmi	.L429
 2774 0504 9FEDE16A 		vldr.32	s12, .L464+28
 2775 0508 F4EEC64A 		vcmpe.f32	s9, s12
 2776 050c F1EE10FA 		vmrs	APSR_nzcv, FPSCR
 2777 0510 00F34C81 		bgt	.L430
 2778 0514 36EE647A 		vsub.f32	s14, s12, s9
 2779 0518 C7EE067A 		vdiv.f32	s15, s14, s12
 2780              	.L406:
 2781 051c DC49     		ldr	r1, .L464+32
 2782 051e DD4A     		ldr	r2, .L464+36
 2783 0520 91ED003A 		vldr.32	s6, [r1]
 2784 0524 D2ED003A 		vldr.32	s7, [r2]
 2785 0528 B2EE025A 		vmov.f32	s10, #9.0e+0
 2786 052c 95ED002A 		vldr.32	s4, [r5]
 2787 0530 F0EE492A 		vmov.f32	s5, s18
 2788 0534 B7EE006A 		vmov.f32	s12, #1.0e+0
 2789 0538 F2EE045A 		vmov.f32	s11, #1.0e+1
 2790 053c E3EE052A 		vfma.f32	s5, s6, s10
 2791 0540 B0EE683A 		vmov.f32	s6, s17
 2792 0544 36EE426A 		vsub.f32	s12, s12, s4
 2793 0548 B3EE044A 		vmov.f32	s8, #2.0e+1
 2794 054c A3EE853A 		vfma.f32	s6, s7, s10
 2795 0550 DFEDD13A 		vldr.32	s7, .L464+40
 2796 0554 E6EE276A 		vfma.f32	s13, s12, s15
 2797 0558 82EEA55A 		vdiv.f32	s10, s5, s11
 2798 055c 83EE256A 		vdiv.f32	s12, s6, s11
 2799 0560 F4EEC44A 		vcmpe.f32	s9, s8
 2800 0564 66EEA36A 		vmul.f32	s13, s13, s7
 2801 0568 F1EE10FA 		vmrs	APSR_nzcv, FPSCR
 2802 056c C0ED006A 		vstr.32	s13, [r0]
 2803 0570 81ED005A 		vstr.32	s10, [r1]
 2804 0574 82ED006A 		vstr.32	s12, [r2]
 2805 0578 00F12481 		bmi	.L407
 2806 057c DFEDC75A 		vldr.32	s11, .L464+44
ARM GAS  /var/folders/lg/77ksxqjx0n7gwph6nqpzcmcw0000gn/T//ccn5JkAm.s 			page 49


 2807 0580 F4EEE54A 		vcmpe.f32	s9, s11
 2808 0584 F1EE10FA 		vmrs	APSR_nzcv, FPSCR
 2809 0588 00F3E581 		bgt	.L431
 2810 058c 75EEE47A 		vsub.f32	s15, s11, s9
 2811 0590 87EEA56A 		vdiv.f32	s12, s15, s11
 2812              	.L408:
 2813 0594 9FEDC25A 		vldr.32	s10, .L464+48
 2814 0598 DFEDC05A 		vldr.32	s11, .L464+44
 2815 059c F0EE617A 		vmov.f32	s15, s3
 2816 05a0 B0EE417A 		vmov.f32	s14, s2
 2817 05a4 F4EEE54A 		vcmpe.f32	s9, s11
 2818 05a8 E1EE067A 		vfma.f32	s15, s2, s12
 2819 05ac A1EE867A 		vfma.f32	s14, s3, s12
 2820 05b0 66EEA11A 		vmul.f32	s3, s13, s3
 2821 05b4 66EE816A 		vmul.f32	s13, s13, s2
 2822 05b8 F1EE10FA 		vmrs	APSR_nzcv, FPSCR
 2823 05bc 29EE219A 		vmul.f32	s18, s18, s3
 2824 05c0 77EEA17A 		vadd.f32	s15, s15, s3
 2825 05c4 68EEA68A 		vmul.f32	s17, s17, s13
 2826 05c8 37EE267A 		vadd.f32	s14, s14, s13
 2827 05cc E9EE057A 		vfma.f32	s15, s18, s10
 2828 05d0 A8EE857A 		vfma.f32	s14, s17, s10
 2829 05d4 E7EE067A 		vfma.f32	s15, s14, s12
 2830 05d8 00F3C081 		bgt	.L432
 2831 05dc 75EEE46A 		vsub.f32	s13, s11, s9
 2832 05e0 86EEA55A 		vdiv.f32	s10, s13, s11
 2833              	.L409:
 2834 05e4 A7EE857A 		vfma.f32	s14, s15, s10
 2835 05e8 B7EEE76A 		vcvt.f64.f32	d6, s15
 2836 05ec 9FEDA05B 		vldr.64	d5, .L464
 2837 05f0 B4EEC56B 		vcmpe.f64	d6, d5
 2838 05f4 F1EE10FA 		vmrs	APSR_nzcv, FPSCR
 2839 05f8 21DD     		ble	.L410
 2840 05fa DFEDAA6A 		vldr.32	s13, .L464+52
 2841 05fe 9FEDAA6A 		vldr.32	s12, .L464+56
 2842 0602 77EEE66A 		vsub.f32	s13, s15, s13
 2843 0606 9FEDA95A 		vldr.32	s10, .L464+60
 2844 060a DFEDA95A 		vldr.32	s11, .L464+64
 2845 060e 66EE866A 		vmul.f32	s13, s13, s12
 2846 0612 86EE856A 		vdiv.f32	s12, s13, s10
 2847 0616 76EE256A 		vadd.f32	s13, s12, s11
 2848 061a 77EEE67A 		vsub.f32	s15, s15, s13
 2849 061e F4EEE57A 		vcmpe.f32	s15, s11
 2850 0622 F1EE10FA 		vmrs	APSR_nzcv, FPSCR
 2851 0626 00F1AF81 		bmi	.L433
 2852 062a F7EE006A 		vmov.f32	s13, #1.0e+0
 2853 062e F4EEE67A 		vcmpe.f32	s15, s13
 2854 0632 F1EE10FA 		vmrs	APSR_nzcv, FPSCR
 2855 0636 00F3B681 		bgt	.L434
 2856 063a B7EEE76A 		vcvt.f64.f32	d6, s15
 2857              	.L410:
 2858 063e B7EEC75A 		vcvt.f64.f32	d5, s14
 2859 0642 9FED8B4B 		vldr.64	d4, .L464
 2860 0646 B4EEC45B 		vcmpe.f64	d5, d4
 2861 064a F1EE10FA 		vmrs	APSR_nzcv, FPSCR
 2862 064e 21DD     		ble	.L413
 2863              	.L425:
ARM GAS  /var/folders/lg/77ksxqjx0n7gwph6nqpzcmcw0000gn/T//ccn5JkAm.s 			page 50


 2864 0650 DFED945A 		vldr.32	s11, .L464+52
 2865 0654 9FED945A 		vldr.32	s10, .L464+56
 2866 0658 77EE655A 		vsub.f32	s11, s14, s11
 2867 065c 9FED934A 		vldr.32	s8, .L464+60
 2868 0660 DFED934A 		vldr.32	s9, .L464+64
 2869 0664 65EE855A 		vmul.f32	s11, s11, s10
 2870 0668 85EE845A 		vdiv.f32	s10, s11, s8
 2871 066c 75EE245A 		vadd.f32	s11, s10, s9
 2872 0670 37EE657A 		vsub.f32	s14, s14, s11
 2873 0674 B4EEE47A 		vcmpe.f32	s14, s9
 2874 0678 F1EE10FA 		vmrs	APSR_nzcv, FPSCR
 2875 067c 00F17781 		bmi	.L435
 2876 0680 F7EE005A 		vmov.f32	s11, #1.0e+0
 2877 0684 B4EEE57A 		vcmpe.f32	s14, s11
 2878 0688 F1EE10FA 		vmrs	APSR_nzcv, FPSCR
 2879 068c 00F38E81 		bgt	.L436
 2880 0690 B7EEC75A 		vcvt.f64.f32	d5, s14
 2881              	.L413:
 2882 0694 9FED784B 		vldr.64	d4, .L464+8
 2883 0698 B4EEC46B 		vcmpe.f64	d6, d4
 2884 069c F1EE10FA 		vmrs	APSR_nzcv, FPSCR
 2885 06a0 1ED5     		bpl	.L416
 2886              	.L423:
 2887 06a2 F2EE046A 		vmov.f32	s13, #1.0e+1
 2888 06a6 DFED804A 		vldr.32	s9, .L464+56
 2889 06aa DFED803A 		vldr.32	s7, .L464+60
 2890 06ae BFEE004A 		vmov.f32	s8, #-1.0e+0
 2891 06b2 77EEA66A 		vadd.f32	s13, s15, s13
 2892 06b6 66EEA46A 		vmul.f32	s13, s13, s9
 2893 06ba 86EEA36A 		vdiv.f32	s12, s13, s7
 2894 06be 76EE646A 		vsub.f32	s13, s12, s9
 2895 06c2 77EEE67A 		vsub.f32	s15, s15, s13
 2896 06c6 F4EEC47A 		vcmpe.f32	s15, s8
 2897 06ca F1EE10FA 		vmrs	APSR_nzcv, FPSCR
 2898 06ce 00F14B81 		bmi	.L437
 2899 06d2 F5EEC07A 		vcmpe.f32	s15, #0
 2900 06d6 F1EE10FA 		vmrs	APSR_nzcv, FPSCR
 2901 06da 01DD     		ble	.L416
 2902 06dc DFED747A 		vldr.32	s15, .L464+64
 2903              	.L416:
 2904 06e0 9FED656B 		vldr.64	d6, .L464+8
 2905 06e4 B4EEC65B 		vcmpe.f64	d5, d6
 2906 06e8 F1EE10FA 		vmrs	APSR_nzcv, FPSCR
 2907 06ec 1ED5     		bpl	.L419
 2908 06ee F2EE046A 		vmov.f32	s13, #1.0e+1
 2909 06f2 DFED6D5A 		vldr.32	s11, .L464+56
 2910 06f6 DFED6D4A 		vldr.32	s9, .L464+60
 2911 06fa BFEE005A 		vmov.f32	s10, #-1.0e+0
 2912 06fe 77EE266A 		vadd.f32	s13, s14, s13
 2913 0702 66EEA56A 		vmul.f32	s13, s13, s11
 2914 0706 86EEA46A 		vdiv.f32	s12, s13, s9
 2915 070a 76EE656A 		vsub.f32	s13, s12, s11
 2916 070e 37EE667A 		vsub.f32	s14, s14, s13
 2917 0712 B4EEC57A 		vcmpe.f32	s14, s10
 2918 0716 F1EE10FA 		vmrs	APSR_nzcv, FPSCR
 2919 071a 00F12281 		bmi	.L438
 2920 071e B5EEC07A 		vcmpe.f32	s14, #0
ARM GAS  /var/folders/lg/77ksxqjx0n7gwph6nqpzcmcw0000gn/T//ccn5JkAm.s 			page 51


 2921 0722 F1EE10FA 		vmrs	APSR_nzcv, FPSCR
 2922 0726 01DD     		ble	.L419
 2923 0728 9FED617A 		vldr.32	s14, .L464+64
 2924              	.L419:
 2925 072c 5C68     		ldr	r4, [r3, #4]
 2926 072e DAF80450 		ldr	r5, [r10, #4]
 2927 0732 6048     		ldr	r0, .L464+68
 2928 0734 03EB8407 		add	r7, r3, r4, lsl #2
 2929 0738 5F4A     		ldr	r2, .L464+72
 2930 073a 0444     		add	r4, r4, r0
 2931 073c 2844     		add	r0, r0, r5
 2932 073e 5F4E     		ldr	r6, .L464+76
 2933 0740 0AEB8505 		add	r5, r10, r5, lsl #2
 2934 0744 A2FB04C1 		umull	ip, r1, r2, r4
 2935 0748 A2FB00C2 		umull	ip, r2, r2, r0
 2936 074c C90B     		lsrs	r1, r1, #15
 2937 074e C7ED037A 		vstr.32	s15, [r7, #12]
 2938 0752 D20B     		lsrs	r2, r2, #15
 2939 0754 85ED037A 		vstr.32	s14, [r5, #12]
 2940 0758 06FB1141 		mls	r1, r6, r1, r4
 2941 075c 06FB1202 		mls	r2, r6, r2, r0
 2942 0760 5960     		str	r1, [r3, #4]
 2943 0762 CAF80420 		str	r2, [r10, #4]
 2944 0766 05B0     		add	sp, sp, #20
 2945              		@ sp needed
 2946 0768 BDEC068B 		vldm	sp!, {d8-d10}
 2947 076c BDE8F08F 		pop	{r4, r5, r6, r7, r8, r9, r10, fp, pc}
 2948              	.L452:
 2949 0770 37EE677A 		vsub.f32	s14, s14, s15
 2950 0774 DFED526A 		vldr.32	s13, .L464+80
 2951 0778 E7EE267A 		vfma.f32	s15, s14, s13
 2952 077c 7DE4     		b	.L390
 2953              	.L453:
 2954 077e 30EE007A 		vadd.f32	s14, s0, s0
 2955 0782 B6EE000A 		vmov.f32	s0, #5.0e-1
 2956 0786 27EE000A 		vmul.f32	s0, s14, s0
 2957 078a B5EE400A 		vcmp.f32	s0, #0
 2958 078e B1EEC06A 		vsqrt.f32	s12, s0
 2959 0792 F1EE10FA 		vmrs	APSR_nzcv, FPSCR
 2960 0796 00F10C81 		bmi	.L454
 2961 079a B0EE000A 		vmov.f32	s0, #2.0e+0
 2962 079e DFED496A 		vldr.32	s13, .L464+84
 2963 07a2 30EE470A 		vsub.f32	s0, s0, s14
 2964 07a6 20EE260A 		vmul.f32	s0, s0, s13
 2965 07aa 70E5     		b	.L400
 2966              	.L430:
 2967 07ac DFED407A 		vldr.32	s15, .L464+64
 2968 07b0 B4E6     		b	.L406
 2969              	.L428:
 2970 07b2 B0EE6AAA 		vmov.f32	s20, s21
 2971 07b6 06E5     		b	.L393
 2972              	.L427:
 2973 07b8 B0EE66AA 		vmov.f32	s20, s13
 2974 07bc 88E4     		b	.L391
 2975              	.L429:
 2976 07be DFED427A 		vldr.32	s15, .L464+88
 2977 07c2 ABE6     		b	.L406
ARM GAS  /var/folders/lg/77ksxqjx0n7gwph6nqpzcmcw0000gn/T//ccn5JkAm.s 			page 52


 2978              	.L407:
 2979 07c4 26EEA17A 		vmul.f32	s14, s13, s3
 2980 07c8 DFED3F5A 		vldr.32	s11, .L464+88
 2981 07cc 26EE816A 		vmul.f32	s12, s13, s2
 2982 07d0 DFED334A 		vldr.32	s9, .L464+48
 2983 07d4 F0EE617A 		vmov.f32	s15, s3
 2984 07d8 F0EE416A 		vmov.f32	s13, s2
 2985 07dc 29EE079A 		vmul.f32	s18, s18, s14
 2986 07e0 E1EE257A 		vfma.f32	s15, s2, s11
 2987 07e4 E1EEA56A 		vfma.f32	s13, s3, s11
 2988 07e8 68EE868A 		vmul.f32	s17, s17, s12
 2989 07ec B0EE655A 		vmov.f32	s10, s11
 2990 07f0 77EE877A 		vadd.f32	s15, s15, s14
 2991 07f4 36EE867A 		vadd.f32	s14, s13, s12
 2992 07f8 E9EE247A 		vfma.f32	s15, s18, s9
 2993 07fc A8EEA47A 		vfma.f32	s14, s17, s9
 2994 0800 E7EE257A 		vfma.f32	s15, s14, s11
 2995 0804 EEE6     		b	.L409
 2996              	.L382:
 2997 0806 D3F8C010 		ldr	r1, [r3, #192]
 2998 080a 0029     		cmp	r1, #0
 2999 080c 40F3E980 		ble	.L426
 3000 0810 1A46     		mov	r2, r3
 3001 0812 03EB8100 		add	r0, r3, r1, lsl #2
 3002 0816 DFED267A 		vldr.32	s15, .L464+64
 3003              	.L385:
 3004 081a B2EC017A 		vldmia.32	r2!, {s14}
 3005 081e 9042     		cmp	r0, r2
 3006 0820 77EE877A 		vadd.f32	s15, s15, s14
 3007 0824 F9D1     		bne	.L385
 3008              	.L384:
 3009 0826 07EE101A 		vmov	s14, r1	@ int
 3010 082a B8EEC77A 		vcvt.f32.s32	s14, s14
 3011 082e 87EE870A 		vdiv.f32	s0, s15, s14
 3012 0832 B5EE400A 		vcmp.f32	s0, #0
 3013 0836 F1EEC08A 		vsqrt.f32	s17, s0
 3014 083a F1EE10FA 		vmrs	APSR_nzcv, FPSCR
 3015 083e 00F1EC80 		bmi	.L460
 3016              	.L386:
 3017 0842 224A     		ldr	r2, .L464+92
 3018 0844 02F1C000 		add	r0, r2, #192
 3019              	.L387:
 3020 0848 0021     		movs	r1, #0
 3021 084a 42F8041B 		str	r1, [r2], #4	@ float
 3022 084e 9042     		cmp	r0, r2
 3023 0850 FAD1     		bne	.L387
 3024 0852 1F4A     		ldr	r2, .L464+96
 3025 0854 F2EE047A 		vmov.f32	s15, #1.0e+1
 3026 0858 1E49     		ldr	r1, .L464+100
 3027 085a 92ED007A 		vldr.32	s14, [r2]
 3028 085e 0122     		movs	r2, #1
 3029 0860 28EE877A 		vmul.f32	s14, s17, s14
 3030 0864 27EE277A 		vmul.f32	s14, s14, s15
 3031 0868 81ED007A 		vstr.32	s14, [r1]
 3032 086c FFF7EDBB 		b	.L383
 3033              	.L465:
 3034              		.align	3
ARM GAS  /var/folders/lg/77ksxqjx0n7gwph6nqpzcmcw0000gn/T//ccn5JkAm.s 			page 53


 3035              	.L464:
 3036 0870 9A999999 		.word	2576980378
 3037 0874 9999D93F 		.word	1071225241
 3038 0878 9A999999 		.word	2576980378
 3039 087c 9999D9BF 		.word	-1076258407
 3040 0880 00000000 		.word	.LANCHOR38
 3041 0884 00000000 		.word	.LANCHOR65
 3042 0888 0C73C602 		.word	_ZL4dell
 3043 088c 00009643 		.word	1133903872
 3044 0890 00000000 		.word	.LANCHOR66
 3045 0894 00000000 		.word	.LANCHOR67
 3046 0898 C3F5A83E 		.word	1051260355
 3047 089c 00004843 		.word	1128792064
 3048 08a0 0AD7233C 		.word	1008981770
 3049 08a4 CDCCCC3E 		.word	1053609165
 3050 08a8 9A99193F 		.word	1058642330
 3051 08ac 9A991941 		.word	1092196762
 3052 08b0 00000000 		.word	0
 3053 08b4 BFD40100 		.word	119999
 3054 08b8 73B2E745 		.word	1172812403
 3055 08bc C0D40100 		.word	120000
 3056 08c0 CDCC4C3D 		.word	1028443341
 3057 08c4 3333733F 		.word	1064514355
 3058 08c8 6666663F 		.word	1063675494
 3059 08cc 00000000 		.word	.LANCHOR53
 3060 08d0 00000000 		.word	.LANCHOR54
 3061 08d4 00000000 		.word	.LANCHOR52
 3062              	.L395:
 3063 08d8 0023     		movs	r3, #0
 3064 08da 0A22     		movs	r2, #10
 3065 08dc CAF81C30 		str	r3, [r10, #28]	@ float
 3066 08e0 CAF82030 		str	r3, [r10, #32]	@ float
 3067 08e4 CAF82430 		str	r3, [r10, #36]	@ float
 3068 08e8 CAF82830 		str	r3, [r10, #40]	@ float
 3069 08ec CAF82C30 		str	r3, [r10, #44]	@ float
 3070 08f0 CAF83030 		str	r3, [r10, #48]	@ float
 3071 08f4 CAE90122 		strd	r2, r2, [r10, #4]
 3072 08f8 FFF7FEFF 		bl	rand
 3073 08fc 4E49     		ldr	r1, .L466+16
 3074 08fe 0B68     		ldr	r3, [r1]
 3075 0900 90FBF3F2 		sdiv	r2, r0, r3
 3076 0904 02FB1303 		mls	r3, r2, r3, r0
 3077 0908 07EE903A 		vmov	s15, r3	@ int
 3078 090c B8EEE7AA 		vcvt.f32.s32	s20, s15
 3079 0910 FFF7FEFF 		bl	rand
 3080 0914 494A     		ldr	r2, .L466+20
 3081 0916 B1EE046A 		vmov.f32	s12, #5.0e+0
 3082 091a 4749     		ldr	r1, .L466+16
 3083 091c D2ED007A 		vldr.32	s15, [r2]
 3084 0920 0B68     		ldr	r3, [r1]
 3085 0922 6AEE277A 		vmul.f32	s15, s20, s15
 3086 0926 9FED467A 		vldr.32	s14, .L466+24
 3087 092a 4649     		ldr	r1, .L466+28
 3088 092c DFF828C1 		ldr	ip, .L466+48
 3089 0930 C7EE866A 		vdiv.f32	s13, s15, s12
 3090 0934 90FBF3F2 		sdiv	r2, r0, r3
 3091 0938 02FB1300 		mls	r0, r2, r3, r0
ARM GAS  /var/folders/lg/77ksxqjx0n7gwph6nqpzcmcw0000gn/T//ccn5JkAm.s 			page 54


 3092 093c 07EE900A 		vmov	s15, r0	@ int
 3093 0940 CBF80000 		str	r0, [fp]
 3094 0944 F8EEE75A 		vcvt.f32.s32	s11, s15
 3095 0948 76EE876A 		vadd.f32	s13, s13, s14
 3096 094c CCED005A 		vstr.32	s11, [ip]
 3097 0950 C1ED006A 		vstr.32	s13, [r1]
 3098 0954 57E4     		b	.L396
 3099              	.L431:
 3100 0956 9FED3C6A 		vldr.32	s12, .L466+32
 3101 095a 1BE6     		b	.L408
 3102              	.L432:
 3103 095c 9FED3A5A 		vldr.32	s10, .L466+32
 3104 0960 40E6     		b	.L409
 3105              	.L438:
 3106 0962 B0EE457A 		vmov.f32	s14, s10
 3107 0966 E1E6     		b	.L419
 3108              	.L437:
 3109 0968 F0EE447A 		vmov.f32	s15, s8
 3110 096c B8E6     		b	.L416
 3111              	.L435:
 3112 096e B0EE647A 		vmov.f32	s14, s9
 3113              	.L415:
 3114 0972 9FED2D5B 		vldr.64	d5, .L466
 3115 0976 B4EEC56B 		vcmpe.f64	d6, d5
 3116 097a F1EE10FA 		vmrs	APSR_nzcv, FPSCR
 3117 097e 7FF5D5AE 		bpl	.L419
 3118 0982 B7EEC75A 		vcvt.f64.f32	d5, s14
 3119 0986 8CE6     		b	.L423
 3120              	.L433:
 3121 0988 F0EE657A 		vmov.f32	s15, s11
 3122              	.L412:
 3123 098c B7EEC75A 		vcvt.f64.f32	d5, s14
 3124 0990 9FED276B 		vldr.64	d6, .L466+8
 3125 0994 B4EEC65B 		vcmpe.f64	d5, d6
 3126 0998 F1EE10FA 		vmrs	APSR_nzcv, FPSCR
 3127 099c 7FF7A0AE 		ble	.L416
 3128 09a0 B7EEE76A 		vcvt.f64.f32	d6, s15
 3129 09a4 54E6     		b	.L425
 3130              	.L434:
 3131 09a6 F0EE667A 		vmov.f32	s15, s13
 3132 09aa EFE7     		b	.L412
 3133              	.L436:
 3134 09ac B0EE657A 		vmov.f32	s14, s11
 3135 09b0 DFE7     		b	.L415
 3136              	.L454:
 3137 09b2 8DED016A 		vstr.32	s12, [sp, #4]	@ int
 3138 09b6 FFF7FEFF 		bl	sqrtf
 3139 09ba 2448     		ldr	r0, .L466+36
 3140 09bc F0EE007A 		vmov.f32	s15, #2.0e+0
 3141 09c0 234B     		ldr	r3, .L466+40
 3142 09c2 D0ED006A 		vldr.32	s13, [r0]
 3143 09c6 9FED237A 		vldr.32	s14, .L466+44
 3144 09ca E6EEE77A 		vfms.f32	s15, s13, s15
 3145 09ce 9A68     		ldr	r2, [r3, #8]
 3146 09d0 9DED016A 		vldr.32	s12, [sp, #4]	@ int
 3147 09d4 B0EE670A 		vmov.f32	s0, s15
 3148 09d8 D3ED007A 		vldr.32	s15, [r3]
ARM GAS  /var/folders/lg/77ksxqjx0n7gwph6nqpzcmcw0000gn/T//ccn5JkAm.s 			page 55


 3149 09dc 20EE070A 		vmul.f32	s0, s0, s14
 3150 09e0 55E4     		b	.L400
 3151              	.L426:
 3152 09e2 DFED197A 		vldr.32	s15, .L466+32
 3153 09e6 1EE7     		b	.L384
 3154              	.L458:
 3155 09e8 B0EE670A 		vmov.f32	s0, s15
 3156 09ec FFF7FEFF 		bl	sqrtf
 3157 09f0 1648     		ldr	r0, .L466+36
 3158 09f2 90ED000A 		vldr.32	s0, [r0]
 3159 09f6 30EE007A 		vadd.f32	s14, s0, s0
 3160 09fa 85E4     		b	.L404
 3161              	.L457:
 3162 09fc 8DED017A 		vstr.32	s14, [sp, #4]	@ int
 3163 0a00 FFF7FEFF 		bl	sqrtf
 3164 0a04 1148     		ldr	r0, .L466+36
 3165 0a06 9DED017A 		vldr.32	s14, [sp, #4]	@ int
 3166 0a0a 69E4     		b	.L403
 3167              	.L459:
 3168 0a0c CDED017A 		vstr.32	s15, [sp, #4]	@ int
 3169 0a10 FFF7FEFF 		bl	sqrtf
 3170 0a14 DDED017A 		vldr.32	s15, [sp, #4]	@ int
 3171 0a18 AAE4     		b	.L405
 3172              	.L460:
 3173 0a1a 0193     		str	r3, [sp, #4]
 3174 0a1c FFF7FEFF 		bl	sqrtf
 3175 0a20 019B     		ldr	r3, [sp, #4]
 3176 0a22 0EE7     		b	.L386
 3177              	.L467:
 3178 0a24 AFF30080 		.align	3
 3179              	.L466:
 3180 0a28 9A999999 		.word	2576980378
 3181 0a2c 9999D9BF 		.word	-1076258407
 3182 0a30 9A999999 		.word	2576980378
 3183 0a34 9999D93F 		.word	1071225241
 3184 0a38 00000000 		.word	.LANCHOR58
 3185 0a3c 00000000 		.word	.LANCHOR62
 3186 0a40 6F12833A 		.word	981668463
 3187 0a44 00000000 		.word	.LANCHOR60
 3188 0a48 00000000 		.word	0
 3189 0a4c 00000000 		.word	.LANCHOR64
 3190 0a50 0C73C602 		.word	_ZL4dell
 3191 0a54 3333733F 		.word	1064514355
 3192 0a58 00000000 		.word	.LANCHOR61
 3194              		.section	.text._Z17ResetLooperBufferv,"ax",%progbits
 3195              		.align	1
 3196              		.p2align 2,,3
 3197              		.global	_Z17ResetLooperBufferv
 3198              		.syntax unified
 3199              		.thumb
 3200              		.thumb_func
 3201              		.fpu fpv5-d16
 3203              	_Z17ResetLooperBufferv:
 3204              		@ args = 0, pretend = 0, frame = 0
 3205              		@ frame_needed = 0, uses_anonymous_args = 0
 3206              		@ link register save eliminated.
 3207 0000 0023     		movs	r3, #0
ARM GAS  /var/folders/lg/77ksxqjx0n7gwph6nqpzcmcw0000gn/T//ccn5JkAm.s 			page 56


 3208 0002 144A     		ldr	r2, .L472
 3209 0004 1448     		ldr	r0, .L472+4
 3210 0006 1549     		ldr	r1, .L472+8
 3211 0008 30B4     		push	{r4, r5}
 3212 000a 1370     		strb	r3, [r2]
 3213 000c 144C     		ldr	r4, .L472+12
 3214 000e 154D     		ldr	r5, .L472+16
 3215 0010 154A     		ldr	r2, .L472+20
 3216 0012 2360     		str	r3, [r4]
 3217 0014 0360     		str	r3, [r0]
 3218 0016 0B60     		str	r3, [r1]
 3219 0018 144C     		ldr	r4, .L472+24
 3220 001a 1548     		ldr	r0, .L472+28
 3221 001c 1549     		ldr	r1, .L472+32
 3222 001e 2B60     		str	r3, [r5]
 3223 0020 0025     		movs	r5, #0
 3224 0022 1360     		str	r3, [r2]
 3225 0024 144B     		ldr	r3, .L472+36
 3226 0026 2560     		str	r5, [r4]	@ float
 3227 0028 0560     		str	r5, [r0]	@ float
 3228 002a 0D60     		str	r5, [r1]	@ float
 3229 002c 1D60     		str	r5, [r3]	@ float
 3230 002e 134A     		ldr	r2, .L472+40
 3231 0030 134C     		ldr	r4, .L472+44
 3232 0032 1448     		ldr	r0, .L472+48
 3233 0034 1449     		ldr	r1, .L472+52
 3234 0036 154D     		ldr	r5, .L472+56
 3235              	.L469:
 3236 0038 0023     		movs	r3, #0
 3237 003a 42F8043B 		str	r3, [r2], #4	@ float
 3238 003e AA42     		cmp	r2, r5
 3239 0040 44F8043B 		str	r3, [r4], #4	@ float
 3240 0044 40F8043B 		str	r3, [r0], #4	@ float
 3241 0048 41F8043B 		str	r3, [r1], #4	@ float
 3242 004c F4D1     		bne	.L469
 3243 004e 30BC     		pop	{r4, r5}
 3244 0050 7047     		bx	lr
 3245              	.L473:
 3246 0052 00BF     		.align	2
 3247              	.L472:
 3248 0054 00000000 		.word	.LANCHOR68
 3249 0058 00000000 		.word	.LANCHOR75
 3250 005c 00000000 		.word	.LANCHOR76
 3251 0060 00000000 		.word	.LANCHOR73
 3252 0064 00000000 		.word	.LANCHOR74
 3253 0068 00000000 		.word	.LANCHOR77
 3254 006c 00000000 		.word	.LANCHOR69
 3255 0070 00000000 		.word	.LANCHOR70
 3256 0074 00000000 		.word	.LANCHOR71
 3257 0078 00000000 		.word	.LANCHOR72
 3258 007c 00000000 		.word	mlooper_buf_1l
 3259 0080 00000000 		.word	mlooper_buf_1r
 3260 0084 00000000 		.word	mlooper_frozen_buf_1l
 3261 0088 00000000 		.word	mlooper_frozen_buf_1r
 3262 008c 00C8AF00 		.word	mlooper_buf_1l+11520000
 3264              		.section	.text.startup.main,"ax",%progbits
 3265              		.align	1
ARM GAS  /var/folders/lg/77ksxqjx0n7gwph6nqpzcmcw0000gn/T//ccn5JkAm.s 			page 57


 3266              		.p2align 2,,3
 3267              		.global	main
 3268              		.syntax unified
 3269              		.thumb
 3270              		.thumb_func
 3271              		.fpu fpv5-d16
 3273              	main:
 3274              		@ args = 0, pretend = 0, frame = 32
 3275              		@ frame_needed = 0, uses_anonymous_args = 0
 3276 0000 2DE9F04F 		push	{r4, r5, r6, r7, r8, r9, r10, fp, lr}
 3277 0004 0121     		movs	r1, #1
 3278 0006 C848     		ldr	r0, .L495
 3279 0008 2DED048B 		vpush.64	{d8, d9}
 3280 000c 89B0     		sub	sp, sp, #36
 3281 000e FFF7FEFF 		bl	_ZN5daisy11DaisyVersio4InitEb
 3282 0012 C548     		ldr	r0, .L495
 3283 0014 FFF7FEFF 		bl	_ZN5daisy11DaisyVersio15AudioSampleRateEv
 3284 0018 C448     		ldr	r0, .L495+4
 3285 001a F0EE408A 		vmov.f32	s17, s0
 3286 001e FFF7FEFF 		bl	_ZN7daisysp8ReverbSc4InitEf
 3287 0022 C34B     		ldr	r3, .L495+8
 3288 0024 C349     		ldr	r1, .L495+12
 3289              	.L475:
 3290 0026 0022     		movs	r2, #0
 3291 0028 43F8042B 		str	r2, [r3], #4	@ float
 3292 002c 8B42     		cmp	r3, r1
 3293 002e FAD1     		bne	.L475
 3294 0030 C14F     		ldr	r7, .L495+16
 3295 0032 0020     		movs	r0, #0
 3296 0034 0121     		movs	r1, #1
 3297 0036 C14B     		ldr	r3, .L495+20
 3298 0038 C14A     		ldr	r2, .L495+24
 3299 003a C7E90101 		strd	r0, r1, [r7, #4]
 3300              	.L476:
 3301 003e 9FEDC18A 		vldr.32	s16, .L495+28
 3302 0042 A3EC018A 		vstmia.32	r3!, {s16}
 3303 0046 9342     		cmp	r3, r2
 3304 0048 F9D1     		bne	.L476
 3305 004a 0123     		movs	r3, #1
 3306 004c 0024     		movs	r4, #0
 3307 004e DFF89C83 		ldr	r8, .L495+196
 3308 0052 B0EE680A 		vmov.f32	s0, s17
 3309 0056 BC48     		ldr	r0, .L495+32
 3310 0058 4FF07C59 		mov	r9, #1056964608
 3311 005c C8F80830 		str	r3, [r8, #8]
 3312 0060 01AD     		add	r5, sp, #4
 3313 0062 C8F80440 		str	r4, [r8, #4]
 3314 0066 FFF7FEFF 		bl	_ZN7daisysp4Tone4InitEf
 3315 006a B0EE680A 		vmov.f32	s0, s17
 3316 006e B748     		ldr	r0, .L495+36
 3317 0070 FFF7FEFF 		bl	_ZN7daisysp4Tone4InitEf
 3318 0074 B0EE680A 		vmov.f32	s0, s17
 3319 0078 B548     		ldr	r0, .L495+40
 3320 007a 4FF0FF3B 		mov	fp, #-1
 3321 007e FFF7FEFF 		bl	_ZN7daisysp3Svf4InitEf
 3322 0082 B0EE480A 		vmov.f32	s0, s16
 3323 0086 B248     		ldr	r0, .L495+40
ARM GAS  /var/folders/lg/77ksxqjx0n7gwph6nqpzcmcw0000gn/T//ccn5JkAm.s 			page 58


 3324 0088 FFF7FEFF 		bl	_ZN7daisysp3Svf7SetFreqEf
 3325 008c 00EE109A 		vmov	s0, r9
 3326 0090 AF48     		ldr	r0, .L495+40
 3327 0092 FFF7FEFF 		bl	_ZN7daisysp3Svf6SetResEf
 3328 0096 B0EE680A 		vmov.f32	s0, s17
 3329 009a AE48     		ldr	r0, .L495+44
 3330 009c FFF7FEFF 		bl	_ZN7daisysp3Svf4InitEf
 3331 00a0 B0EE480A 		vmov.f32	s0, s16
 3332 00a4 AB48     		ldr	r0, .L495+44
 3333 00a6 FFF7FEFF 		bl	_ZN7daisysp3Svf7SetFreqEf
 3334 00aa 00EE109A 		vmov	s0, r9
 3335 00ae A948     		ldr	r0, .L495+44
 3336 00b0 FFF7FEFF 		bl	_ZN7daisysp3Svf6SetResEf
 3337 00b4 A84E     		ldr	r6, .L495+48
 3338 00b6 A94A     		ldr	r2, .L495+52
 3339 00b8 B0EE680A 		vmov.f32	s0, s17
 3340 00bc A84B     		ldr	r3, .L495+56
 3341 00be 3046     		mov	r0, r6
 3342 00c0 DFF82CE3 		ldr	lr, .L495+200
 3343 00c4 DFF82CC3 		ldr	ip, .L495+204
 3344 00c8 A649     		ldr	r1, .L495+60
 3345 00ca 82ED048A 		vstr.32	s16, [r2, #16]
 3346 00ce 82ED038A 		vstr.32	s16, [r2, #12]
 3347 00d2 83ED048A 		vstr.32	s16, [r3, #16]
 3348 00d6 83ED038A 		vstr.32	s16, [r3, #12]
 3349 00da C2F800E0 		str	lr, [r2]	@ float
 3350 00de C3F800E0 		str	lr, [r3]	@ float
 3351 00e2 C2F804C0 		str	ip, [r2, #4]	@ float
 3352 00e6 C3F804C0 		str	ip, [r3, #4]	@ float
 3353 00ea 9160     		str	r1, [r2, #8]	@ float
 3354 00ec 9960     		str	r1, [r3, #8]	@ float
 3355 00ee FFF7FEFF 		bl	_ZN7daisysp6Biquad4InitEf
 3356 00f2 3046     		mov	r0, r6
 3357 00f4 86ED018A 		vstr.32	s16, [r6, #4]
 3358 00f8 FFF7FEFF 		bl	_ZN7daisysp6Biquad5ResetEv
 3359 00fc 3046     		mov	r0, r6
 3360 00fe C6F80890 		str	r9, [r6, #8]	@ float
 3361 0102 FFF7FEFF 		bl	_ZN7daisysp6Biquad5ResetEv
 3362 0106 984B     		ldr	r3, .L495+64
 3363 0108 B0EE680A 		vmov.f32	s0, s17
 3364 010c 9748     		ldr	r0, .L495+68
 3365 010e C3ED008A 		vstr.32	s17, [r3]
 3366 0112 FFF7FEFF 		bl	_ZN7daisysp7DcBlock4InitEf
 3367 0116 B0EE680A 		vmov.f32	s0, s17
 3368 011a 9548     		ldr	r0, .L495+72
 3369 011c FFF7FEFF 		bl	_ZN7daisysp7DcBlock4InitEf
 3370 0120 B0EE680A 		vmov.f32	s0, s17
 3371 0124 9348     		ldr	r0, .L495+76
 3372 0126 FFF7FEFF 		bl	_ZN7daisysp7DcBlock4InitEf
 3373 012a B0EE680A 		vmov.f32	s0, s17
 3374 012e 9248     		ldr	r0, .L495+80
 3375 0130 FFF7FEFF 		bl	_ZN7daisysp7DcBlock4InitEf
 3376 0134 9149     		ldr	r1, .L495+84
 3377 0136 924A     		ldr	r2, .L495+88
 3378 0138 924B     		ldr	r3, .L495+92
 3379 013a C1F80090 		str	r9, [r1]	@ float
 3380 013e C2F80090 		str	r9, [r2]	@ float
ARM GAS  /var/folders/lg/77ksxqjx0n7gwph6nqpzcmcw0000gn/T//ccn5JkAm.s 			page 59


 3381 0142 C3ED008A 		vstr.32	s17, [r3]
 3382 0146 9048     		ldr	r0, .L495+96
 3383 0148 9049     		ldr	r1, .L495+100
 3384 014a 914A     		ldr	r2, .L495+104
 3385 014c 914B     		ldr	r3, .L495+108
 3386 014e 924E     		ldr	r6, .L495+112
 3387 0150 C0ED008A 		vstr.32	s17, [r0]
 3388 0154 81ED008A 		vstr.32	s16, [r1]
 3389 0158 82ED008A 		vstr.32	s16, [r2]
 3390 015c 83ED008A 		vstr.32	s16, [r3]
 3391 0160 DFF894E2 		ldr	lr, .L495+208
 3392 0164 DFF894C2 		ldr	ip, .L495+212
 3393 0168 DFF894A2 		ldr	r10, .L495+216
 3394 016c DFED8B0A 		vldr.32	s1, .L495+116
 3395 0170 9FED8B0A 		vldr.32	s0, .L495+120
 3396 0174 CAF80090 		str	r9, [r10]	@ float
 3397 0178 4FF07E5A 		mov	r10, #1065353216
 3398 017c CEF80090 		str	r9, [lr]	@ float
 3399 0180 CCED008A 		vstr.32	s17, [ip]
 3400 0184 0FCE     		ldmia	r6!, {r0, r1, r2, r3}
 3401 0186 0FC5     		stmia	r5!, {r0, r1, r2, r3}
 3402 0188 96E80700 		ldm	r6, {r0, r1, r2}
 3403 018c 85E80700 		stm	r5, {r0, r1, r2}
 3404 0190 01A9     		add	r1, sp, #4
 3405 0192 0222     		movs	r2, #2
 3406 0194 8348     		ldr	r0, .L495+124
 3407 0196 06F10C09 		add	r9, r6, #12
 3408 019a FFF7FEFF 		bl	_ZN5daisy9Parameter4InitENS_13AnalogControlEffNS0_5CurveE
 3409 019e 06F1600C 		add	ip, r6, #96
 3410 01a2 0DF1040E 		add	lr, sp, #4
 3411 01a6 DFED7D0A 		vldr.32	s1, .L495+116
 3412 01aa 9FED7D0A 		vldr.32	s0, .L495+120
 3413 01ae BCE80F00 		ldmia	ip!, {r0, r1, r2, r3}
 3414 01b2 AEE80F00 		stmia	lr!, {r0, r1, r2, r3}
 3415 01b6 9CE80700 		ldm	ip, {r0, r1, r2}
 3416 01ba 85E80700 		stm	r5, {r0, r1, r2}
 3417 01be 01A9     		add	r1, sp, #4
 3418 01c0 0222     		movs	r2, #2
 3419 01c2 7948     		ldr	r0, .L495+128
 3420 01c4 FFF7FEFF 		bl	_ZN5daisy9Parameter4InitENS_13AnalogControlEffNS0_5CurveE
 3421 01c8 0DF1040C 		add	ip, sp, #4
 3422 01cc DFED730A 		vldr.32	s1, .L495+116
 3423 01d0 9FED760A 		vldr.32	s0, .L495+132
 3424 01d4 B9E80F00 		ldmia	r9!, {r0, r1, r2, r3}
 3425 01d8 ACE80F00 		stmia	ip!, {r0, r1, r2, r3}
 3426 01dc 99E80700 		ldm	r9, {r0, r1, r2}
 3427 01e0 85E80700 		stm	r5, {r0, r1, r2}
 3428 01e4 01A9     		add	r1, sp, #4
 3429 01e6 0222     		movs	r2, #2
 3430 01e8 7148     		ldr	r0, .L495+136
 3431 01ea FFF7FEFF 		bl	_ZN5daisy9Parameter4InitENS_13AnalogControlEffNS0_5CurveE
 3432 01ee 06F1280C 		add	ip, r6, #40
 3433 01f2 704A     		ldr	r2, .L495+140
 3434 01f4 0DF1040E 		add	lr, sp, #4
 3435 01f8 6F4B     		ldr	r3, .L495+144
 3436 01fa 0C36     		adds	r6, r6, #12
 3437 01fc 1460     		str	r4, [r2]
ARM GAS  /var/folders/lg/77ksxqjx0n7gwph6nqpzcmcw0000gn/T//ccn5JkAm.s 			page 60


 3438 01fe B3EE040A 		vmov.f32	s0, #2.0e+1
 3439 0202 5C60     		str	r4, [r3, #4]
 3440 0204 DFED650A 		vldr.32	s1, .L495+116
 3441 0208 BCE80F00 		ldmia	ip!, {r0, r1, r2, r3}
 3442 020c AEE80F00 		stmia	lr!, {r0, r1, r2, r3}
 3443 0210 9CE80700 		ldm	ip, {r0, r1, r2}
 3444 0214 694B     		ldr	r3, .L495+148
 3445 0216 DFF8ECC1 		ldr	ip, .L495+220
 3446 021a DFF8ECE1 		ldr	lr, .L495+224
 3447 021e CCF800A0 		str	r10, [ip]	@ float
 3448 0222 CCF804A0 		str	r10, [ip, #4]	@ float
 3449 0226 C3F800A0 		str	r10, [r3]	@ float
 3450 022a DFF8E0C1 		ldr	ip, .L495+228
 3451 022e C3F804A0 		str	r10, [r3, #4]	@ float
 3452 0232 634B     		ldr	r3, .L495+152
 3453 0234 8CED008A 		vstr.32	s16, [ip]
 3454 0238 8CED018A 		vstr.32	s16, [ip, #4]
 3455 023c 83ED008A 		vstr.32	s16, [r3]
 3456 0240 83ED018A 		vstr.32	s16, [r3, #4]
 3457 0244 85E80700 		stm	r5, {r0, r1, r2}
 3458 0248 01A9     		add	r1, sp, #4
 3459 024a 0222     		movs	r2, #2
 3460 024c 5D48     		ldr	r0, .L495+156
 3461 024e CEE900BB 		strd	fp, fp, [lr]
 3462 0252 FFF7FEFF 		bl	_ZN5daisy9Parameter4InitENS_13AnalogControlEffNS0_5CurveE
 3463 0256 0DF1040C 		add	ip, sp, #4
 3464 025a B1EE000A 		vmov.f32	s0, #4.0e+0
 3465 025e DFED5A0A 		vldr.32	s1, .L495+160
 3466 0262 0FCE     		ldmia	r6!, {r0, r1, r2, r3}
 3467 0264 ACE80F00 		stmia	ip!, {r0, r1, r2, r3}
 3468 0268 99E80700 		ldm	r9, {r0, r1, r2}
 3469 026c 28EE800A 		vmul.f32	s0, s17, s0
 3470 0270 564E     		ldr	r6, .L495+164
 3471 0272 68EEA00A 		vmul.f32	s1, s17, s1
 3472 0276 85E80700 		stm	r5, {r0, r1, r2}
 3473 027a 01A9     		add	r1, sp, #4
 3474 027c 0222     		movs	r2, #2
 3475 027e 5448     		ldr	r0, .L495+168
 3476 0280 FFF7FEFF 		bl	_ZN5daisy9Parameter4InitENS_13AnalogControlEffNS0_5CurveE
 3477 0284 F6EE087A 		vmov.f32	s15, #7.5e-1
 3478 0288 DFF884C1 		ldr	ip, .L495+232
 3479 028c 2346     		mov	r3, r4
 3480 028e 5149     		ldr	r1, .L495+172
 3481 0290 68EEA77A 		vmul.f32	s15, s17, s15
 3482 0294 2548     		ldr	r0, .L495+4
 3483 0296 504D     		ldr	r5, .L495+176
 3484 0298 504C     		ldr	r4, .L495+180
 3485 029a BDEEE77A 		vcvt.s32.f32	s14, s15
 3486 029e CCED007A 		vstr.32	s15, [ip]
 3487 02a2 C6ED007A 		vstr.32	s15, [r6]
 3488 02a6 4E4A     		ldr	r2, .L495+184
 3489 02a8 17EE10CA 		vmov	ip, s14	@ int
 3490 02ac F8EEC76A 		vcvt.f32.s32	s13, s14
 3491 02b0 4560     		str	r5, [r0, #4]	@ float
 3492 02b2 8C45     		cmp	ip, r1
 3493 02b4 0460     		str	r4, [r0]	@ float
 3494 02b6 77EEE67A 		vsub.f32	s15, s15, s13
ARM GAS  /var/folders/lg/77ksxqjx0n7gwph6nqpzcmcw0000gn/T//ccn5JkAm.s 			page 61


 3495 02ba 28BF     		it	cs
 3496 02bc 8C46     		movcs	ip, r1
 3497 02be C7ED007A 		vstr.32	s15, [r7]
 3498 02c2 C7F808C0 		str	ip, [r7, #8]
 3499 02c6 C8F808C0 		str	ip, [r8, #8]
 3500 02ca C8ED007A 		vstr.32	s15, [r8]
 3501 02ce 10E0     		b	.L480
 3502              	.L477:
 3503 02d0 07EE103A 		vmov	s14, r3	@ int
 3504 02d4 8B42     		cmp	r3, r1
 3505 02d6 B8EEC77A 		vcvt.f32.s32	s14, s14
 3506 02da 37EE677A 		vsub.f32	s14, s14, s15
 3507 02de C7EE067A 		vdiv.f32	s15, s14, s12
 3508 02e2 77EEA67A 		vadd.f32	s15, s15, s13
 3509 02e6 C2ED007A 		vstr.32	s15, [r2]
 3510 02ea 00F09380 		beq	.L479
 3511              	.L478:
 3512 02ee 0133     		adds	r3, r3, #1
 3513 02f0 0432     		adds	r2, r2, #4
 3514              	.L480:
 3515 02f2 2F2B     		cmp	r3, #47
 3516 02f4 DFED3B7A 		vldr.32	s15, .L495+188
 3517 02f8 40F22B11 		movw	r1, #299
 3518 02fc 9FED3A6A 		vldr.32	s12, .L495+192
 3519 0300 DFED106A 		vldr.32	s13, .L495+28
 3520 0304 E4D8     		bhi	.L477
 3521 0306 B0EE676A 		vmov.f32	s12, s15
 3522 030a 07EE903A 		vmov	s15, r3	@ int
 3523 030e F7EE006A 		vmov.f32	s13, #1.0e+0
 3524 0312 F8EEE77A 		vcvt.f32.s32	s15, s15
 3525 0316 F1EE677A 		vneg.f32	s15, s15
 3526 031a 87EE867A 		vdiv.f32	s14, s15, s12
 3527 031e 77EE267A 		vadd.f32	s15, s14, s13
 3528 0322 C2ED007A 		vstr.32	s15, [r2]
 3529 0326 E2E7     		b	.L478
 3530              	.L496:
 3531              		.align	2
 3532              	.L495:
 3533 0328 00000000 		.word	.LANCHOR78
 3534 032c 00000000 		.word	_ZL3rev
 3535 0330 1873C602 		.word	_ZL4dell+12
 3536 0334 18C6CD02 		.word	_ZL4dell+480012
 3537 0338 0C73C602 		.word	_ZL4dell
 3538 033c 0C20BF02 		.word	_ZL4delr+12
 3539 0340 0C73C602 		.word	_ZL4delr+480012
 3540 0344 00000000 		.word	0
 3541 0348 00000000 		.word	.LANCHOR36
 3542 034c 00000000 		.word	.LANCHOR38
 3543 0350 00000000 		.word	.LANCHOR37
 3544 0354 00000000 		.word	.LANCHOR39
 3545 0358 00000000 		.word	.LANCHOR79
 3546 035c 00000000 		.word	.LANCHOR47
 3547 0360 00000000 		.word	.LANCHOR49
 3548 0364 CAAA7F3F 		.word	1065331402
 3549 0368 00000000 		.word	.LANCHOR26
 3550 036c 00000000 		.word	.LANCHOR44
 3551 0370 00000000 		.word	.LANCHOR45
ARM GAS  /var/folders/lg/77ksxqjx0n7gwph6nqpzcmcw0000gn/T//ccn5JkAm.s 			page 62


 3552 0374 00000000 		.word	.LANCHOR80
 3553 0378 00000000 		.word	.LANCHOR81
 3554 037c 00000000 		.word	.LANCHOR67
 3555 0380 00000000 		.word	.LANCHOR66
 3556 0384 00000000 		.word	.LANCHOR60
 3557 0388 00000000 		.word	.LANCHOR63
 3558 038c 00000000 		.word	.LANCHOR52
 3559 0390 00000000 		.word	.LANCHOR55
 3560 0394 00000000 		.word	.LANCHOR65
 3561 0398 8C010000 		.word	.LANCHOR78+396
 3562 039c 00409C46 		.word	1184645120
 3563 03a0 00007042 		.word	1114636288
 3564 03a4 00000000 		.word	.LANCHOR84
 3565 03a8 00000000 		.word	.LANCHOR85
 3566 03ac 0000C843 		.word	1137180672
 3567 03b0 00000000 		.word	.LANCHOR86
 3568 03b4 00000000 		.word	.LANCHOR87
 3569 03b8 00000000 		.word	.LANCHOR88
 3570 03bc 00000000 		.word	.LANCHOR93
 3571 03c0 00000000 		.word	.LANCHOR91
 3572 03c4 00000000 		.word	.LANCHOR94
 3573 03c8 0000803D 		.word	1031798784
 3574 03cc 00000000 		.word	.LANCHOR29
 3575 03d0 00000000 		.word	.LANCHOR95
 3576 03d4 BFD40100 		.word	119999
 3577 03d8 00A00C46 		.word	1175232512
 3578 03dc 9A99593F 		.word	1062836634
 3579 03e0 00000000 		.word	.LANCHOR97
 3580 03e4 00004042 		.word	1111490560
 3581 03e8 00007C43 		.word	1132199936
 3582 03ec 0020BF02 		.word	_ZL4delr
 3583 03f0 22BA003D 		.word	1023457826
 3584 03f4 0AD7233C 		.word	1008981770
 3585 03f8 00000000 		.word	.LANCHOR83
 3586 03fc 00000000 		.word	.LANCHOR61
 3587 0400 00000000 		.word	.LANCHOR82
 3588 0404 00000000 		.word	.LANCHOR92
 3589 0408 00000000 		.word	.LANCHOR89
 3590 040c 00000000 		.word	.LANCHOR90
 3591 0410 00000000 		.word	.LANCHOR96
 3592              	.L479:
 3593 0414 FFF7FEFF 		bl	_Z17ResetLooperBufferv
 3594 0418 F7EE007A 		vmov.f32	s15, #1.0e+0
 3595 041c 5A4E     		ldr	r6, .L497
 3596 041e DFF8A091 		ldr	r9, .L497+56
 3597 0422 87EEA88A 		vdiv.f32	s16, s15, s17
 3598 0426 3546     		mov	r5, r6
 3599 0428 06F1F007 		add	r7, r6, #240
 3600 042c A9F11B0A 		sub	r10, r9, #27
 3601 0430 09F1060B 		add	fp, r9, #6
 3602              	.L481:
 3603 0434 4FF00008 		mov	r8, #0
 3604 0438 4FF07C53 		mov	r3, #1056964608
 3605 043c 9FED530A 		vldr.32	s0, .L497+4
 3606 0440 2846     		mov	r0, r5
 3607 0442 6B60     		str	r3, [r5, #4]	@ float
 3608 0444 0124     		movs	r4, #1
ARM GAS  /var/folders/lg/77ksxqjx0n7gwph6nqpzcmcw0000gn/T//ccn5JkAm.s 			page 63


 3609 0446 C5ED038A 		vstr.32	s17, [r5, #12]
 3610 044a 85ED048A 		vstr.32	s16, [r5, #16]
 3611 044e 85ED020A 		vstr.32	s0, [r5, #8]
 3612 0452 C5F81480 		str	r8, [r5, #20]	@ float
 3613 0456 FFF7FEFF 		bl	_ZN7daisysp10Oscillator12CalcPhaseIncEf
 3614 045a 0023     		movs	r3, #0
 3615 045c 85ED060A 		vstr.32	s0, [r5, #24]
 3616 0460 85F82540 		strb	r4, [r5, #37]
 3617 0464 85F82440 		strb	r4, [r5, #36]
 3618 0468 47F8048B 		str	r8, [r7], #4	@ float
 3619 046c C7F81480 		str	r8, [r7, #20]	@ float
 3620 0470 C7F82C80 		str	r8, [r7, #44]	@ float
 3621 0474 C7F84480 		str	r8, [r7, #68]	@ float
 3622 0478 05F8283B 		strb	r3, [r5], #40
 3623 047c 4AF8043F 		str	r3, [r10, #4]!
 3624 0480 09F8013F 		strb	r3, [r9, #1]!
 3625 0484 D945     		cmp	r9, fp
 3626 0486 D5D1     		bne	.L481
 3627 0488 414D     		ldr	r5, .L497+8
 3628 048a B7EE000A 		vmov.f32	s0, #1.0e+0
 3629 048e 05F58057 		add	r7, r5, #4096
 3630 0492 05F54058 		add	r8, r5, #12288
 3631 0496 16E0     		b	.L485
 3632              	.L493:
 3633 0498 77EEC07A 		vsub.f32	s15, s15, s0
 3634 049c 1160     		str	r1, [r2]	@ float
 3635 049e 67EEA67A 		vmul.f32	s15, s15, s13
 3636 04a2 C7ED007A 		vstr.32	s15, [r7]
 3637              	.L483:
 3638 04a6 07EE904A 		vmov	s15, r4	@ int
 3639 04aa 9FED3A7A 		vldr.32	s14, .L497+12
 3640 04ae 9FED3A0A 		vldr.32	s0, .L497+16
 3641 04b2 0437     		adds	r7, r7, #4
 3642 04b4 F8EEE77A 		vcvt.f32.s32	s15, s15
 3643 04b8 0134     		adds	r4, r4, #1
 3644 04ba 67EE877A 		vmul.f32	s15, s15, s14
 3645 04be 87EE800A 		vdiv.f32	s0, s15, s0
 3646 04c2 FFF7FEFF 		bl	cosf
 3647              	.L485:
 3648 04c6 631E     		subs	r3, r4, #1
 3649 04c8 0021     		movs	r1, #0
 3650 04ca 43F6FC72 		movw	r2, #16380
 3651 04ce B3F5007F 		cmp	r3, #512
 3652 04d2 45F8041B 		str	r1, [r5], #4	@ float
 3653 04d6 F7EE007A 		vmov.f32	s15, #1.0e+0
 3654 04da 2A44     		add	r2, r2, r5
 3655 04dc F6EE006A 		vmov.f32	s13, #5.0e-1
 3656 04e0 48F8041B 		str	r1, [r8], #4	@ float
 3657 04e4 D8D3     		bcc	.L493
 3658 04e6 77EEC07A 		vsub.f32	s15, s15, s0
 3659 04ea B4F5806F 		cmp	r4, #1024
 3660 04ee 67EEA67A 		vmul.f32	s15, s15, s13
 3661 04f2 C7ED007A 		vstr.32	s15, [r7]
 3662 04f6 D6D1     		bne	.L483
 3663 04f8 44F6C013 		movw	r3, #18880
 3664 04fc 0022     		movs	r2, #0
 3665 04fe 274D     		ldr	r5, .L497+20
ARM GAS  /var/folders/lg/77ksxqjx0n7gwph6nqpzcmcw0000gn/T//ccn5JkAm.s 			page 64


 3666 0500 0324     		movs	r4, #3
 3667 0502 9FED270A 		vldr.32	s0, .L497+24
 3668 0506 9FED278A 		vldr.32	s16, .L497+28
 3669 050a F254     		strb	r2, [r6, r3]
 3670 050c 0FE0     		b	.L487
 3671              	.L494:
 3672 050e 07EE903A 		vmov	s15, r3	@ int
 3673 0512 F8EEE77A 		vcvt.f32.s32	s15, s15
 3674 0516 87EE279A 		vdiv.f32	s18, s14, s15
 3675 051a B0EE490A 		vmov.f32	s0, s18
 3676 051e FFF7FEFF 		bl	cosf
 3677 0522 B0EE408A 		vmov.f32	s16, s0
 3678 0526 B0EE490A 		vmov.f32	s0, s18
 3679 052a FFF7FEFF 		bl	sinf
 3680              	.L487:
 3681 052e 0123     		movs	r3, #1
 3682 0530 85ED008A 		vstr.32	s16, [r5]
 3683 0534 85ED010A 		vstr.32	s0, [r5, #4]
 3684 0538 0835     		adds	r5, r5, #8
 3685 053a 1C44     		add	r4, r4, r3
 3686 053c 9FED1A7A 		vldr.32	s14, .L497+32
 3687 0540 0A2C     		cmp	r4, #10
 3688 0542 03FA04F3 		lsl	r3, r3, r4
 3689 0546 E2D1     		bne	.L494
 3690 0548 44F6E413 		movw	r3, #18916
 3691 054c 174A     		ldr	r2, .L497+36
 3692 054e B0EE680A 		vmov.f32	s0, s17
 3693 0552 1748     		ldr	r0, .L497+40
 3694 0554 F358     		ldr	r3, [r6, r3]
 3695 0556 9B02     		lsls	r3, r3, #10
 3696 0558 07EE903A 		vmov	s15, r3	@ int
 3697 055c F8EE677A 		vcvt.f32.u32	s15, s15
 3698 0560 88EEA77A 		vdiv.f32	s14, s17, s15
 3699 0564 82ED007A 		vstr.32	s14, [r2]
 3700 0568 FFF7FEFF 		bl	_ZN7daisysp11StringVoice4InitEf
 3701 056c B0EE680A 		vmov.f32	s0, s17
 3702 0570 1048     		ldr	r0, .L497+44
 3703 0572 FFF7FEFF 		bl	_ZN7daisysp11StringVoice4InitEf
 3704 0576 1048     		ldr	r0, .L497+48
 3705 0578 FFF7FEFF 		bl	_ZN5daisy11DaisyVersio8StartAdcEv
 3706 057c 0F49     		ldr	r1, .L497+52
 3707 057e 0E48     		ldr	r0, .L497+48
 3708 0580 FFF7FEFF 		bl	_ZN5daisy11DaisyVersio10StartAudioEPFvPPfS2_jE
 3709              	.L488:
 3710 0584 FEE7     		b	.L488
 3711              	.L498:
 3712 0586 00BF     		.align	2
 3713              	.L497:
 3714 0588 00000000 		.word	_ZL15spectra_oscbank
 3715 058c 0000C842 		.word	1120403456
 3716 0590 54010000 		.word	_ZL15spectra_oscbank+340
 3717 0594 DB0FC940 		.word	1086918619
 3718 0598 00C07F44 		.word	1149222912
 3719 059c 78490000 		.word	_ZL15spectra_oscbank+18808
 3720 05a0 16EFC33E 		.word	1053028118
 3721 05a4 5E836C3F 		.word	1064076126
 3722 05a8 DB0F4940 		.word	1078530011
ARM GAS  /var/folders/lg/77ksxqjx0n7gwph6nqpzcmcw0000gn/T//ccn5JkAm.s 			page 65


 3723 05ac 54490000 		.word	_ZL15spectra_oscbank+18772
 3724 05b0 00000000 		.word	_ZL12string_voice
 3725 05b4 E4140000 		.word	_ZL12string_voice+5348
 3726 05b8 00000000 		.word	.LANCHOR78
 3727 05bc 00000000 		.word	_ZL13AudioCallbackPPfS0_j
 3728 05c0 DB490000 		.word	_ZL15spectra_oscbank+18907
 3730              		.section	.text._Z17WriteLooperBufferff,"ax",%progbits
 3731              		.align	1
 3732              		.p2align 2,,3
 3733              		.global	_Z17WriteLooperBufferff
 3734              		.syntax unified
 3735              		.thumb
 3736              		.thumb_func
 3737              		.fpu fpv5-d16
 3739              	_Z17WriteLooperBufferff:
 3740              		@ args = 0, pretend = 0, frame = 0
 3741              		@ frame_needed = 0, uses_anonymous_args = 0
 3742              		@ link register save eliminated.
 3743 0000 70B4     		push	{r4, r5, r6}
 3744 0002 144B     		ldr	r3, .L503
 3745 0004 1448     		ldr	r0, .L503+4
 3746 0006 154C     		ldr	r4, .L503+8
 3747 0008 1B68     		ldr	r3, [r3]
 3748 000a 1549     		ldr	r1, .L503+12
 3749 000c 154A     		ldr	r2, .L503+16
 3750 000e 0068     		ldr	r0, [r0]
 3751 0010 01EB8306 		add	r6, r1, r3, lsl #2
 3752 0014 2468     		ldr	r4, [r4]
 3753 0016 02EB8305 		add	r5, r2, r3, lsl #2
 3754 001a 86ED000A 		vstr.32	s0, [r6]
 3755 001e 9B00     		lsls	r3, r3, #2
 3756 0020 A042     		cmp	r0, r4
 3757 0022 C5ED000A 		vstr.32	s1, [r5]
 3758 0026 07DD     		ble	.L500
 3759 0028 01EB8001 		add	r1, r1, r0, lsl #2
 3760 002c 02EB8002 		add	r2, r2, r0, lsl #2
 3761 0030 81ED000A 		vstr.32	s0, [r1]
 3762 0034 C2ED000A 		vstr.32	s1, [r2]
 3763              	.L500:
 3764 0038 0B4A     		ldr	r2, .L503+20
 3765 003a 1278     		ldrb	r2, [r2]	@ zero_extendqisi2
 3766 003c 3AB9     		cbnz	r2, .L499
 3767 003e 0B49     		ldr	r1, .L503+24
 3768 0040 0B4A     		ldr	r2, .L503+28
 3769 0042 1944     		add	r1, r1, r3
 3770 0044 1344     		add	r3, r3, r2
 3771 0046 81ED000A 		vstr.32	s0, [r1]
 3772 004a C3ED000A 		vstr.32	s1, [r3]
 3773              	.L499:
 3774 004e 70BC     		pop	{r4, r5, r6}
 3775 0050 7047     		bx	lr
 3776              	.L504:
 3777 0052 00BF     		.align	2
 3778              	.L503:
 3779 0054 00000000 		.word	.LANCHOR73
 3780 0058 00000000 		.word	.LANCHOR74
 3781 005c 00000000 		.word	.LANCHOR75
ARM GAS  /var/folders/lg/77ksxqjx0n7gwph6nqpzcmcw0000gn/T//ccn5JkAm.s 			page 66


 3782 0060 00000000 		.word	mlooper_buf_1l
 3783 0064 00000000 		.word	mlooper_buf_1r
 3784 0068 00000000 		.word	.LANCHOR98
 3785 006c 00000000 		.word	mlooper_frozen_buf_1l
 3786 0070 00000000 		.word	mlooper_frozen_buf_1r
 3788              		.section	.text._Z18FreezeLooperBufferv,"ax",%progbits
 3789              		.align	1
 3790              		.p2align 2,,3
 3791              		.global	_Z18FreezeLooperBufferv
 3792              		.syntax unified
 3793              		.thumb
 3794              		.thumb_func
 3795              		.fpu fpv5-d16
 3797              	_Z18FreezeLooperBufferv:
 3798              		@ args = 0, pretend = 0, frame = 0
 3799              		@ frame_needed = 0, uses_anonymous_args = 0
 3800              		@ link register save eliminated.
 3801 0000 0749     		ldr	r1, .L507
 3802 0002 084A     		ldr	r2, .L507+4
 3803 0004 084B     		ldr	r3, .L507+8
 3804 0006 1068     		ldr	r0, [r2]	@ float
 3805 0008 1A68     		ldr	r2, [r3]	@ float
 3806 000a 084B     		ldr	r3, .L507+12
 3807 000c 30B4     		push	{r4, r5}
 3808 000e 0D68     		ldr	r5, [r1]
 3809 0010 074C     		ldr	r4, .L507+16
 3810 0012 0849     		ldr	r1, .L507+20
 3811 0014 2560     		str	r5, [r4]
 3812 0016 0860     		str	r0, [r1]	@ float
 3813 0018 1A60     		str	r2, [r3]	@ float
 3814 001a 30BC     		pop	{r4, r5}
 3815 001c 7047     		bx	lr
 3816              	.L508:
 3817 001e 00BF     		.align	2
 3818              	.L507:
 3819 0020 00000000 		.word	.LANCHOR75
 3820 0024 00000000 		.word	.LANCHOR69
 3821 0028 00000000 		.word	.LANCHOR71
 3822 002c 00000000 		.word	.LANCHOR72
 3823 0030 00000000 		.word	.LANCHOR76
 3824 0034 00000000 		.word	.LANCHOR70
 3826              		.section	.rodata._Z20SelectLooperDivisionff.str1.4,"aMS",%progbits,1
 3827              		.align	2
 3828              	.LC5:
 3829 0000 20312F31 		.ascii	" 1/1\000"
 3829      00
 3830 0005 000000   		.align	2
 3831              	.LC6:
 3832 0008 20312F32 		.ascii	" 1/2\000"
 3832      00
 3833 000d 000000   		.align	2
 3834              	.LC7:
 3835 0010 20312F34 		.ascii	" 1/4\000"
 3835      00
 3836 0015 000000   		.align	2
 3837              	.LC8:
 3838 0018 20312F38 		.ascii	" 1/8\000"
ARM GAS  /var/folders/lg/77ksxqjx0n7gwph6nqpzcmcw0000gn/T//ccn5JkAm.s 			page 67


 3838      00
 3839 001d 000000   		.align	2
 3840              	.LC9:
 3841 0020 312F3136 		.ascii	"1/16\000"
 3841      00
 3842              		.section	.text._Z20SelectLooperDivisionff,"ax",%progbits
 3843              		.align	1
 3844              		.p2align 2,,3
 3845              		.global	_Z20SelectLooperDivisionff
 3846              		.syntax unified
 3847              		.thumb
 3848              		.thumb_func
 3849              		.fpu fpv5-d16
 3851              	_Z20SelectLooperDivisionff:
 3852              		@ args = 0, pretend = 0, frame = 0
 3853              		@ frame_needed = 0, uses_anonymous_args = 0
 3854 0000 DFED677A 		vldr.32	s15, .L558
 3855 0004 B4EEE70A 		vcmpe.f32	s0, s15
 3856 0008 30B5     		push	{r4, r5, lr}
 3857 000a F1EE10FA 		vmrs	APSR_nzcv, FPSCR
 3858 000e 2DED028B 		vpush.64	{d8}
 3859 0012 B0EE608A 		vmov.f32	s16, s1
 3860 0016 83B0     		sub	sp, sp, #12
 3861 0018 61D4     		bmi	.L549
 3862 001a DFED627A 		vldr.32	s15, .L558+4
 3863 001e B4EEE70A 		vcmpe.f32	s0, s15
 3864 0022 F1EE10FA 		vmrs	APSR_nzcv, FPSCR
 3865 0026 1DD4     		bmi	.L550
 3866 0028 DFED5F7A 		vldr.32	s15, .L558+8
 3867 002c B4EEE70A 		vcmpe.f32	s0, s15
 3868 0030 F1EE10FA 		vmrs	APSR_nzcv, FPSCR
 3869 0034 00F18D80 		bmi	.L551
 3870 0038 DFED5C7A 		vldr.32	s15, .L558+12
 3871 003c B4EEE70A 		vcmpe.f32	s0, s15
 3872 0040 F1EE10FA 		vmrs	APSR_nzcv, FPSCR
 3873 0044 00F19F80 		bmi	.L552
 3874 0048 18DD     		ble	.L512
 3875 004a 0423     		movs	r3, #4
 3876 004c 584C     		ldr	r4, .L558+16
 3877 004e 4FF07655 		mov	r5, #1031798784
 3878 0052 5848     		ldr	r0, .L558+20
 3879 0054 0021     		movs	r1, #0
 3880 0056 4268     		ldr	r2, [r0, #4]
 3881 0058 0093     		str	r3, [sp]
 3882 005a 574B     		ldr	r3, .L558+24
 3883 005c 2560     		str	r5, [r4]	@ float
 3884 005e FFF7FEFF 		bl	_ZNSt7__cxx1112basic_stringIcSt11char_traitsIcESaIcEE10_M_replaceEjjPKcj
 3885 0062 0BE0     		b	.L512
 3886              	.L550:
 3887 0064 0423     		movs	r3, #4
 3888 0066 4FF07C55 		mov	r5, #1056964608
 3889 006a 5248     		ldr	r0, .L558+20
 3890 006c 0021     		movs	r1, #0
 3891 006e 504C     		ldr	r4, .L558+16
 3892 0070 4268     		ldr	r2, [r0, #4]
 3893 0072 0093     		str	r3, [sp]
 3894 0074 514B     		ldr	r3, .L558+28
ARM GAS  /var/folders/lg/77ksxqjx0n7gwph6nqpzcmcw0000gn/T//ccn5JkAm.s 			page 68


 3895 0076 2560     		str	r5, [r4]	@ float
 3896 0078 FFF7FEFF 		bl	_ZNSt7__cxx1112basic_stringIcSt11char_traitsIcESaIcEE10_M_replaceEjjPKcj
 3897              	.L512:
 3898 007c DFED487A 		vldr.32	s15, .L558
 3899 0080 B4EEE78A 		vcmpe.f32	s16, s15
 3900 0084 F1EE10FA 		vmrs	APSR_nzcv, FPSCR
 3901 0088 19D4     		bmi	.L553
 3902 008a DFED467A 		vldr.32	s15, .L558+4
 3903 008e B4EEE78A 		vcmpe.f32	s16, s15
 3904 0092 F1EE10FA 		vmrs	APSR_nzcv, FPSCR
 3905 0096 2FD4     		bmi	.L554
 3906 0098 DFED437A 		vldr.32	s15, .L558+8
 3907 009c B4EEE78A 		vcmpe.f32	s16, s15
 3908 00a0 F1EE10FA 		vmrs	APSR_nzcv, FPSCR
 3909 00a4 45D4     		bmi	.L555
 3910 00a6 DFED417A 		vldr.32	s15, .L558+12
 3911 00aa B4EEE78A 		vcmpe.f32	s16, s15
 3912 00ae F1EE10FA 		vmrs	APSR_nzcv, FPSCR
 3913 00b2 5BD4     		bmi	.L556
 3914 00b4 30DC     		bgt	.L557
 3915              	.L509:
 3916 00b6 03B0     		add	sp, sp, #12
 3917              		@ sp needed
 3918 00b8 BDEC028B 		vldm	sp!, {d8}
 3919 00bc 30BD     		pop	{r4, r5, pc}
 3920              	.L553:
 3921 00be 4048     		ldr	r0, .L558+32
 3922 00c0 0423     		movs	r3, #4
 3923 00c2 4FF07E55 		mov	r5, #1065353216
 3924 00c6 3F4C     		ldr	r4, .L558+36
 3925 00c8 4268     		ldr	r2, [r0, #4]
 3926 00ca 0021     		movs	r1, #0
 3927 00cc 0093     		str	r3, [sp]
 3928 00ce 3E4B     		ldr	r3, .L558+40
 3929 00d0 2560     		str	r5, [r4]	@ float
 3930 00d2 FFF7FEFF 		bl	_ZNSt7__cxx1112basic_stringIcSt11char_traitsIcESaIcEE10_M_replaceEjjPKcj
 3931 00d6 03B0     		add	sp, sp, #12
 3932              		@ sp needed
 3933 00d8 BDEC028B 		vldm	sp!, {d8}
 3934 00dc 30BD     		pop	{r4, r5, pc}
 3935              	.L549:
 3936 00de 4FF07E55 		mov	r5, #1065353216
 3937 00e2 0423     		movs	r3, #4
 3938 00e4 324C     		ldr	r4, .L558+16
 3939 00e6 0021     		movs	r1, #0
 3940 00e8 3248     		ldr	r0, .L558+20
 3941 00ea 4268     		ldr	r2, [r0, #4]
 3942 00ec 0093     		str	r3, [sp]
 3943 00ee 364B     		ldr	r3, .L558+40
 3944 00f0 2560     		str	r5, [r4]	@ float
 3945 00f2 FFF7FEFF 		bl	_ZNSt7__cxx1112basic_stringIcSt11char_traitsIcESaIcEE10_M_replaceEjjPKcj
 3946 00f6 C1E7     		b	.L512
 3947              	.L554:
 3948 00f8 3148     		ldr	r0, .L558+32
 3949 00fa 0423     		movs	r3, #4
 3950 00fc 4FF07C55 		mov	r5, #1056964608
 3951 0100 304C     		ldr	r4, .L558+36
ARM GAS  /var/folders/lg/77ksxqjx0n7gwph6nqpzcmcw0000gn/T//ccn5JkAm.s 			page 69


 3952 0102 4268     		ldr	r2, [r0, #4]
 3953 0104 0021     		movs	r1, #0
 3954 0106 0093     		str	r3, [sp]
 3955 0108 2C4B     		ldr	r3, .L558+28
 3956 010a 2560     		str	r5, [r4]	@ float
 3957 010c FFF7FEFF 		bl	_ZNSt7__cxx1112basic_stringIcSt11char_traitsIcESaIcEE10_M_replaceEjjPKcj
 3958 0110 03B0     		add	sp, sp, #12
 3959              		@ sp needed
 3960 0112 BDEC028B 		vldm	sp!, {d8}
 3961 0116 30BD     		pop	{r4, r5, pc}
 3962              	.L557:
 3963 0118 0423     		movs	r3, #4
 3964 011a 2A4C     		ldr	r4, .L558+36
 3965 011c 4FF07655 		mov	r5, #1031798784
 3966 0120 2748     		ldr	r0, .L558+32
 3967 0122 0021     		movs	r1, #0
 3968 0124 4268     		ldr	r2, [r0, #4]
 3969 0126 0093     		str	r3, [sp]
 3970 0128 234B     		ldr	r3, .L558+24
 3971 012a 2560     		str	r5, [r4]	@ float
 3972 012c FFF7FEFF 		bl	_ZNSt7__cxx1112basic_stringIcSt11char_traitsIcESaIcEE10_M_replaceEjjPKcj
 3973 0130 C1E7     		b	.L509
 3974              	.L555:
 3975 0132 2348     		ldr	r0, .L558+32
 3976 0134 0423     		movs	r3, #4
 3977 0136 4FF07A55 		mov	r5, #1048576000
 3978 013a 224C     		ldr	r4, .L558+36
 3979 013c 4268     		ldr	r2, [r0, #4]
 3980 013e 0021     		movs	r1, #0
 3981 0140 0093     		str	r3, [sp]
 3982 0142 224B     		ldr	r3, .L558+44
 3983 0144 2560     		str	r5, [r4]	@ float
 3984 0146 FFF7FEFF 		bl	_ZNSt7__cxx1112basic_stringIcSt11char_traitsIcESaIcEE10_M_replaceEjjPKcj
 3985 014a 03B0     		add	sp, sp, #12
 3986              		@ sp needed
 3987 014c BDEC028B 		vldm	sp!, {d8}
 3988 0150 30BD     		pop	{r4, r5, pc}
 3989              	.L551:
 3990 0152 4FF07A55 		mov	r5, #1048576000
 3991 0156 0423     		movs	r3, #4
 3992 0158 154C     		ldr	r4, .L558+16
 3993 015a 0021     		movs	r1, #0
 3994 015c 1548     		ldr	r0, .L558+20
 3995 015e 4268     		ldr	r2, [r0, #4]
 3996 0160 0093     		str	r3, [sp]
 3997 0162 1A4B     		ldr	r3, .L558+44
 3998 0164 2560     		str	r5, [r4]	@ float
 3999 0166 FFF7FEFF 		bl	_ZNSt7__cxx1112basic_stringIcSt11char_traitsIcESaIcEE10_M_replaceEjjPKcj
 4000 016a 87E7     		b	.L512
 4001              	.L556:
 4002 016c 4FF07855 		mov	r5, #1040187392
 4003 0170 0423     		movs	r3, #4
 4004 0172 144C     		ldr	r4, .L558+36
 4005 0174 0021     		movs	r1, #0
 4006 0176 1248     		ldr	r0, .L558+32
 4007 0178 4268     		ldr	r2, [r0, #4]
 4008 017a 0093     		str	r3, [sp]
ARM GAS  /var/folders/lg/77ksxqjx0n7gwph6nqpzcmcw0000gn/T//ccn5JkAm.s 			page 70


 4009 017c 144B     		ldr	r3, .L558+48
 4010 017e 2560     		str	r5, [r4]	@ float
 4011 0180 FFF7FEFF 		bl	_ZNSt7__cxx1112basic_stringIcSt11char_traitsIcESaIcEE10_M_replaceEjjPKcj
 4012 0184 97E7     		b	.L509
 4013              	.L552:
 4014 0186 4FF07855 		mov	r5, #1040187392
 4015 018a 0423     		movs	r3, #4
 4016 018c 084C     		ldr	r4, .L558+16
 4017 018e 0021     		movs	r1, #0
 4018 0190 0848     		ldr	r0, .L558+20
 4019 0192 4268     		ldr	r2, [r0, #4]
 4020 0194 0093     		str	r3, [sp]
 4021 0196 0E4B     		ldr	r3, .L558+48
 4022 0198 2560     		str	r5, [r4]	@ float
 4023 019a FFF7FEFF 		bl	_ZNSt7__cxx1112basic_stringIcSt11char_traitsIcESaIcEE10_M_replaceEjjPKcj
 4024 019e 6DE7     		b	.L512
 4025              	.L559:
 4026              		.align	2
 4027              	.L558:
 4028 01a0 CDCC4C3E 		.word	1045220557
 4029 01a4 CDCCCC3E 		.word	1053609165
 4030 01a8 9A99193F 		.word	1058642330
 4031 01ac CDCC4C3F 		.word	1061997773
 4032 01b0 00000000 		.word	.LANCHOR99
 4033 01b4 00000000 		.word	.LANCHOR100
 4034 01b8 20000000 		.word	.LC9
 4035 01bc 08000000 		.word	.LC6
 4036 01c0 00000000 		.word	.LANCHOR102
 4037 01c4 00000000 		.word	.LANCHOR101
 4038 01c8 00000000 		.word	.LC5
 4039 01cc 10000000 		.word	.LC7
 4040 01d0 18000000 		.word	.LC8
 4042              		.section	.text._Z21SelectLooperPlaySpeedff,"ax",%progbits
 4043              		.align	1
 4044              		.p2align 2,,3
 4045              		.global	_Z21SelectLooperPlaySpeedff
 4046              		.syntax unified
 4047              		.thumb
 4048              		.thumb_func
 4049              		.fpu fpv5-d16
 4051              	_Z21SelectLooperPlaySpeedff:
 4052              		@ args = 0, pretend = 0, frame = 0
 4053              		@ frame_needed = 0, uses_anonymous_args = 0
 4054 0000 DFED787A 		vldr.32	s15, .L609
 4055 0004 B4EEE70A 		vcmpe.f32	s0, s15
 4056 0008 30B5     		push	{r4, r5, lr}
 4057 000a F1EE10FA 		vmrs	APSR_nzcv, FPSCR
 4058 000e 2DED028B 		vpush.64	{d8}
 4059 0012 B0EE608A 		vmov.f32	s16, s1
 4060 0016 83B0     		sub	sp, sp, #12
 4061 0018 6DD4     		bmi	.L600
 4062 001a DFED737A 		vldr.32	s15, .L609+4
 4063 001e B4EEE70A 		vcmpe.f32	s0, s15
 4064 0022 F1EE10FA 		vmrs	APSR_nzcv, FPSCR
 4065 0026 21D4     		bmi	.L601
 4066 0028 DFED707A 		vldr.32	s15, .L609+8
 4067 002c B4EEE70A 		vcmpe.f32	s0, s15
ARM GAS  /var/folders/lg/77ksxqjx0n7gwph6nqpzcmcw0000gn/T//ccn5JkAm.s 			page 71


 4068 0030 F1EE10FA 		vmrs	APSR_nzcv, FPSCR
 4069 0034 00F1A780 		bmi	.L602
 4070 0038 DFED6D7A 		vldr.32	s15, .L609+12
 4071 003c B4EEE70A 		vcmpe.f32	s0, s15
 4072 0040 F1EE10FA 		vmrs	APSR_nzcv, FPSCR
 4073 0044 00F1BE80 		bmi	.L603
 4074 0048 20DD     		ble	.L563
 4075 004a 4FF08144 		mov	r4, #1082130432
 4076 004e 0221     		movs	r1, #2
 4077 0050 684B     		ldr	r3, .L609+16
 4078 0052 4FF07C55 		mov	r5, #1056964608
 4079 0056 6848     		ldr	r0, .L609+20
 4080 0058 4268     		ldr	r2, [r0, #4]
 4081 005a 0091     		str	r1, [sp]
 4082 005c 0021     		movs	r1, #0
 4083 005e 1C60     		str	r4, [r3]	@ float
 4084 0060 664C     		ldr	r4, .L609+24
 4085 0062 674B     		ldr	r3, .L609+28
 4086 0064 2560     		str	r5, [r4]	@ float
 4087 0066 FFF7FEFF 		bl	_ZNSt7__cxx1112basic_stringIcSt11char_traitsIcESaIcEE10_M_replaceEjjPKcj
 4088 006a 0FE0     		b	.L563
 4089              	.L601:
 4090 006c 4FF07C54 		mov	r4, #1056964608
 4091 0070 0221     		movs	r1, #2
 4092 0072 604B     		ldr	r3, .L609+16
 4093 0074 4FF07E55 		mov	r5, #1065353216
 4094 0078 5F48     		ldr	r0, .L609+20
 4095 007a 4268     		ldr	r2, [r0, #4]
 4096 007c 0091     		str	r1, [sp]
 4097 007e 0021     		movs	r1, #0
 4098 0080 1C60     		str	r4, [r3]	@ float
 4099 0082 5E4C     		ldr	r4, .L609+24
 4100 0084 5F4B     		ldr	r3, .L609+32
 4101 0086 2560     		str	r5, [r4]	@ float
 4102 0088 FFF7FEFF 		bl	_ZNSt7__cxx1112basic_stringIcSt11char_traitsIcESaIcEE10_M_replaceEjjPKcj
 4103              	.L563:
 4104 008c DFED557A 		vldr.32	s15, .L609
 4105 0090 B4EEE78A 		vcmpe.f32	s16, s15
 4106 0094 F1EE10FA 		vmrs	APSR_nzcv, FPSCR
 4107 0098 19D4     		bmi	.L604
 4108 009a DFED537A 		vldr.32	s15, .L609+4
 4109 009e B4EEE78A 		vcmpe.f32	s16, s15
 4110 00a2 F1EE10FA 		vmrs	APSR_nzcv, FPSCR
 4111 00a6 37D4     		bmi	.L605
 4112 00a8 DFED507A 		vldr.32	s15, .L609+8
 4113 00ac B4EEE78A 		vcmpe.f32	s16, s15
 4114 00b0 F1EE10FA 		vmrs	APSR_nzcv, FPSCR
 4115 00b4 55D4     		bmi	.L606
 4116 00b6 DFED4E7A 		vldr.32	s15, .L609+12
 4117 00ba B4EEE78A 		vcmpe.f32	s16, s15
 4118 00be F1EE10FA 		vmrs	APSR_nzcv, FPSCR
 4119 00c2 6FD4     		bmi	.L607
 4120 00c4 3CDC     		bgt	.L608
 4121              	.L560:
 4122 00c6 03B0     		add	sp, sp, #12
 4123              		@ sp needed
 4124 00c8 BDEC028B 		vldm	sp!, {d8}
ARM GAS  /var/folders/lg/77ksxqjx0n7gwph6nqpzcmcw0000gn/T//ccn5JkAm.s 			page 72


 4125 00cc 30BD     		pop	{r4, r5, pc}
 4126              	.L604:
 4127 00ce 4FF07A54 		mov	r4, #1048576000
 4128 00d2 4D48     		ldr	r0, .L609+36
 4129 00d4 0221     		movs	r1, #2
 4130 00d6 4D4B     		ldr	r3, .L609+40
 4131 00d8 4268     		ldr	r2, [r0, #4]
 4132 00da 4FF07E55 		mov	r5, #1065353216
 4133 00de 0091     		str	r1, [sp]
 4134 00e0 0021     		movs	r1, #0
 4135 00e2 1C60     		str	r4, [r3]	@ float
 4136 00e4 4A4C     		ldr	r4, .L609+44
 4137 00e6 4B4B     		ldr	r3, .L609+48
 4138 00e8 2560     		str	r5, [r4]	@ float
 4139 00ea FFF7FEFF 		bl	_ZNSt7__cxx1112basic_stringIcSt11char_traitsIcESaIcEE10_M_replaceEjjPKcj
 4140 00ee 03B0     		add	sp, sp, #12
 4141              		@ sp needed
 4142 00f0 BDEC028B 		vldm	sp!, {d8}
 4143 00f4 30BD     		pop	{r4, r5, pc}
 4144              	.L600:
 4145 00f6 4FF07A54 		mov	r4, #1048576000
 4146 00fa 0221     		movs	r1, #2
 4147 00fc 3D4B     		ldr	r3, .L609+16
 4148 00fe 4FF07E55 		mov	r5, #1065353216
 4149 0102 3D48     		ldr	r0, .L609+20
 4150 0104 4268     		ldr	r2, [r0, #4]
 4151 0106 0091     		str	r1, [sp]
 4152 0108 0021     		movs	r1, #0
 4153 010a 1C60     		str	r4, [r3]	@ float
 4154 010c 3B4C     		ldr	r4, .L609+24
 4155 010e 414B     		ldr	r3, .L609+48
 4156 0110 2560     		str	r5, [r4]	@ float
 4157 0112 FFF7FEFF 		bl	_ZNSt7__cxx1112basic_stringIcSt11char_traitsIcESaIcEE10_M_replaceEjjPKcj
 4158 0116 B9E7     		b	.L563
 4159              	.L605:
 4160 0118 4FF07C54 		mov	r4, #1056964608
 4161 011c 3A48     		ldr	r0, .L609+36
 4162 011e 0221     		movs	r1, #2
 4163 0120 3A4B     		ldr	r3, .L609+40
 4164 0122 4268     		ldr	r2, [r0, #4]
 4165 0124 4FF07E55 		mov	r5, #1065353216
 4166 0128 0091     		str	r1, [sp]
 4167 012a 0021     		movs	r1, #0
 4168 012c 1C60     		str	r4, [r3]	@ float
 4169 012e 384C     		ldr	r4, .L609+44
 4170 0130 344B     		ldr	r3, .L609+32
 4171 0132 2560     		str	r5, [r4]	@ float
 4172 0134 FFF7FEFF 		bl	_ZNSt7__cxx1112basic_stringIcSt11char_traitsIcESaIcEE10_M_replaceEjjPKcj
 4173 0138 03B0     		add	sp, sp, #12
 4174              		@ sp needed
 4175 013a BDEC028B 		vldm	sp!, {d8}
 4176 013e 30BD     		pop	{r4, r5, pc}
 4177              	.L608:
 4178 0140 4FF08144 		mov	r4, #1082130432
 4179 0144 0221     		movs	r1, #2
 4180 0146 314B     		ldr	r3, .L609+40
 4181 0148 4FF07C55 		mov	r5, #1056964608
ARM GAS  /var/folders/lg/77ksxqjx0n7gwph6nqpzcmcw0000gn/T//ccn5JkAm.s 			page 73


 4182 014c 2E48     		ldr	r0, .L609+36
 4183 014e 4268     		ldr	r2, [r0, #4]
 4184 0150 0091     		str	r1, [sp]
 4185 0152 0021     		movs	r1, #0
 4186 0154 1C60     		str	r4, [r3]	@ float
 4187 0156 2E4C     		ldr	r4, .L609+44
 4188 0158 294B     		ldr	r3, .L609+28
 4189 015a 2560     		str	r5, [r4]	@ float
 4190 015c FFF7FEFF 		bl	_ZNSt7__cxx1112basic_stringIcSt11char_traitsIcESaIcEE10_M_replaceEjjPKcj
 4191 0160 B1E7     		b	.L560
 4192              	.L606:
 4193 0162 4FF07E54 		mov	r4, #1065353216
 4194 0166 2848     		ldr	r0, .L609+36
 4195 0168 0221     		movs	r1, #2
 4196 016a 284B     		ldr	r3, .L609+40
 4197 016c 284D     		ldr	r5, .L609+44
 4198 016e 4268     		ldr	r2, [r0, #4]
 4199 0170 0091     		str	r1, [sp]
 4200 0172 0021     		movs	r1, #0
 4201 0174 1C60     		str	r4, [r3]	@ float
 4202 0176 284B     		ldr	r3, .L609+52
 4203 0178 2C60     		str	r4, [r5]	@ float
 4204 017a FFF7FEFF 		bl	_ZNSt7__cxx1112basic_stringIcSt11char_traitsIcESaIcEE10_M_replaceEjjPKcj
 4205 017e 03B0     		add	sp, sp, #12
 4206              		@ sp needed
 4207 0180 BDEC028B 		vldm	sp!, {d8}
 4208 0184 30BD     		pop	{r4, r5, pc}
 4209              	.L602:
 4210 0186 4FF07E54 		mov	r4, #1065353216
 4211 018a 0221     		movs	r1, #2
 4212 018c 194B     		ldr	r3, .L609+16
 4213 018e 1B4D     		ldr	r5, .L609+24
 4214 0190 1948     		ldr	r0, .L609+20
 4215 0192 4268     		ldr	r2, [r0, #4]
 4216 0194 0091     		str	r1, [sp]
 4217 0196 0021     		movs	r1, #0
 4218 0198 1C60     		str	r4, [r3]	@ float
 4219 019a 2C60     		str	r4, [r5]	@ float
 4220 019c 1E4B     		ldr	r3, .L609+52
 4221 019e FFF7FEFF 		bl	_ZNSt7__cxx1112basic_stringIcSt11char_traitsIcESaIcEE10_M_replaceEjjPKcj
 4222 01a2 73E7     		b	.L563
 4223              	.L607:
 4224 01a4 4FF08045 		mov	r5, #1073741824
 4225 01a8 0221     		movs	r1, #2
 4226 01aa 184B     		ldr	r3, .L609+40
 4227 01ac 1648     		ldr	r0, .L609+36
 4228 01ae 184C     		ldr	r4, .L609+44
 4229 01b0 4268     		ldr	r2, [r0, #4]
 4230 01b2 0091     		str	r1, [sp]
 4231 01b4 0021     		movs	r1, #0
 4232 01b6 1D60     		str	r5, [r3]	@ float
 4233 01b8 184D     		ldr	r5, .L609+56
 4234 01ba 194B     		ldr	r3, .L609+60
 4235 01bc 2560     		str	r5, [r4]	@ float
 4236 01be FFF7FEFF 		bl	_ZNSt7__cxx1112basic_stringIcSt11char_traitsIcESaIcEE10_M_replaceEjjPKcj
 4237 01c2 80E7     		b	.L560
 4238              	.L603:
ARM GAS  /var/folders/lg/77ksxqjx0n7gwph6nqpzcmcw0000gn/T//ccn5JkAm.s 			page 74


 4239 01c4 4FF08045 		mov	r5, #1073741824
 4240 01c8 0221     		movs	r1, #2
 4241 01ca 0A4B     		ldr	r3, .L609+16
 4242 01cc 0A48     		ldr	r0, .L609+20
 4243 01ce 0B4C     		ldr	r4, .L609+24
 4244 01d0 4268     		ldr	r2, [r0, #4]
 4245 01d2 0091     		str	r1, [sp]
 4246 01d4 0021     		movs	r1, #0
 4247 01d6 1D60     		str	r5, [r3]	@ float
 4248 01d8 104D     		ldr	r5, .L609+56
 4249 01da 114B     		ldr	r3, .L609+60
 4250 01dc 2560     		str	r5, [r4]	@ float
 4251 01de FFF7FEFF 		bl	_ZNSt7__cxx1112basic_stringIcSt11char_traitsIcESaIcEE10_M_replaceEjjPKcj
 4252 01e2 53E7     		b	.L563
 4253              	.L610:
 4254              		.align	2
 4255              	.L609:
 4256 01e4 CDCC4C3E 		.word	1045220557
 4257 01e8 CDCCCC3E 		.word	1053609165
 4258 01ec 9A99193F 		.word	1058642330
 4259 01f0 CDCC4C3F 		.word	1061997773
 4260 01f4 00000000 		.word	.LANCHOR103
 4261 01f8 00000000 		.word	.LANCHOR105
 4262 01fc 00000000 		.word	.LANCHOR104
 4263 0200 10000000 		.word	.LC4
 4264 0204 04000000 		.word	.LC1
 4265 0208 00000000 		.word	.LANCHOR108
 4266 020c 00000000 		.word	.LANCHOR106
 4267 0210 00000000 		.word	.LANCHOR107
 4268 0214 00000000 		.word	.LC0
 4269 0218 08000000 		.word	.LC2
 4270 021c 3333333F 		.word	1060320051
 4271 0220 0C000000 		.word	.LC3
 4273              		.section	.text._Z19GetSampleFromBufferPff,"ax",%progbits
 4274              		.align	1
 4275              		.p2align 2,,3
 4276              		.global	_Z19GetSampleFromBufferPff
 4277              		.syntax unified
 4278              		.thumb
 4279              		.thumb_func
 4280              		.fpu fpv5-d16
 4282              	_Z19GetSampleFromBufferPff:
 4283              		@ args = 0, pretend = 0, frame = 0
 4284              		@ frame_needed = 0, uses_anonymous_args = 0
 4285              		@ link register save eliminated.
 4286 0000 FDEEC07A 		vcvt.s32.f32	s15, s0
 4287 0004 F0B4     		push	{r4, r5, r6, r7}
 4288 0006 17EE903A 		vmov	r3, s15	@ int
 4289 000a 114C     		ldr	r4, .L613
 4290 000c 114E     		ldr	r6, .L613+4
 4291 000e F8EEE77A 		vcvt.f32.s32	s15, s15
 4292 0012 5D1C     		adds	r5, r3, #1
 4293 0014 84FB0327 		smull	r2, r7, r4, r3
 4294 0018 DA17     		asrs	r2, r3, #31
 4295 001a 84FB0514 		smull	r1, r4, r4, r5
 4296 001e E917     		asrs	r1, r5, #31
 4297 0020 C2EB2752 		rsb	r2, r2, r7, asr #20
ARM GAS  /var/folders/lg/77ksxqjx0n7gwph6nqpzcmcw0000gn/T//ccn5JkAm.s 			page 75


 4298 0024 70EE677A 		vsub.f32	s15, s0, s15
 4299 0028 C1EB2451 		rsb	r1, r1, r4, asr #20
 4300 002c 06FB1233 		mls	r3, r6, r2, r3
 4301 0030 06FB1152 		mls	r2, r6, r1, r5
 4302 0034 00EB8303 		add	r3, r0, r3, lsl #2
 4303 0038 00EB8200 		add	r0, r0, r2, lsl #2
 4304 003c 93ED000A 		vldr.32	s0, [r3]
 4305 0040 90ED007A 		vldr.32	s14, [r0]
 4306 0044 37EE407A 		vsub.f32	s14, s14, s0
 4307 0048 F0BC     		pop	{r4, r5, r6, r7}
 4308 004a A7EE270A 		vfma.f32	s0, s14, s15
 4309 004e 7047     		bx	lr
 4310              	.L614:
 4311              		.align	2
 4312              	.L613:
 4313 0050 EFED345D 		.word	1563749871
 4314 0054 00F22B00 		.word	2880000
 4316              		.section	.text._Z15GetLooperSampleRfS_ff,"ax",%progbits
 4317              		.align	1
 4318              		.p2align 2,,3
 4319              		.global	_Z15GetLooperSampleRfS_ff
 4320              		.syntax unified
 4321              		.thumb
 4322              		.thumb_func
 4323              		.fpu fpv5-d16
 4325              	_Z15GetLooperSampleRfS_ff:
 4326              		@ args = 0, pretend = 0, frame = 16
 4327              		@ frame_needed = 0, uses_anonymous_args = 0
 4328 0000 2DE9F04F 		push	{r4, r5, r6, r7, r8, r9, r10, fp, lr}
 4329 0004 C54A     		ldr	r2, .L702
 4330 0006 4FF00008 		mov	r8, #0
 4331 000a DFF854E3 		ldr	lr, .L702+68
 4332 000e C44E     		ldr	r6, .L702+4
 4333 0010 DEF800C0 		ldr	ip, [lr]
 4334 0014 3368     		ldr	r3, [r6]
 4335 0016 1268     		ldr	r2, [r2]
 4336 0018 C24D     		ldr	r5, .L702+8
 4337 001a C34C     		ldr	r4, .L702+12
 4338 001c 9A42     		cmp	r2, r3
 4339 001e 05EB8C0A 		add	r10, r5, ip, lsl #2
 4340 0022 04EB8C09 		add	r9, r4, ip, lsl #2
 4341 0026 2DED048B 		vpush.64	{d8, d9}
 4342 002a C1F80080 		str	r8, [r1]	@ float
 4343 002e F0EE408A 		vmov.f32	s17, s0
 4344 0032 C0F80080 		str	r8, [r0]	@ float
 4345 0036 85B0     		sub	sp, sp, #20
 4346 0038 4FEA8C08 		lsl	r8, ip, #2
 4347 003c 8AED000A 		vstr.32	s0, [r10]
 4348 0040 C9ED000A 		vstr.32	s1, [r9]
 4349 0044 07DA     		bge	.L616
 4350 0046 05EB830A 		add	r10, r5, r3, lsl #2
 4351 004a 04EB8309 		add	r9, r4, r3, lsl #2
 4352 004e 8AED000A 		vstr.32	s0, [r10]
 4353 0052 C9ED000A 		vstr.32	s1, [r9]
 4354              	.L616:
 4355 0056 DFF80C93 		ldr	r9, .L702+72
 4356 005a 0CF1010C 		add	ip, ip, #1
ARM GAS  /var/folders/lg/77ksxqjx0n7gwph6nqpzcmcw0000gn/T//ccn5JkAm.s 			page 76


 4357 005e 99F80090 		ldrb	r9, [r9]	@ zero_extendqisi2
 4358 0062 B9F1000F 		cmp	r9, #0
 4359 0066 7BD1     		bne	.L617
 4360 0068 9444     		add	ip, ip, r2
 4361 006a DFF8FC92 		ldr	r9, .L702+76
 4362 006e DFF8FCB2 		ldr	fp, .L702+80
 4363 0072 C144     		add	r9, r9, r8
 4364 0074 D844     		add	r8, r8, fp
 4365 0076 C9ED008A 		vstr.32	s17, [r9]
 4366 007a C8ED000A 		vstr.32	s1, [r8]
 4367 007e 9CFBF2FA 		sdiv	r10, ip, r2
 4368 0082 02FB1ACC 		mls	ip, r2, r10, ip
 4369 0086 DFF8B8A2 		ldr	r10, .L702+36
 4370 008a CEF800C0 		str	ip, [lr]
 4371 008e 9AF800C0 		ldrb	ip, [r10]	@ zero_extendqisi2
 4372 0092 BCF1000F 		cmp	ip, #0
 4373 0096 40F07B81 		bne	.L697
 4374              	.L619:
 4375 009a DFF8D482 		ldr	r8, .L702+84
 4376 009e 0133     		adds	r3, r3, #1
 4377 00a0 DFF8B0E2 		ldr	lr, .L702+56
 4378 00a4 D8F80040 		ldr	r4, [r8]
 4379 00a8 DFF8C8C2 		ldr	ip, .L702+88
 4380 00ac 0134     		adds	r4, r4, #1
 4381 00ae 6245     		cmp	r2, ip
 4382 00b0 03EB0405 		add	r5, r3, r4
 4383 00b4 C8F80040 		str	r4, [r8]
 4384 00b8 95FBF4F3 		sdiv	r3, r5, r4
 4385 00bc 04FB1353 		mls	r3, r4, r3, r5
 4386 00c0 8EFB0345 		smull	r4, r5, lr, r3
 4387 00c4 4FEAE374 		asr	r4, r3, #31
 4388 00c8 C4EB2554 		rsb	r4, r4, r5, asr #20
 4389 00cc 0CFB1434 		mls	r4, ip, r4, r3
 4390 00d0 3460     		str	r4, [r6]
 4391 00d2 02DB     		blt	.L652
 4392 00d4 954B     		ldr	r3, .L702+16
 4393 00d6 914A     		ldr	r2, .L702
 4394 00d8 1360     		str	r3, [r2]
 4395              	.L652:
 4396 00da 954C     		ldr	r4, .L702+20
 4397 00dc 9FED957A 		vldr.32	s14, .L702+24
 4398 00e0 D4ED007A 		vldr.32	s15, [r4]
 4399 00e4 F4EEC77A 		vcmpe.f32	s15, s14
 4400 00e8 F1EE10FA 		vmrs	APSR_nzcv, FPSCR
 4401 00ec 40F32282 		ble	.L687
 4402 00f0 4FF07E53 		mov	r3, #1065353216
 4403 00f4 9FED909A 		vldr.32	s18, .L702+28
 4404 00f8 2360     		str	r3, [r4]	@ float
 4405 00fa 90ED008A 		vldr.32	s16, [r0]
 4406              	.L655:
 4407 00fe A8EE898A 		vfma.f32	s16, s17, s18
 4408 0102 B6EE007A 		vmov.f32	s14, #5.0e-1
 4409 0106 80ED008A 		vstr.32	s16, [r0]
 4410 010a 94ED000A 		vldr.32	s0, [r4]
 4411 010e 70EE007A 		vadd.f32	s15, s0, s0
 4412 0112 27EE877A 		vmul.f32	s14, s15, s14
 4413 0116 B5EE407A 		vcmp.f32	s14, #0
ARM GAS  /var/folders/lg/77ksxqjx0n7gwph6nqpzcmcw0000gn/T//ccn5JkAm.s 			page 77


 4414 011a B1EEC78A 		vsqrt.f32	s16, s14
 4415 011e F1EE10FA 		vmrs	APSR_nzcv, FPSCR
 4416 0122 00F1E083 		bmi	.L698
 4417              	.L659:
 4418 0126 B0EE000A 		vmov.f32	s0, #2.0e+0
 4419 012a 9FED847A 		vldr.32	s14, .L702+32
 4420 012e D1ED006A 		vldr.32	s13, [r1]
 4421 0132 30EE670A 		vsub.f32	s0, s0, s15
 4422 0136 28EE268A 		vmul.f32	s16, s16, s13
 4423 013a 20EE070A 		vmul.f32	s0, s0, s14
 4424 013e B5EE400A 		vcmp.f32	s0, #0
 4425 0142 F1EEC08A 		vsqrt.f32	s17, s0
 4426 0146 F1EE10FA 		vmrs	APSR_nzcv, FPSCR
 4427 014a 00F1C383 		bmi	.L699
 4428              	.L660:
 4429 014e A0EEA88A 		vfma.f32	s16, s1, s17
 4430 0152 81ED008A 		vstr.32	s16, [r1]
 4431 0156 05B0     		add	sp, sp, #20
 4432              		@ sp needed
 4433 0158 BDEC048B 		vldm	sp!, {d8-d9}
 4434 015c BDE8F08F 		pop	{r4, r5, r6, r7, r8, r9, r10, fp, pc}
 4435              	.L617:
 4436 0160 774C     		ldr	r4, .L702+36
 4437 0162 9444     		add	ip, ip, r2
 4438 0164 2578     		ldrb	r5, [r4]	@ zero_extendqisi2
 4439 0166 9CFBF2F4 		sdiv	r4, ip, r2
 4440 016a 02FB14C4 		mls	r4, r2, r4, ip
 4441 016e CEF80040 		str	r4, [lr]
 4442 0172 002D     		cmp	r5, #0
 4443 0174 91D0     		beq	.L619
 4444 0176 734D     		ldr	r5, .L702+40
 4445 0178 734C     		ldr	r4, .L702+44
 4446 017a 95ED007A 		vldr.32	s14, [r5]	@ int
 4447 017e D4ED006A 		vldr.32	s13, [r4]
 4448 0182 B8EEC77A 		vcvt.f32.s32	s14, s14
 4449 0186 DFF8F0E1 		ldr	lr, .L702+92
 4450 018a 704D     		ldr	r5, .L702+48
 4451 018c DEED007A 		vldr.32	s15, [lr]
 4452 0190 67EE266A 		vmul.f32	s13, s14, s13
 4453 0194 95ED006A 		vldr.32	s12, [r5]
 4454 0198 6D4C     		ldr	r4, .L702+52
 4455 019a 77EE867A 		vadd.f32	s15, s15, s12
 4456 019e FDEEE66A 		vcvt.s32.f32	s13, s13
 4457 01a2 CEED007A 		vstr.32	s15, [lr]
 4458 01a6 B8EEE66A 		vcvt.f32.s32	s12, s13
 4459 01aa C4ED006A 		vstr.32	s13, [r4]	@ int
 4460 01ae F4EEC67A 		vcmpe.f32	s15, s12
 4461 01b2 F1EE10FA 		vmrs	APSR_nzcv, FPSCR
 4462 01b6 00F33182 		bgt	.L700
 4463 01ba F5EEC07A 		vcmpe.f32	s15, #0
 4464 01be F1EE10FA 		vmrs	APSR_nzcv, FPSCR
 4465 01c2 00F1A282 		bmi	.L641
 4466 01c6 FDEEE76A 		vcvt.s32.f32	s13, s15
 4467 01ca 624D     		ldr	r5, .L702+56
 4468 01cc DFF8A491 		ldr	r9, .L702+88
 4469 01d0 16EE904A 		vmov	r4, s13	@ int
 4470 01d4 B8EEE66A 		vcvt.f32.s32	s12, s13
ARM GAS  /var/folders/lg/77ksxqjx0n7gwph6nqpzcmcw0000gn/T//ccn5JkAm.s 			page 78


 4471 01d8 04F10108 		add	r8, r4, #1
 4472 01dc 85FB047A 		smull	r7, r10, r5, r4
 4473 01e0 4FEAE47E 		asr	lr, r4, #31
 4474 01e4 37EEC66A 		vsub.f32	s12, s15, s12
 4475 01e8 85FB085C 		smull	r5, ip, r5, r8
 4476 01ec 4FEAE875 		asr	r5, r8, #31
 4477 01f0 CEEB2A5E 		rsb	lr, lr, r10, asr #20
 4478 01f4 C5EB2C55 		rsb	r5, r5, ip, asr #20
 4479 01f8 DFF86CC1 		ldr	ip, .L702+76
 4480 01fc 09FB1E44 		mls	r4, r9, lr, r4
 4481 0200 09FB1585 		mls	r5, r9, r5, r8
 4482 0204 0CEB8404 		add	r4, ip, r4, lsl #2
 4483 0208 AD00     		lsls	r5, r5, #2
 4484              	.L640:
 4485 020a DFF870E1 		ldr	lr, .L702+96
 4486 020e DFF87081 		ldr	r8, .L702+100
 4487 0212 DEED007A 		vldr.32	s15, [lr]
 4488 0216 DFF86C91 		ldr	r9, .L702+104
 4489 021a 27EE277A 		vmul.f32	s14, s14, s15
 4490 021e D8ED006A 		vldr.32	s13, [r8]
 4491 0222 D9ED007A 		vldr.32	s15, [r9]
 4492 0226 DFF860E1 		ldr	lr, .L702+108
 4493 022a BDEEC77A 		vcvt.s32.f32	s14, s14
 4494 022e 76EEA76A 		vadd.f32	s13, s13, s15
 4495 0232 F8EEC77A 		vcvt.f32.s32	s15, s14
 4496 0236 8EED007A 		vstr.32	s14, [lr]	@ int
 4497 023a C8ED006A 		vstr.32	s13, [r8]
 4498 023e F4EEE76A 		vcmpe.f32	s13, s15
 4499 0242 F1EE10FA 		vmrs	APSR_nzcv, FPSCR
 4500 0246 40F33E82 		ble	.L686
 4501 024a 76EEE76A 		vsub.f32	s13, s13, s15
 4502 024e DFED3A7A 		vldr.32	s15, .L702+28
 4503 0252 DFF838E1 		ldr	lr, .L702+112
 4504 0256 4FF07E5A 		mov	r10, #1065353216
 4505 025a 4FF00A09 		mov	r9, #10
 4506 025e F4EEE76A 		vcmpe.f32	s13, s15
 4507 0262 CEED0D7A 		vstr.32	s15, [lr, #52]
 4508 0266 CEF83CA0 		str	r10, [lr, #60]	@ float
 4509 026a CEF80C90 		str	r9, [lr, #12]
 4510 026e F1EE10FA 		vmrs	APSR_nzcv, FPSCR
 4511 0272 CEED0E7A 		vstr.32	s15, [lr, #56]
 4512 0276 00F18C82 		bmi	.L669
 4513              	.L694:
 4514 027a 07EE902A 		vmov	s15, r2	@ int
 4515 027e F8EEE77A 		vcvt.f32.s32	s15, s15
 4516 0282 F4EE676A 		vcmp.f32	s13, s15
 4517 0286 F1EE10FA 		vmrs	APSR_nzcv, FPSCR
 4518 028a 77FEA66A 		vselgt.f32	s13, s15, s13
 4519              	.L650:
 4520 028e C8ED006A 		vstr.32	s13, [r8]
 4521              	.L648:
 4522 0292 6544     		add	r5, r5, ip
 4523 0294 D4ED007A 		vldr.32	s15, [r4]
 4524 0298 2F4C     		ldr	r4, .L702+60
 4525 029a D5ED006A 		vldr.32	s13, [r5]
 4526 029e 94ED007A 		vldr.32	s14, [r4]
 4527 02a2 76EEE76A 		vsub.f32	s13, s13, s15
ARM GAS  /var/folders/lg/77ksxqjx0n7gwph6nqpzcmcw0000gn/T//ccn5JkAm.s 			page 79


 4528 02a6 2D4C     		ldr	r4, .L702+64
 4529 02a8 DFF8A8A0 		ldr	r10, .L702+56
 4530 02ac DFF8C490 		ldr	r9, .L702+88
 4531 02b0 E6EE867A 		vfma.f32	s15, s13, s12
 4532 02b4 DFF8B4E0 		ldr	lr, .L702+80
 4533 02b8 67EE277A 		vmul.f32	s15, s14, s15
 4534 02bc C0ED007A 		vstr.32	s15, [r0]
 4535 02c0 98ED007A 		vldr.32	s14, [r8]
 4536 02c4 D4ED006A 		vldr.32	s13, [r4]
 4537 02c8 FDEEC77A 		vcvt.s32.f32	s15, s14
 4538 02cc 17EE904A 		vmov	r4, s15	@ int
 4539 02d0 F8EEE77A 		vcvt.f32.s32	s15, s15
 4540 02d4 04F10108 		add	r8, r4, #1
 4541 02d8 8AFB045B 		smull	r5, fp, r10, r4
 4542 02dc E517     		asrs	r5, r4, #31
 4543 02de 37EE677A 		vsub.f32	s14, s14, s15
 4544 02e2 8AFB087A 		smull	r7, r10, r10, r8
 4545 02e6 4FEAE87C 		asr	ip, r8, #31
 4546 02ea C5EB2B55 		rsb	r5, r5, fp, asr #20
 4547 02ee CCEB2A5C 		rsb	ip, ip, r10, asr #20
 4548 02f2 09FB1544 		mls	r4, r9, r5, r4
 4549 02f6 09FB1C85 		mls	r5, r9, ip, r8
 4550 02fa 0EEB8404 		add	r4, lr, r4, lsl #2
 4551 02fe 0EEB8505 		add	r5, lr, r5, lsl #2
 4552 0302 D4ED007A 		vldr.32	s15, [r4]
 4553 0306 95ED006A 		vldr.32	s12, [r5]
 4554 030a 36EE676A 		vsub.f32	s12, s12, s15
 4555 030e E7EE067A 		vfma.f32	s15, s14, s12
 4556 0312 66EEA77A 		vmul.f32	s15, s13, s15
 4557 0316 C1ED007A 		vstr.32	s15, [r1]
 4558 031a BEE6     		b	.L619
 4559              	.L703:
 4560              		.align	2
 4561              	.L702:
 4562 031c 00000000 		.word	.LANCHOR75
 4563 0320 00000000 		.word	.LANCHOR74
 4564 0324 00000000 		.word	mlooper_buf_1l
 4565 0328 00000000 		.word	mlooper_buf_1r
 4566 032c FFF12B00 		.word	2879999
 4567 0330 00000000 		.word	.LANCHOR113
 4568 0334 48E17A3F 		.word	1065017672
 4569 0338 00000000 		.word	0
 4570 033c 3333733F 		.word	1064514355
 4571 0340 00000000 		.word	.LANCHOR68
 4572 0344 00000000 		.word	.LANCHOR76
 4573 0348 00000000 		.word	.LANCHOR99
 4574 034c 00000000 		.word	.LANCHOR103
 4575 0350 00000000 		.word	.LANCHOR111
 4576 0354 EFED345D 		.word	1563749871
 4577 0358 00000000 		.word	.LANCHOR104
 4578 035c 00000000 		.word	.LANCHOR107
 4579 0360 00000000 		.word	.LANCHOR73
 4580 0364 00000000 		.word	.LANCHOR98
 4581 0368 00000000 		.word	mlooper_frozen_buf_1l
 4582 036c 00000000 		.word	mlooper_frozen_buf_1r
 4583 0370 00000000 		.word	.LANCHOR77
 4584 0374 00F22B00 		.word	2880000
ARM GAS  /var/folders/lg/77ksxqjx0n7gwph6nqpzcmcw0000gn/T//ccn5JkAm.s 			page 80


 4585 0378 00000000 		.word	.LANCHOR70
 4586 037c 00000000 		.word	.LANCHOR101
 4587 0380 00000000 		.word	.LANCHOR72
 4588 0384 00000000 		.word	.LANCHOR106
 4589 0388 00000000 		.word	.LANCHOR112
 4590 038c 00000000 		.word	.LANCHOR18
 4591              	.L697:
 4592 0390 07EE902A 		vmov	s15, r2	@ int
 4593 0394 DFF870C4 		ldr	ip, .L704+20
 4594 0398 DFF87084 		ldr	r8, .L704+24
 4595 039c F8EEE75A 		vcvt.f32.s32	s11, s15
 4596 03a0 9CED007A 		vldr.32	s14, [ip]
 4597 03a4 DFF868E4 		ldr	lr, .L704+28
 4598 03a8 D8ED007A 		vldr.32	s15, [r8]
 4599 03ac 25EE877A 		vmul.f32	s14, s11, s14
 4600 03b0 DEED006A 		vldr.32	s13, [lr]
 4601 03b4 DFF85CC4 		ldr	ip, .L704+32
 4602 03b8 77EEA67A 		vadd.f32	s15, s15, s13
 4603 03bc BDEEC77A 		vcvt.s32.f32	s14, s14
 4604 03c0 C8ED007A 		vstr.32	s15, [r8]
 4605 03c4 F8EEC76A 		vcvt.f32.s32	s13, s14
 4606 03c8 8CED007A 		vstr.32	s14, [ip]	@ int
 4607 03cc F4EEE67A 		vcmpe.f32	s15, s13
 4608 03d0 F1EE10FA 		vmrs	APSR_nzcv, FPSCR
 4609 03d4 00F3DB80 		bgt	.L701
 4610 03d8 F5EEC07A 		vcmpe.f32	s15, #0
 4611 03dc F1EE10FA 		vmrs	APSR_nzcv, FPSCR
 4612 03e0 00F18281 		bmi	.L625
 4613 03e4 BDEEE77A 		vcvt.s32.f32	s14, s15
 4614 03e8 DFF818B4 		ldr	fp, .L704+16
 4615 03ec DFF82884 		ldr	r8, .L704+36
 4616 03f0 17EE10CA 		vmov	ip, s14	@ int
 4617 03f4 B8EEC76A 		vcvt.f32.s32	s12, s14
 4618 03f8 0CF1010A 		add	r10, ip, #1
 4619 03fc 8BFB0CE7 		smull	lr, r7, fp, ip
 4620 0400 4FEAEC7E 		asr	lr, ip, #31
 4621 0404 37EEC66A 		vsub.f32	s12, s15, s12
 4622 0408 8BFB0A9B 		smull	r9, fp, fp, r10
 4623 040c 4FEAEA79 		asr	r9, r10, #31
 4624 0410 CEEB275E 		rsb	lr, lr, r7, asr #20
 4625 0414 C9EB2B59 		rsb	r9, r9, fp, asr #20
 4626 0418 08FB1ECC 		mls	ip, r8, lr, ip
 4627 041c 08FB19A9 		mls	r9, r8, r9, r10
 4628 0420 05EB8C0C 		add	ip, r5, ip, lsl #2
 4629 0424 4FEA8909 		lsl	r9, r9, #2
 4630              	.L624:
 4631 0428 DFF8F0E3 		ldr	lr, .L704+40
 4632 042c DFF8F083 		ldr	r8, .L704+44
 4633 0430 DEED006A 		vldr.32	s13, [lr]
 4634 0434 DFF8ECA3 		ldr	r10, .L704+48
 4635 0438 65EEA66A 		vmul.f32	s13, s11, s13
 4636 043c 98ED007A 		vldr.32	s14, [r8]
 4637 0440 DAED007A 		vldr.32	s15, [r10]
 4638 0444 DFF8E0E3 		ldr	lr, .L704+52
 4639 0448 FDEEE66A 		vcvt.s32.f32	s13, s13
 4640 044c 37EE277A 		vadd.f32	s14, s14, s15
 4641 0450 F8EEE67A 		vcvt.f32.s32	s15, s13
ARM GAS  /var/folders/lg/77ksxqjx0n7gwph6nqpzcmcw0000gn/T//ccn5JkAm.s 			page 81


 4642 0454 CEED006A 		vstr.32	s13, [lr]	@ int
 4643 0458 88ED007A 		vstr.32	s14, [r8]
 4644 045c B4EEE77A 		vcmpe.f32	s14, s15
 4645 0460 F1EE10FA 		vmrs	APSR_nzcv, FPSCR
 4646 0464 40F31E81 		ble	.L684
 4647 0468 37EE677A 		vsub.f32	s14, s14, s15
 4648 046c DFEDE17A 		vldr.32	s15, .L704
 4649 0470 DFF88CE3 		ldr	lr, .L704+12
 4650 0474 4FF07E5B 		mov	fp, #1065353216
 4651 0478 4FF00A0A 		mov	r10, #10
 4652 047c B4EEE77A 		vcmpe.f32	s14, s15
 4653 0480 CEED0E7A 		vstr.32	s15, [lr, #56]
 4654 0484 CEF834B0 		str	fp, [lr, #52]	@ float
 4655 0488 CEF80CA0 		str	r10, [lr, #12]
 4656 048c F1EE10FA 		vmrs	APSR_nzcv, FPSCR
 4657 0490 CEED0F7A 		vstr.32	s15, [lr, #60]
 4658 0494 00F18081 		bmi	.L665
 4659              	.L693:
 4660 0498 F4EE475A 		vcmp.f32	s11, s14
 4661 049c F1EE10FA 		vmrs	APSR_nzcv, FPSCR
 4662 04a0 48BF     		it	mi
 4663 04a2 B0EE657A 		vmovmi.f32	s14, s11
 4664              	.L634:
 4665 04a6 88ED007A 		vstr.32	s14, [r8]
 4666              	.L632:
 4667 04aa 4D44     		add	r5, r5, r9
 4668 04ac DCED007A 		vldr.32	s15, [ip]
 4669 04b0 DFF878C3 		ldr	ip, .L704+56
 4670 04b4 D5ED006A 		vldr.32	s13, [r5]
 4671 04b8 9CED007A 		vldr.32	s14, [ip]
 4672 04bc 76EEE76A 		vsub.f32	s13, s13, s15
 4673 04c0 CD4D     		ldr	r5, .L704+4
 4674 04c2 DFF840A3 		ldr	r10, .L704+16
 4675 04c6 DFF85093 		ldr	r9, .L704+36
 4676 04ca E6EE867A 		vfma.f32	s15, s13, s12
 4677 04ce 67EE277A 		vmul.f32	s15, s14, s15
 4678 04d2 C0ED007A 		vstr.32	s15, [r0]
 4679 04d6 98ED007A 		vldr.32	s14, [r8]
 4680 04da D5ED006A 		vldr.32	s13, [r5]
 4681 04de FDEEC77A 		vcvt.s32.f32	s15, s14
 4682 04e2 17EE905A 		vmov	r5, s15	@ int
 4683 04e6 F8EEE77A 		vcvt.f32.s32	s15, s15
 4684 04ea 05F10108 		add	r8, r5, #1
 4685 04ee 8AFB057B 		smull	r7, fp, r10, r5
 4686 04f2 4FEAE57C 		asr	ip, r5, #31
 4687 04f6 37EE677A 		vsub.f32	s14, s14, s15
 4688 04fa 8AFB087A 		smull	r7, r10, r10, r8
 4689 04fe 4FEAE87E 		asr	lr, r8, #31
 4690 0502 CCEB2B5C 		rsb	ip, ip, fp, asr #20
 4691 0506 CEEB2A5E 		rsb	lr, lr, r10, asr #20
 4692 050a 09FB1C55 		mls	r5, r9, ip, r5
 4693 050e 09FB1E8C 		mls	ip, r9, lr, r8
 4694 0512 04EB8505 		add	r5, r4, r5, lsl #2
 4695 0516 04EB8C04 		add	r4, r4, ip, lsl #2
 4696 051a D5ED007A 		vldr.32	s15, [r5]
 4697 051e 94ED006A 		vldr.32	s12, [r4]
 4698 0522 36EE676A 		vsub.f32	s12, s12, s15
ARM GAS  /var/folders/lg/77ksxqjx0n7gwph6nqpzcmcw0000gn/T//ccn5JkAm.s 			page 82


 4699 0526 E7EE067A 		vfma.f32	s15, s14, s12
 4700 052a 66EEA77A 		vmul.f32	s15, s13, s15
 4701 052e C1ED007A 		vstr.32	s15, [r1]
 4702 0532 B2E5     		b	.L619
 4703              	.L687:
 4704 0534 77EEA77A 		vadd.f32	s15, s15, s15
 4705 0538 B6EE007A 		vmov.f32	s14, #5.0e-1
 4706 053c 27EE877A 		vmul.f32	s14, s15, s14
 4707 0540 B5EE407A 		vcmp.f32	s14, #0
 4708 0544 B1EEC78A 		vsqrt.f32	s16, s14
 4709 0548 F1EE10FA 		vmrs	APSR_nzcv, FPSCR
 4710 054c 00F1DA81 		bmi	.L688
 4711 0550 B0EE007A 		vmov.f32	s14, #2.0e+0
 4712 0554 9FEDA90A 		vldr.32	s0, .L704+8
 4713 0558 77EE677A 		vsub.f32	s15, s14, s15
 4714 055c 27EE800A 		vmul.f32	s0, s15, s0
 4715              	.L658:
 4716 0560 B5EE400A 		vcmp.f32	s0, #0
 4717 0564 90ED007A 		vldr.32	s14, [r0]
 4718 0568 B1EEC09A 		vsqrt.f32	s18, s0
 4719 056c F1EE10FA 		vmrs	APSR_nzcv, FPSCR
 4720 0570 28EE078A 		vmul.f32	s16, s16, s14
 4721 0574 7FF5C3AD 		bpl	.L655
 4722 0578 CDED030A 		vstr.32	s1, [sp, #12]	@ int
 4723 057c CDE90101 		strd	r0, r1, [sp, #4]
 4724 0580 FFF7FEFF 		bl	sqrtf
 4725 0584 DDED030A 		vldr.32	s1, [sp, #12]	@ int
 4726 0588 DDE90101 		ldrd	r0, r1, [sp, #4]
 4727 058c B7E5     		b	.L655
 4728              	.L701:
 4729 058e 77EEE67A 		vsub.f32	s15, s15, s13
 4730 0592 9FED986A 		vldr.32	s12, .L704
 4731 0596 DFF868C2 		ldr	ip, .L704+12
 4732 059a 4FF07E59 		mov	r9, #1065353216
 4733 059e 4FF00A0E 		mov	lr, #10
 4734 05a2 F4EEC67A 		vcmpe.f32	s15, s12
 4735 05a6 8CED056A 		vstr.32	s12, [ip, #20]
 4736 05aa CCF81090 		str	r9, [ip, #16]	@ float
 4737 05ae CCF800E0 		str	lr, [ip]
 4738 05b2 F1EE10FA 		vmrs	APSR_nzcv, FPSCR
 4739 05b6 8CED066A 		vstr.32	s12, [ip, #24]
 4740 05ba 00F19F80 		bmi	.L691
 4741              	.L696:
 4742 05be F4EEE75A 		vcmpe.f32	s11, s15
 4743 05c2 F1EE10FA 		vmrs	APSR_nzcv, FPSCR
 4744 05c6 00F1EA80 		bmi	.L627
 4745 05ca BDEEE77A 		vcvt.s32.f32	s14, s15
 4746 05ce DFF834E2 		ldr	lr, .L704+16
 4747 05d2 DFF844A2 		ldr	r10, .L704+36
 4748 05d6 17EE10BA 		vmov	fp, s14	@ int
 4749 05da B8EEC76A 		vcvt.f32.s32	s12, s14
 4750 05de 8EFB0BC7 		smull	ip, r7, lr, fp
 4751 05e2 0BF10109 		add	r9, fp, #1
 4752 05e6 4FEAEB7C 		asr	ip, fp, #31
 4753 05ea 37EEC66A 		vsub.f32	s12, s15, s12
 4754 05ee 0197     		str	r7, [sp, #4]
 4755 05f0 8EFB097E 		smull	r7, lr, lr, r9
ARM GAS  /var/folders/lg/77ksxqjx0n7gwph6nqpzcmcw0000gn/T//ccn5JkAm.s 			page 83


 4756 05f4 4FEAE977 		asr	r7, r9, #31
 4757 05f8 0297     		str	r7, [sp, #8]
 4758 05fa 019F     		ldr	r7, [sp, #4]
 4759 05fc CCEB275C 		rsb	ip, ip, r7, asr #20
 4760 0600 029F     		ldr	r7, [sp, #8]
 4761 0602 C7EB2E5E 		rsb	lr, r7, lr, asr #20
 4762 0606 0AFB1CBC 		mls	ip, r10, ip, fp
 4763 060a 0AFB1E99 		mls	r9, r10, lr, r9
 4764 060e 05EB8C0C 		add	ip, r5, ip, lsl #2
 4765 0612 4FEA8909 		lsl	r9, r9, #2
 4766              	.L626:
 4767 0616 C8ED007A 		vstr.32	s15, [r8]
 4768 061a 05E7     		b	.L624
 4769              	.L700:
 4770 061c 77EEC67A 		vsub.f32	s15, s15, s12
 4771 0620 9FED746A 		vldr.32	s12, .L704
 4772 0624 764C     		ldr	r4, .L704+12
 4773 0626 4FF07E5C 		mov	ip, #1065353216
 4774 062a 0A25     		movs	r5, #10
 4775 062c F4EEC67A 		vcmpe.f32	s15, s12
 4776 0630 84ED046A 		vstr.32	s12, [r4, #16]
 4777 0634 C4F818C0 		str	ip, [r4, #24]	@ float
 4778 0638 2560     		str	r5, [r4]
 4779 063a F1EE10FA 		vmrs	APSR_nzcv, FPSCR
 4780 063e 84ED056A 		vstr.32	s12, [r4, #20]
 4781 0642 00F19F80 		bmi	.L667
 4782 0646 06EE902A 		vmov	s13, r2	@ int
 4783 064a B8EEE66A 		vcvt.f32.s32	s12, s13
 4784 064e F4EEC67A 		vcmpe.f32	s15, s12
 4785 0652 F1EE10FA 		vmrs	APSR_nzcv, FPSCR
 4786 0656 00F3EF80 		bgt	.L639
 4787 065a FDEEE76A 		vcvt.s32.f32	s13, s15
 4788 065e 694D     		ldr	r5, .L704+16
 4789 0660 DFF8B4A1 		ldr	r10, .L704+36
 4790 0664 16EE904A 		vmov	r4, s13	@ int
 4791 0668 B8EEE66A 		vcvt.f32.s32	s12, s13
 4792 066c 04F10109 		add	r9, r4, #1
 4793 0670 85FB047B 		smull	r7, fp, r5, r4
 4794 0674 4FEAE478 		asr	r8, r4, #31
 4795 0678 37EEC66A 		vsub.f32	s12, s15, s12
 4796 067c 85FB095C 		smull	r5, ip, r5, r9
 4797 0680 4FEAE975 		asr	r5, r9, #31
 4798 0684 C8EB2B58 		rsb	r8, r8, fp, asr #20
 4799 0688 C5EB2C55 		rsb	r5, r5, ip, asr #20
 4800 068c DFF8A0C1 		ldr	ip, .L704+60
 4801 0690 0AFB1844 		mls	r4, r10, r8, r4
 4802 0694 0AFB1595 		mls	r5, r10, r5, r9
 4803 0698 0CEB8404 		add	r4, ip, r4, lsl #2
 4804 069c AD00     		lsls	r5, r5, #2
 4805              	.L642:
 4806 069e CEED007A 		vstr.32	s15, [lr]
 4807 06a2 B2E5     		b	.L640
 4808              	.L684:
 4809 06a4 B5EEC07A 		vcmpe.f32	s14, #0
 4810 06a8 F1EE10FA 		vmrs	APSR_nzcv, FPSCR
 4811 06ac 7FF5FDAE 		bpl	.L632
 4812 06b0 37EE277A 		vadd.f32	s14, s14, s15
ARM GAS  /var/folders/lg/77ksxqjx0n7gwph6nqpzcmcw0000gn/T//ccn5JkAm.s 			page 84


 4813 06b4 B5EEC07A 		vcmpe.f32	s14, #0
 4814 06b8 F1EE10FA 		vmrs	APSR_nzcv, FPSCR
 4815 06bc 7FF5ECAE 		bpl	.L693
 4816 06c0 9FED4C7A 		vldr.32	s14, .L704
 4817 06c4 EFE6     		b	.L634
 4818              	.L686:
 4819 06c6 F5EEC06A 		vcmpe.f32	s13, #0
 4820 06ca F1EE10FA 		vmrs	APSR_nzcv, FPSCR
 4821 06ce 7FF5E0AD 		bpl	.L648
 4822 06d2 76EEA76A 		vadd.f32	s13, s13, s15
 4823 06d6 F5EEC06A 		vcmpe.f32	s13, #0
 4824 06da F1EE10FA 		vmrs	APSR_nzcv, FPSCR
 4825 06de 7FF5CCAD 		bpl	.L694
 4826 06e2 DFED446A 		vldr.32	s13, .L704
 4827 06e6 D2E5     		b	.L650
 4828              	.L625:
 4829 06e8 77EEA67A 		vadd.f32	s15, s15, s13
 4830 06ec F5EEC07A 		vcmpe.f32	s15, #0
 4831 06f0 F1EE10FA 		vmrs	APSR_nzcv, FPSCR
 4832 06f4 7FF563AF 		bpl	.L696
 4833 06f8 9FED3E6A 		vldr.32	s12, .L704
 4834              	.L691:
 4835 06fc F0EE467A 		vmov.f32	s15, s12
 4836 0700 4FF00409 		mov	r9, #4
 4837 0704 DFF82CC1 		ldr	ip, .L704+64
 4838 0708 85E7     		b	.L626
 4839              	.L641:
 4840 070a 77EE867A 		vadd.f32	s15, s15, s12
 4841 070e F5EEC07A 		vcmpe.f32	s15, #0
 4842 0712 F1EE10FA 		vmrs	APSR_nzcv, FPSCR
 4843 0716 2CD4     		bmi	.L668
 4844 0718 06EE902A 		vmov	s13, r2	@ int
 4845 071c B8EEE66A 		vcvt.f32.s32	s12, s13
 4846 0720 F4EEC67A 		vcmpe.f32	s15, s12
 4847 0724 F1EE10FA 		vmrs	APSR_nzcv, FPSCR
 4848 0728 00F3AD80 		bgt	.L643
 4849 072c FDEEE76A 		vcvt.s32.f32	s13, s15
 4850 0730 344D     		ldr	r5, .L704+16
 4851 0732 DFF8E4A0 		ldr	r10, .L704+36
 4852 0736 16EE908A 		vmov	r8, s13	@ int
 4853 073a B8EEE66A 		vcvt.f32.s32	s12, s13
 4854 073e 08F10109 		add	r9, r8, #1
 4855 0742 85FB084B 		smull	r4, fp, r5, r8
 4856 0746 4FEAE874 		asr	r4, r8, #31
 4857 074a 37EEC66A 		vsub.f32	s12, s15, s12
 4858 074e 85FB095C 		smull	r5, ip, r5, r9
 4859 0752 4FEAE975 		asr	r5, r9, #31
 4860 0756 C4EB2B54 		rsb	r4, r4, fp, asr #20
 4861 075a C5EB2C55 		rsb	r5, r5, ip, asr #20
 4862 075e DFF8D0C0 		ldr	ip, .L704+60
 4863 0762 0AFB1484 		mls	r4, r10, r4, r8
 4864 0766 0AFB1595 		mls	r5, r10, r5, r9
 4865 076a 0CEB8404 		add	r4, ip, r4, lsl #2
 4866 076e AD00     		lsls	r5, r5, #2
 4867 0770 95E7     		b	.L642
 4868              	.L668:
 4869 0772 9FED206A 		vldr.32	s12, .L704
ARM GAS  /var/folders/lg/77ksxqjx0n7gwph6nqpzcmcw0000gn/T//ccn5JkAm.s 			page 85


 4870 0776 0425     		movs	r5, #4
 4871 0778 DFF8B4C0 		ldr	ip, .L704+60
 4872 077c F0EE467A 		vmov.f32	s15, s12
 4873 0780 6446     		mov	r4, ip
 4874 0782 8CE7     		b	.L642
 4875              	.L667:
 4876 0784 DFF8A8C0 		ldr	ip, .L704+60
 4877 0788 F0EE467A 		vmov.f32	s15, s12
 4878 078c 0425     		movs	r5, #4
 4879 078e 6446     		mov	r4, ip
 4880 0790 85E7     		b	.L642
 4881              	.L669:
 4882 0792 F0EE676A 		vmov.f32	s13, s15
 4883 0796 7AE5     		b	.L650
 4884              	.L665:
 4885 0798 B0EE677A 		vmov.f32	s14, s15
 4886 079c 83E6     		b	.L634
 4887              	.L627:
 4888 079e FDEEE57A 		vcvt.s32.f32	s15, s11
 4889 07a2 DFF860E0 		ldr	lr, .L704+16
 4890 07a6 DFF870A0 		ldr	r10, .L704+36
 4891 07aa 17EE90BA 		vmov	fp, s15	@ int
 4892 07ae F0EE657A 		vmov.f32	s15, s11
 4893 07b2 8EFB0BC7 		smull	ip, r7, lr, fp
 4894 07b6 0BF10109 		add	r9, fp, #1
 4895 07ba 4FEAEB7C 		asr	ip, fp, #31
 4896 07be 07EE10BA 		vmov	s14, fp	@ int
 4897 07c2 0197     		str	r7, [sp, #4]
 4898 07c4 8EFB097E 		smull	r7, lr, lr, r9
 4899 07c8 4FEAE977 		asr	r7, r9, #31
 4900 07cc B8EEC76A 		vcvt.f32.s32	s12, s14
 4901 07d0 0297     		str	r7, [sp, #8]
 4902 07d2 019F     		ldr	r7, [sp, #4]
 4903 07d4 35EEC66A 		vsub.f32	s12, s11, s12
 4904 07d8 CCEB275C 		rsb	ip, ip, r7, asr #20
 4905 07dc 029F     		ldr	r7, [sp, #8]
 4906 07de C7EB2E5E 		rsb	lr, r7, lr, asr #20
 4907 07e2 0AFB1CBC 		mls	ip, r10, ip, fp
 4908 07e6 0AFB1E99 		mls	r9, r10, lr, r9
 4909 07ea 05EB8C0C 		add	ip, r5, ip, lsl #2
 4910 07ee 4FEA8909 		lsl	r9, r9, #2
 4911 07f2 10E7     		b	.L626
 4912              	.L705:
 4913              		.align	2
 4914              	.L704:
 4915 07f4 00000000 		.word	0
 4916 07f8 00000000 		.word	.LANCHOR107
 4917 07fc 3333733F 		.word	1064514355
 4918 0800 00000000 		.word	.LANCHOR18
 4919 0804 EFED345D 		.word	1563749871
 4920 0808 00000000 		.word	.LANCHOR99
 4921 080c 00000000 		.word	.LANCHOR69
 4922 0810 00000000 		.word	.LANCHOR103
 4923 0814 00000000 		.word	.LANCHOR109
 4924 0818 00F22B00 		.word	2880000
 4925 081c 00000000 		.word	.LANCHOR101
 4926 0820 00000000 		.word	.LANCHOR71
ARM GAS  /var/folders/lg/77ksxqjx0n7gwph6nqpzcmcw0000gn/T//ccn5JkAm.s 			page 86


 4927 0824 00000000 		.word	.LANCHOR106
 4928 0828 00000000 		.word	.LANCHOR110
 4929 082c 00000000 		.word	.LANCHOR104
 4930 0830 00000000 		.word	mlooper_frozen_buf_1l
 4931 0834 00000000 		.word	mlooper_buf_1l
 4932              	.L639:
 4933 0838 FDEEC67A 		vcvt.s32.f32	s15, s12
 4934 083c 3D4D     		ldr	r5, .L706
 4935 083e DFF8FCA0 		ldr	r10, .L706+8
 4936 0842 17EE904A 		vmov	r4, s15	@ int
 4937 0846 F0EE467A 		vmov.f32	s15, s12
 4938 084a 04F10109 		add	r9, r4, #1
 4939 084e 85FB047B 		smull	r7, fp, r5, r4
 4940 0852 4FEAE478 		asr	r8, r4, #31
 4941 0856 06EE904A 		vmov	s13, r4	@ int
 4942 085a 85FB095C 		smull	r5, ip, r5, r9
 4943 085e 4FEAE975 		asr	r5, r9, #31
 4944 0862 C8EB2B58 		rsb	r8, r8, fp, asr #20
 4945 0866 F8EEE66A 		vcvt.f32.s32	s13, s13
 4946 086a C5EB2C55 		rsb	r5, r5, ip, asr #20
 4947 086e DFF8D0C0 		ldr	ip, .L706+12
 4948 0872 0AFB1844 		mls	r4, r10, r8, r4
 4949 0876 0AFB1595 		mls	r5, r10, r5, r9
 4950 087a 36EE666A 		vsub.f32	s12, s12, s13
 4951 087e 0CEB8404 		add	r4, ip, r4, lsl #2
 4952 0882 AD00     		lsls	r5, r5, #2
 4953 0884 0BE7     		b	.L642
 4954              	.L643:
 4955 0886 FDEEC67A 		vcvt.s32.f32	s15, s12
 4956 088a 2A4D     		ldr	r5, .L706
 4957 088c DFF8ACA0 		ldr	r10, .L706+8
 4958 0890 17EE908A 		vmov	r8, s15	@ int
 4959 0894 F0EE467A 		vmov.f32	s15, s12
 4960 0898 08F10109 		add	r9, r8, #1
 4961 089c 85FB084B 		smull	r4, fp, r5, r8
 4962 08a0 4FEAE874 		asr	r4, r8, #31
 4963 08a4 06EE908A 		vmov	s13, r8	@ int
 4964 08a8 85FB095C 		smull	r5, ip, r5, r9
 4965 08ac 4FEAE975 		asr	r5, r9, #31
 4966 08b0 C4EB2B54 		rsb	r4, r4, fp, asr #20
 4967 08b4 F8EEE66A 		vcvt.f32.s32	s13, s13
 4968 08b8 C5EB2C55 		rsb	r5, r5, ip, asr #20
 4969 08bc DFF880C0 		ldr	ip, .L706+12
 4970 08c0 0AFB1484 		mls	r4, r10, r4, r8
 4971 08c4 0AFB1595 		mls	r5, r10, r5, r9
 4972 08c8 36EE666A 		vsub.f32	s12, s12, s13
 4973 08cc 0CEB8404 		add	r4, ip, r4, lsl #2
 4974 08d0 AD00     		lsls	r5, r5, #2
 4975 08d2 E4E6     		b	.L642
 4976              	.L699:
 4977 08d4 CDED020A 		vstr.32	s1, [sp, #8]	@ int
 4978 08d8 0191     		str	r1, [sp, #4]
 4979 08da FFF7FEFF 		bl	sqrtf
 4980 08de DDED020A 		vldr.32	s1, [sp, #8]	@ int
 4981 08e2 0199     		ldr	r1, [sp, #4]
 4982 08e4 33E4     		b	.L660
 4983              	.L698:
ARM GAS  /var/folders/lg/77ksxqjx0n7gwph6nqpzcmcw0000gn/T//ccn5JkAm.s 			page 87


 4984 08e6 B0EE470A 		vmov.f32	s0, s14
 4985 08ea CDED020A 		vstr.32	s1, [sp, #8]	@ int
 4986 08ee 0191     		str	r1, [sp, #4]
 4987 08f0 FFF7FEFF 		bl	sqrtf
 4988 08f4 94ED000A 		vldr.32	s0, [r4]
 4989 08f8 DDED020A 		vldr.32	s1, [sp, #8]	@ int
 4990 08fc 70EE007A 		vadd.f32	s15, s0, s0
 4991 0900 0199     		ldr	r1, [sp, #4]
 4992 0902 10E4     		b	.L659
 4993              	.L688:
 4994 0904 B0EE470A 		vmov.f32	s0, s14
 4995 0908 CDED030A 		vstr.32	s1, [sp, #12]	@ int
 4996 090c CDE90101 		strd	r0, r1, [sp, #4]
 4997 0910 FFF7FEFF 		bl	sqrtf
 4998 0914 F0EE007A 		vmov.f32	s15, #2.0e+0
 4999 0918 D4ED006A 		vldr.32	s13, [r4]
 5000 091c 9FED067A 		vldr.32	s14, .L706+4
 5001 0920 E6EEE77A 		vfms.f32	s15, s13, s15
 5002 0924 DDED030A 		vldr.32	s1, [sp, #12]	@ int
 5003 0928 DDE90101 		ldrd	r0, r1, [sp, #4]
 5004 092c 27EE870A 		vmul.f32	s0, s15, s14
 5005 0930 16E6     		b	.L658
 5006              	.L707:
 5007 0932 00BF     		.align	2
 5008              	.L706:
 5009 0934 EFED345D 		.word	1563749871
 5010 0938 3333733F 		.word	1064514355
 5011 093c 00F22B00 		.word	2880000
 5012 0940 00000000 		.word	mlooper_frozen_buf_1l
 5014              		.section	.text._Z19SelectDelayDivisionff,"ax",%progbits
 5015              		.align	1
 5016              		.p2align 2,,3
 5017              		.global	_Z19SelectDelayDivisionff
 5018              		.syntax unified
 5019              		.thumb
 5020              		.thumb_func
 5021              		.fpu fpv5-d16
 5023              	_Z19SelectDelayDivisionff:
 5024              		@ args = 0, pretend = 0, frame = 0
 5025              		@ frame_needed = 0, uses_anonymous_args = 0
 5026              		@ link register save eliminated.
 5027 0000 F3EE017A 		vmov.f32	s15, #1.7e+1
 5028 0004 1E4B     		ldr	r3, .L713
 5029 0006 1F49     		ldr	r1, .L713+4
 5030 0008 1B68     		ldr	r3, [r3]
 5031 000a 20EE270A 		vmul.f32	s0, s0, s15
 5032 000e 1E4A     		ldr	r2, .L713+8
 5033 0010 9800     		lsls	r0, r3, #2
 5034 0012 60EEA70A 		vmul.f32	s1, s1, s15
 5035 0016 01EB8303 		add	r3, r1, r3, lsl #2
 5036 001a BDEEC00A 		vcvt.s32.f32	s0, s0
 5037 001e D3ED006A 		vldr.32	s13, [r3]
 5038 0022 FDEEE00A 		vcvt.s32.f32	s1, s1
 5039 0026 10EE103A 		vmov	r3, s0	@ int
 5040 002a 10EE90CA 		vmov	ip, s1	@ int
 5041 002e 02EB8303 		add	r3, r2, r3, lsl #2
 5042 0032 02EB8C02 		add	r2, r2, ip, lsl #2
ARM GAS  /var/folders/lg/77ksxqjx0n7gwph6nqpzcmcw0000gn/T//ccn5JkAm.s 			page 88


 5043 0036 D3ED007A 		vldr.32	s15, [r3]
 5044 003a 92ED007A 		vldr.32	s14, [r2]
 5045 003e F4EE676A 		vcmp.f32	s13, s15
 5046 0042 124B     		ldr	r3, .L713+12
 5047 0044 F1EE10FA 		vmrs	APSR_nzcv, FPSCR
 5048 0048 07D1     		bne	.L709
 5049 004a 1844     		add	r0, r0, r3
 5050 004c D0ED006A 		vldr.32	s13, [r0]
 5051 0050 F4EE476A 		vcmp.f32	s13, s14
 5052 0054 F1EE10FA 		vmrs	APSR_nzcv, FPSCR
 5053 0058 10D0     		beq	.L708
 5054              	.L709:
 5055 005a 0D4A     		ldr	r2, .L713+16
 5056 005c 0D48     		ldr	r0, .L713+20
 5057 005e 1268     		ldr	r2, [r2]
 5058 0060 06EE902A 		vmov	s13, r2	@ int
 5059 0064 01EB8201 		add	r1, r1, r2, lsl #2
 5060 0068 03EB8203 		add	r3, r3, r2, lsl #2
 5061 006c F8EEE66A 		vcvt.f32.s32	s13, s13
 5062 0070 C1ED007A 		vstr.32	s15, [r1]
 5063 0074 83ED007A 		vstr.32	s14, [r3]
 5064 0078 C0ED006A 		vstr.32	s13, [r0]
 5065              	.L708:
 5066 007c 7047     		bx	lr
 5067              	.L714:
 5068 007e 00BF     		.align	2
 5069              	.L713:
 5070 0080 00000000 		.word	.LANCHOR115
 5071 0084 00000000 		.word	.LANCHOR92
 5072 0088 00000000 		.word	.LANCHOR114
 5073 008c 00000000 		.word	.LANCHOR93
 5074 0090 00000000 		.word	.LANCHOR116
 5075 0094 00000000 		.word	.LANCHOR117
 5077              		.section	.text._Z11UpdateKnobsv,"ax",%progbits
 5078              		.align	1
 5079              		.p2align 2,,3
 5080              		.global	_Z11UpdateKnobsv
 5081              		.syntax unified
 5082              		.thumb
 5083              		.thumb_func
 5084              		.fpu fpv5-d16
 5086              	_Z11UpdateKnobsv:
 5087              		@ args = 0, pretend = 0, frame = 8
 5088              		@ frame_needed = 0, uses_anonymous_args = 0
 5089 0000 2DE9F04F 		push	{r4, r5, r6, r7, r8, r9, r10, fp, lr}
 5090 0004 B54D     		ldr	r5, .L873
 5091 0006 0021     		movs	r1, #0
 5092 0008 2DED088B 		vpush.64	{d8, d9, d10, d11}
 5093 000c 2846     		mov	r0, r5
 5094 000e 83B0     		sub	sp, sp, #12
 5095 0010 FFF7FEFF 		bl	_ZN5daisy11DaisyVersio12GetKnobValueEi
 5096 0014 2846     		mov	r0, r5
 5097 0016 0121     		movs	r1, #1
 5098 0018 B0EE40BA 		vmov.f32	s22, s0
 5099 001c FFF7FEFF 		bl	_ZN5daisy11DaisyVersio12GetKnobValueEi
 5100 0020 2846     		mov	r0, r5
 5101 0022 0221     		movs	r1, #2
ARM GAS  /var/folders/lg/77ksxqjx0n7gwph6nqpzcmcw0000gn/T//ccn5JkAm.s 			page 89


 5102 0024 F0EE40AA 		vmov.f32	s21, s0
 5103 0028 FFF7FEFF 		bl	_ZN5daisy11DaisyVersio12GetKnobValueEi
 5104 002c 2846     		mov	r0, r5
 5105 002e 0321     		movs	r1, #3
 5106 0030 B0EE40AA 		vmov.f32	s20, s0
 5107 0034 FFF7FEFF 		bl	_ZN5daisy11DaisyVersio12GetKnobValueEi
 5108 0038 2846     		mov	r0, r5
 5109 003a 0421     		movs	r1, #4
 5110 003c F0EE409A 		vmov.f32	s19, s0
 5111 0040 FFF7FEFF 		bl	_ZN5daisy11DaisyVersio12GetKnobValueEi
 5112 0044 2846     		mov	r0, r5
 5113 0046 0521     		movs	r1, #5
 5114 0048 B0EE409A 		vmov.f32	s18, s0
 5115 004c FFF7FEFF 		bl	_ZN5daisy11DaisyVersio12GetKnobValueEi
 5116 0050 2846     		mov	r0, r5
 5117 0052 0621     		movs	r1, #6
 5118 0054 B0EE408A 		vmov.f32	s16, s0
 5119 0058 FFF7FEFF 		bl	_ZN5daisy11DaisyVersio12GetKnobValueEi
 5120 005c 05F26620 		addw	r0, r5, #614
 5121 0060 F0EE408A 		vmov.f32	s17, s0
 5122 0064 FFF7FEFF 		bl	dsy_gpio_read
 5123 0068 0028     		cmp	r0, #0
 5124 006a 40F02D81 		bne	.L864
 5125 006e 0446     		mov	r4, r0
 5126              	.L716:
 5127 0070 9B48     		ldr	r0, .L873+4
 5128 0072 FFF7FEFF 		bl	dsy_gpio_read
 5129 0076 0028     		cmp	r0, #0
 5130 0078 40F01E81 		bne	.L865
 5131              	.L718:
 5132 007c 994B     		ldr	r3, .L873+8
 5133 007e 9A49     		ldr	r1, .L873+12
 5134 0080 1A68     		ldr	r2, [r3]
 5135 0082 0C60     		str	r4, [r1]
 5136 0084 A242     		cmp	r2, r4
 5137 0086 19D0     		beq	.L807
 5138 0088 9849     		ldr	r1, .L873+16
 5139 008a 1C60     		str	r4, [r3]
 5140 008c 01F13000 		add	r0, r1, #48
 5141 0090 0B46     		mov	r3, r1
 5142              	.L719:
 5143 0092 0022     		movs	r2, #0
 5144 0094 0C33     		adds	r3, r3, #12
 5145 0096 5A63     		str	r2, [r3, #52]	@ float
 5146 0098 9A63     		str	r2, [r3, #56]	@ float
 5147 009a DA63     		str	r2, [r3, #60]	@ float
 5148 009c 8342     		cmp	r3, r0
 5149 009e F8D1     		bne	.L719
 5150 00a0 934E     		ldr	r6, .L873+20
 5151 00a2 A6F11003 		sub	r3, r6, #16
 5152              	.L720:
 5153 00a6 0022     		movs	r2, #0
 5154 00a8 4FF0FF30 		mov	r0, #-1
 5155 00ac 0C33     		adds	r3, r3, #12
 5156 00ae 5A60     		str	r2, [r3, #4]	@ float
 5157 00b0 9A60     		str	r2, [r3, #8]	@ float
 5158 00b2 DA60     		str	r2, [r3, #12]	@ float
ARM GAS  /var/folders/lg/77ksxqjx0n7gwph6nqpzcmcw0000gn/T//ccn5JkAm.s 			page 90


 5159 00b4 41F8040B 		str	r0, [r1], #4
 5160 00b8 8E42     		cmp	r6, r1
 5161 00ba F4D1     		bne	.L720
 5162              	.L807:
 5163 00bc 072C     		cmp	r4, #7
 5164 00be 00F2F380 		bhi	.L721
 5165 00c2 DFE814F0 		tbh	[pc, r4, lsl #1]
 5166              	.L723:
 5167 00c6 4F02     		.2byte	(.L730-.L723)/2
 5168 00c8 4D05     		.2byte	(.L729-.L723)/2
 5169 00ca 3F06     		.2byte	(.L728-.L723)/2
 5170 00cc E902     		.2byte	(.L727-.L723)/2
 5171 00ce 7203     		.2byte	(.L726-.L723)/2
 5172 00d0 2D04     		.2byte	(.L725-.L723)/2
 5173 00d2 CF04     		.2byte	(.L724-.L723)/2
 5174 00d4 5301     		.2byte	(.L722-.L723)/2
 5175              		.p2align 1
 5176              	.L749:
 5177 00d6 44F67410 		movw	r0, #18804
 5178 00da 0423     		movs	r3, #4
 5179 00dc 854A     		ldr	r2, .L873+24
 5180 00de 8649     		ldr	r1, .L873+28
 5181 00e0 9FED867A 		vldr.32	s14, .L873+32
 5182 00e4 3350     		str	r3, [r6, r0]
 5183 00e6 1160     		str	r1, [r2]	@ float
 5184              	.L748:
 5185 00e8 A6EB8600 		sub	r0, r6, r6, lsl #2
 5186 00ec 844F     		ldr	r7, .L873+36
 5187 00ee 8549     		ldr	r1, .L873+40
 5188 00f0 B146     		mov	r9, r6
 5189 00f2 854A     		ldr	r2, .L873+44
 5190 00f4 3844     		add	r0, r0, r7
 5191 00f6 01F1F00B 		add	fp, r1, #240
 5192 00fa 0194     		str	r4, [sp, #4]
 5193 00fc A2F16B0A 		sub	r10, r2, #107
 5194 0100 8046     		mov	r8, r0
 5195              	.L762:
 5196 0102 12F8017F 		ldrb	r7, [r2, #1]!	@ zero_extendqisi2
 5197 0106 D8B2     		uxtb	r0, r3
 5198 0108 804E     		ldr	r6, .L873+48
 5199 010a 4FF0010C 		mov	ip, #1
 5200 010e 0024     		movs	r4, #0
 5201 0110 2FB1     		cbz	r7, .L759
 5202 0112 0828     		cmp	r0, #8
 5203 0114 28BF     		it	cs
 5204 0116 2046     		movcs	r0, r4
 5205 0118 0870     		strb	r0, [r1]
 5206 011a 3368     		ldr	r3, [r6]
 5207 011c 1470     		strb	r4, [r2]
 5208              	.L759:
 5209 011e DAF80000 		ldr	r0, [r10]
 5210 0122 2831     		adds	r1, r1, #40
 5211 0124 9842     		cmp	r0, r3
 5212 0126 03D0     		beq	.L761
 5213 0128 82F800C0 		strb	ip, [r2]
 5214 012c 48F82240 		str	r4, [r8, r2, lsl #2]
 5215              	.L761:
ARM GAS  /var/folders/lg/77ksxqjx0n7gwph6nqpzcmcw0000gn/T//ccn5JkAm.s 			page 91


 5216 0130 5945     		cmp	r1, fp
 5217 0132 E6D1     		bne	.L762
 5218 0134 9842     		cmp	r0, r3
 5219 0136 019C     		ldr	r4, [sp, #4]
 5220 0138 4E46     		mov	r6, r9
 5221 013a 03D0     		beq	.L763
 5222 013c 44F67012 		movw	r2, #18800
 5223 0140 49F80230 		str	r3, [r9, r2]
 5224              	.L763:
 5225 0144 78EE087A 		vadd.f32	s15, s16, s16
 5226 0148 714B     		ldr	r3, .L873+52
 5227 014a 83ED007A 		vstr.32	s14, [r3]
 5228 014e F5EEC07A 		vcmpe.f32	s15, #0
 5229 0152 F1EE10FA 		vmrs	APSR_nzcv, FPSCR
 5230 0156 01F11E81 		bmi	.L817
 5231 015a B7EE007A 		vmov.f32	s14, #1.0e+0
 5232 015e F4EEC77A 		vcmpe.f32	s15, s14
 5233 0162 F1EE10FA 		vmrs	APSR_nzcv, FPSCR
 5234 0166 07DC     		bgt	.L764
 5235 0168 F1EE066A 		vmov.f32	s13, #5.5e+0
 5236 016c A7EEA67A 		vfma.f32	s14, s15, s13
 5237 0170 FDEEC77A 		vcvt.s32.f32	s15, s14
 5238 0174 17EE904A 		vmov	r4, s15	@ int
 5239              	.L764:
 5240 0178 F6EE007A 		vmov.f32	s15, #5.0e-1
 5241 017c 654B     		ldr	r3, .L873+56
 5242 017e F0EE086A 		vmov.f32	s13, #3.0e+0
 5243 0182 B0EE007A 		vmov.f32	s14, #2.0e+0
 5244 0186 1C60     		str	r4, [r3]
 5245 0188 38EE678A 		vsub.f32	s16, s16, s15
 5246 018c F7EE007A 		vmov.f32	s15, #1.0e+0
 5247 0190 28EE268A 		vmul.f32	s16, s16, s13
 5248 0194 F0EE676A 		vmov.f32	s13, s15
 5249 0198 E8EE076A 		vfma.f32	s13, s16, s14
 5250 019c F4EEE76A 		vcmpe.f32	s13, s15
 5251 01a0 B0EE667A 		vmov.f32	s14, s13
 5252 01a4 F1EE10FA 		vmrs	APSR_nzcv, FPSCR
 5253 01a8 01F1FF80 		bmi	.L818
 5254 01ac F1EE006A 		vmov.f32	s13, #4.0e+0
 5255 01b0 B4EEE67A 		vcmpe.f32	s14, s13
 5256 01b4 F1EE10FA 		vmrs	APSR_nzcv, FPSCR
 5257 01b8 01F3DE81 		bgt	.L819
 5258 01bc F5EE007A 		vmov.f32	s15, #2.5e-1
 5259 01c0 67EE277A 		vmul.f32	s15, s14, s15
 5260              	.L765:
 5261 01c4 44F65C13 		movw	r3, #18780
 5262 01c8 534A     		ldr	r2, .L873+60
 5263 01ca 5449     		ldr	r1, .L873+64
 5264 01cc B0EE4A0A 		vmov.f32	s0, s20
 5265 01d0 F450     		str	r4, [r6, r3]
 5266 01d2 C2ED007A 		vstr.32	s15, [r2]
 5267 01d6 81ED007A 		vstr.32	s14, [r1]
 5268 01da FFF7FEFF 		bl	_Z19SelectSpectraOctavef
 5269 01de 504B     		ldr	r3, .L873+68
 5270 01e0 0022     		movs	r2, #0
 5271 01e2 5048     		ldr	r0, .L873+72
 5272 01e4 1A60     		str	r2, [r3]	@ float
ARM GAS  /var/folders/lg/77ksxqjx0n7gwph6nqpzcmcw0000gn/T//ccn5JkAm.s 			page 92


 5273 01e6 FFF7FEFF 		bl	_ZN5daisy6GateIn4TrigEv
 5274 01ea 0028     		cmp	r0, #0
 5275 01ec 41F07281 		bne	.L866
 5276              	.L766:
 5277 01f0 4D4B     		ldr	r3, .L873+76
 5278 01f2 B6EE006B 		vmov.f64	d6, #5.0e-1
 5279 01f6 B2EE040A 		vmov.f32	s0, #1.0e+1
 5280 01fa DFED4C5A 		vldr.32	s11, .L873+80
 5281 01fe 93ED007A 		vldr.32	s14, [r3]
 5282 0202 4B4C     		ldr	r4, .L873+84
 5283 0204 B7EEC77A 		vcvt.f64.f32	d7, s14
 5284 0208 4A4B     		ldr	r3, .L873+88
 5285 020a 4B4A     		ldr	r2, .L873+92
 5286 020c A9EE250A 		vfma.f32	s0, s18, s11
 5287 0210 9FED4A8A 		vldr.32	s16, .L873+96
 5288 0214 27EE067B 		vmul.f64	d7, d7, d6
 5289 0218 82ED008A 		vstr.32	s16, [r2]
 5290 021c 27EE067B 		vmul.f64	d7, d7, d6
 5291 0220 B7EEC77B 		vcvt.f32.f64	s14, d7
 5292 0224 84ED017A 		vstr.32	s14, [r4, #4]
 5293 0228 83ED007A 		vstr.32	s14, [r3]
 5294 022c FFF7FEFF 		bl	log10f
 5295 0230 9FED437A 		vldr.32	s14, .L873+100
 5296 0234 4FF07C50 		mov	r0, #1056964608
 5297 0238 DFED427A 		vldr.32	s15, .L873+104
 5298 023c 30EE470A 		vsub.f32	s0, s0, s14
 5299 0240 9FED417A 		vldr.32	s14, .L873+108
 5300 0244 414B     		ldr	r3, .L873+112
 5301 0246 29EE079A 		vmul.f32	s18, s18, s14
 5302 024a 4149     		ldr	r1, .L873+116
 5303 024c 70EE277A 		vadd.f32	s15, s0, s15
 5304 0250 404A     		ldr	r2, .L873+120
 5305 0252 0860     		str	r0, [r1]	@ float
 5306 0254 B4EEC89A 		vcmpe.f32	s18, s16
 5307 0258 82ED00BA 		vstr.32	s22, [r2]
 5308 025c C4ED007A 		vstr.32	s15, [r4]
 5309 0260 C3ED007A 		vstr.32	s15, [r3]
 5310 0264 F1EE10FA 		vmrs	APSR_nzcv, FPSCR
 5311 0268 01F19B80 		bmi	.L820
 5312 026c F7EE007A 		vmov.f32	s15, #1.0e+0
 5313 0270 B4EE679A 		vcmp.f32	s18, s15
 5314 0274 F1EE10FA 		vmrs	APSR_nzcv, FPSCR
 5315 0278 37FE899A 		vselgt.f32	s18, s15, s18
 5316              	.L767:
 5317 027c F2EE087A 		vmov.f32	s15, #1.2e+1
 5318 0280 95F85532 		ldrb	r3, [r5, #597]	@ zero_extendqisi2
 5319 0284 344A     		ldr	r2, .L873+124
 5320 0286 3549     		ldr	r1, .L873+128
 5321 0288 7F2B     		cmp	r3, #127
 5322 028a 69EEA79A 		vmul.f32	s19, s19, s15
 5323 028e 81ED009A 		vstr.32	s18, [r1]
 5324 0292 F8FE699A 		vrinta.f32	s19, s19
 5325 0296 FDEEE99A 		vcvt.s32.f32	s19, s19
 5326 029a C2ED009A 		vstr.32	s19, [r2]	@ int
 5327 029e 00F0A087 		beq	.L867
 5328              	.L769:
 5329 02a2 2F4B     		ldr	r3, .L873+132
ARM GAS  /var/folders/lg/77ksxqjx0n7gwph6nqpzcmcw0000gn/T//ccn5JkAm.s 			page 93


 5330 02a4 83ED009A 		vstr.32	s18, [r3]
 5331              	.L721:
 5332 02a8 2E48     		ldr	r0, .L873+136
 5333 02aa 03B0     		add	sp, sp, #12
 5334              		@ sp needed
 5335 02ac BDEC088B 		vldm	sp!, {d8-d11}
 5336 02b0 BDE8F04F 		pop	{r4, r5, r6, r7, r8, r9, r10, fp, lr}
 5337 02b4 FFF7FEBF 		b	_ZN5daisy6Switch8DebounceEv
 5338              	.L865:
 5339 02b8 2B48     		ldr	r0, .L873+140
 5340 02ba FFF7FEFF 		bl	dsy_gpio_read
 5341 02be 0028     		cmp	r0, #0
 5342 02c0 00F0FE86 		beq	.L868
 5343 02c4 0334     		adds	r4, r4, #3
 5344 02c6 D9E6     		b	.L718
 5345              	.L864:
 5346 02c8 05F26A20 		addw	r0, r5, #618
 5347 02cc FFF7FEFF 		bl	dsy_gpio_read
 5348 02d0 0028     		cmp	r0, #0
 5349 02d2 14BF     		ite	ne
 5350 02d4 0124     		movne	r4, #1
 5351 02d6 0224     		moveq	r4, #2
 5352 02d8 CAE6     		b	.L716
 5353              	.L874:
 5354 02da 00BF     		.align	2
 5355              	.L873:
 5356 02dc 00000000 		.word	.LANCHOR78
 5357 02e0 6E020000 		.word	.LANCHOR78+622
 5358 02e4 00000000 		.word	.LANCHOR118
 5359 02e8 00000000 		.word	.LANCHOR9
 5360 02ec 00000000 		.word	.LANCHOR18
 5361 02f0 10000000 		.word	.LANCHOR18+16
 5362 02f4 6C490000 		.word	_ZL15spectra_oscbank+18796
 5363 02f8 CDCCCC3E 		.word	1053609165
 5364 02fc 1CC7713F 		.word	1064421148
 5365 0300 5422FFFF 		.word	-56748
 5366 0304 00000000 		.word	_ZL15spectra_oscbank
 5367 0308 DB490000 		.word	_ZL15spectra_oscbank+18907
 5368 030c 74490000 		.word	_ZL15spectra_oscbank+18804
 5369 0310 00000000 		.word	.LANCHOR127
 5370 0314 00000000 		.word	.LANCHOR128
 5371 0318 00000000 		.word	.LANCHOR130
 5372 031c 00000000 		.word	.LANCHOR129
 5373 0320 00000000 		.word	.LANCHOR131
 5374 0324 60020000 		.word	.LANCHOR78+608
 5375 0328 00000000 		.word	.LANCHOR26
 5376 032c 0000B442 		.word	1119092736
 5377 0330 00000000 		.word	_ZL3rev
 5378 0334 00000000 		.word	.LANCHOR119
 5379 0338 00000000 		.word	.LANCHOR20
 5380 033c 00000000 		.word	0
 5381 0340 0800803F 		.word	1065353224
 5382 0344 CDCC4C3E 		.word	1045220557
 5383 0348 CDCC8C3F 		.word	1066192077
 5384 034c 00000000 		.word	.LANCHOR19
 5385 0350 00000000 		.word	.LANCHOR22
 5386 0354 00000000 		.word	.LANCHOR136
ARM GAS  /var/folders/lg/77ksxqjx0n7gwph6nqpzcmcw0000gn/T//ccn5JkAm.s 			page 94


 5387 0358 00000000 		.word	.LANCHOR137
 5388 035c 00000000 		.word	.LANCHOR25
 5389 0360 00000000 		.word	.LANCHOR148
 5390 0364 50020000 		.word	.LANCHOR78+592
 5391 0368 72020000 		.word	.LANCHOR78+626
 5392              	.L722:
 5393 036c F2EE087A 		vmov.f32	s15, #1.2e+1
 5394 0370 95F85532 		ldrb	r3, [r5, #597]	@ zero_extendqisi2
 5395 0374 A44A     		ldr	r2, .L875+40
 5396 0376 7F2B     		cmp	r3, #127
 5397 0378 69EEA79A 		vmul.f32	s19, s19, s15
 5398 037c F8FE699A 		vrinta.f32	s19, s19
 5399 0380 FDEEE99A 		vcvt.s32.f32	s19, s19
 5400 0384 C2ED009A 		vstr.32	s19, [r2]	@ int
 5401 0388 01F02080 		beq	.L869
 5402              	.L789:
 5403 038c 9F4E     		ldr	r6, .L875+44
 5404 038e 44F6E413 		movw	r3, #18916
 5405 0392 1022     		movs	r2, #16
 5406 0394 9E4C     		ldr	r4, .L875+48
 5407 0396 96ED4E0A 		vldr.32	s0, [r6, #312]
 5408 039a F250     		str	r2, [r6, r3]
 5409 039c 2046     		mov	r0, r4
 5410 039e 29EE000A 		vmul.f32	s0, s18, s0
 5411 03a2 9C4D     		ldr	r5, .L875+52
 5412 03a4 FFF7FEFF 		bl	_ZN7daisysp11StringVoice13SetBrightnessEf
 5413 03a8 96ED4E0A 		vldr.32	s0, [r6, #312]
 5414 03ac 2046     		mov	r0, r4
 5415 03ae FFF7FEFF 		bl	_ZN7daisysp11StringVoice9SetAccentEf
 5416 03b2 B0EE680A 		vmov.f32	s0, s17
 5417 03b6 2046     		mov	r0, r4
 5418 03b8 FFF7FEFF 		bl	_ZN7daisysp11StringVoice12SetStructureEf
 5419 03bc 96ED4F0A 		vldr.32	s0, [r6, #316]
 5420 03c0 9548     		ldr	r0, .L875+56
 5421 03c2 29EE000A 		vmul.f32	s0, s18, s0
 5422 03c6 FFF7FEFF 		bl	_ZN7daisysp11StringVoice13SetBrightnessEf
 5423 03ca 96ED4F0A 		vldr.32	s0, [r6, #316]
 5424 03ce 9248     		ldr	r0, .L875+56
 5425 03d0 FFF7FEFF 		bl	_ZN7daisysp11StringVoice9SetAccentEf
 5426 03d4 B0EE680A 		vmov.f32	s0, s17
 5427 03d8 8F48     		ldr	r0, .L875+56
 5428 03da FFF7FEFF 		bl	_ZN7daisysp11StringVoice12SetStructureEf
 5429 03de 0223     		movs	r3, #2
 5430 03e0 8E4A     		ldr	r2, .L875+60
 5431 03e2 4FF08141 		mov	r1, #1082130432
 5432 03e6 44F65C10 		movw	r0, #18780
 5433 03ea B0EE4A0A 		vmov.f32	s0, s20
 5434 03ee 1360     		str	r3, [r2]
 5435 03f0 8B4A     		ldr	r2, .L875+64
 5436 03f2 3350     		str	r3, [r6, r0]
 5437 03f4 1160     		str	r1, [r2]	@ float
 5438 03f6 0022     		movs	r2, #0
 5439 03f8 8A4B     		ldr	r3, .L875+68
 5440 03fa 1A60     		str	r2, [r3]	@ float
 5441 03fc FFF7FEFF 		bl	_Z19SelectSpectraOctavef
 5442 0400 2B78     		ldrb	r3, [r5]	@ zero_extendqisi2
 5443 0402 002B     		cmp	r3, #0
ARM GAS  /var/folders/lg/77ksxqjx0n7gwph6nqpzcmcw0000gn/T//ccn5JkAm.s 			page 95


 5444 0404 41F04D80 		bne	.L870
 5445              	.L800:
 5446 0408 8748     		ldr	r0, .L875+72
 5447 040a FFF7FEFF 		bl	_ZN5daisy6GateIn4TrigEv
 5448 040e 48B3     		cbz	r0, .L801
 5449 0410 8648     		ldr	r0, .L875+76
 5450 0412 0027     		movs	r7, #0
 5451 0414 864A     		ldr	r2, .L875+80
 5452 0416 0368     		ldr	r3, [r0]
 5453 0418 1468     		ldr	r4, [r2]
 5454 041a 5A1C     		adds	r2, r3, #1
 5455 041c 8549     		ldr	r1, .L875+84
 5456 041e 92FBF4F3 		sdiv	r3, r2, r4
 5457 0422 04FB1323 		mls	r3, r4, r3, r2
 5458 0426 844A     		ldr	r2, .L875+88
 5459 0428 844C     		ldr	r4, .L875+92
 5460 042a 06EB8306 		add	r6, r6, r3, lsl #2
 5461 042e 0360     		str	r3, [r0]
 5462 0430 8348     		ldr	r0, .L875+96
 5463 0432 02EB8302 		add	r2, r2, r3, lsl #2
 5464 0436 01EB8301 		add	r1, r1, r3, lsl #2
 5465 043a D6F83861 		ldr	r6, [r6, #312]	@ float
 5466 043e 40F82370 		str	r7, [r0, r3, lsl #2]
 5467 0442 0120     		movs	r0, #1
 5468 0444 82ED008A 		vstr.32	s16, [r2]
 5469 0448 4FF07E52 		mov	r2, #1065353216
 5470 044c 0E60     		str	r6, [r1]	@ float
 5471 044e 2070     		strb	r0, [r4]
 5472 0450 2870     		strb	r0, [r5]
 5473 0452 002B     		cmp	r3, #0
 5474 0454 40F05686 		bne	.L802
 5475 0458 7A4B     		ldr	r3, .L875+100
 5476 045a 0A21     		movs	r1, #10
 5477 045c DA61     		str	r2, [r3, #28]	@ float
 5478 045e 1A62     		str	r2, [r3, #32]	@ float
 5479 0460 5A62     		str	r2, [r3, #36]	@ float
 5480 0462 5960     		str	r1, [r3, #4]
 5481              	.L801:
 5482 0464 2AEEAA5A 		vmul.f32	s10, s21, s21
 5483 0468 774B     		ldr	r3, .L875+104
 5484 046a B7EE006B 		vmov.f64	d6, #1.0e+0
 5485 046e DFED773A 		vldr.32	s7, .L875+108
 5486 0472 B2EE040A 		vmov.f32	s0, #1.0e+1
 5487 0476 93ED007A 		vldr.32	s14, [r3]
 5488 047a B7EEC55A 		vcvt.f64.f32	d5, s10
 5489 047e 744C     		ldr	r4, .L875+112
 5490 0480 B7EEC77A 		vcvt.f64.f32	d7, s14
 5491 0484 734B     		ldr	r3, .L875+116
 5492 0486 AAEEA30A 		vfma.f32	s0, s21, s7
 5493 048a 7348     		ldr	r0, .L875+120
 5494 048c B6EE004B 		vmov.f64	d4, #5.0e-1
 5495 0490 7249     		ldr	r1, .L875+124
 5496 0492 F7EE008A 		vmov.f32	s17, #1.0e+0
 5497 0496 724A     		ldr	r2, .L875+128
 5498 0498 9FED728A 		vldr.32	s16, .L875+132
 5499 049c 81ED00BA 		vstr.32	s22, [r1]
 5500 04a0 C0ED008A 		vstr.32	s17, [r0]
ARM GAS  /var/folders/lg/77ksxqjx0n7gwph6nqpzcmcw0000gn/T//ccn5JkAm.s 			page 96


 5501 04a4 82ED008A 		vstr.32	s16, [r2]
 5502 04a8 9FED4D2B 		vldr.64	d2, .L875
 5503 04ac 9FED4E3B 		vldr.64	d3, .L875+8
 5504 04b0 A5EE426B 		vfms.f64	d6, d5, d2
 5505 04b4 27EE037B 		vmul.f64	d7, d7, d3
 5506 04b8 27EE067B 		vmul.f64	d7, d7, d6
 5507 04bc 27EE047B 		vmul.f64	d7, d7, d4
 5508 04c0 B7EEC77B 		vcvt.f32.f64	s14, d7
 5509 04c4 84ED017A 		vstr.32	s14, [r4, #4]
 5510 04c8 83ED007A 		vstr.32	s14, [r3]
 5511 04cc FFF7FEFF 		bl	log10f
 5512 04d0 9FED655A 		vldr.32	s10, .L875+136
 5513 04d4 4FF07C51 		mov	r1, #1056964608
 5514 04d8 9FED647A 		vldr.32	s14, .L875+140
 5515 04dc 30EE450A 		vsub.f32	s0, s0, s10
 5516 04e0 634B     		ldr	r3, .L875+144
 5517 04e2 2AEE877A 		vmul.f32	s14, s21, s14
 5518 04e6 6348     		ldr	r0, .L875+148
 5519 04e8 634A     		ldr	r2, .L875+152
 5520 04ea B7EEC00A 		vcvt.f64.f32	d0, s0
 5521 04ee C0ED008A 		vstr.32	s17, [r0]
 5522 04f2 B4EEC87A 		vcmpe.f32	s14, s16
 5523 04f6 1160     		str	r1, [r2]	@ float
 5524 04f8 9FED3D4B 		vldr.64	d4, .L875+16
 5525 04fc 9FED3E6B 		vldr.64	d6, .L875+24
 5526 0500 F1EE10FA 		vmrs	APSR_nzcv, FPSCR
 5527 0504 A0EE046B 		vfma.f64	d6, d0, d4
 5528 0508 B7EEC66B 		vcvt.f32.f64	s12, d6
 5529 050c 84ED006A 		vstr.32	s12, [r4]
 5530 0510 83ED006A 		vstr.32	s12, [r3]
 5531 0514 00F14F87 		bmi	.L821
 5532 0518 B4EEE87A 		vcmpe.f32	s14, s17
 5533 051c F1EE10FA 		vmrs	APSR_nzcv, FPSCR
 5534 0520 00F3F885 		bgt	.L822
 5535 0524 B7EEC77A 		vcvt.f64.f32	d7, s14
 5536 0528 DFED546A 		vldr.32	s13, .L875+156
 5537 052c F5EE005A 		vmov.f32	s11, #2.5e-1
 5538 0530 9FED536A 		vldr.32	s12, .L875+160
 5539 0534 9FED324B 		vldr.64	d4, .L875+32
 5540 0538 27EE047B 		vmul.f64	d7, d7, d4
 5541 053c B7EEC77B 		vcvt.f32.f64	s14, d7
 5542 0540 27EE257A 		vmul.f32	s14, s14, s11
 5543 0544 C7EE267A 		vdiv.f32	s15, s14, s13
 5544 0548 77EE867A 		vadd.f32	s15, s15, s12
 5545 054c F4EEC87A 		vcmpe.f32	s15, s16
 5546 0550 F1EE10FA 		vmrs	APSR_nzcv, FPSCR
 5547 0554 40F1E585 		bpl	.L871
 5548 0558 F0EE487A 		vmov.f32	s15, s16
 5549              	.L804:
 5550 055c 494B     		ldr	r3, .L875+164
 5551 055e C3ED007A 		vstr.32	s15, [r3]
 5552 0562 A1E6     		b	.L721
 5553              	.L730:
 5554 0564 384B     		ldr	r3, .L875+104
 5555 0566 B6EE008A 		vmov.f32	s16, #5.0e-1
 5556 056a B2EE040A 		vmov.f32	s0, #1.0e+1
 5557 056e 9FED377A 		vldr.32	s14, .L875+108
ARM GAS  /var/folders/lg/77ksxqjx0n7gwph6nqpzcmcw0000gn/T//ccn5JkAm.s 			page 97


 5558 0572 D3ED007A 		vldr.32	s15, [r3]
 5559 0576 364C     		ldr	r4, .L875+112
 5560 0578 2AEE27AA 		vmul.f32	s20, s20, s15
 5561 057c 354B     		ldr	r3, .L875+116
 5562 057e 384A     		ldr	r2, .L875+128
 5563 0580 A9EE070A 		vfma.f32	s0, s18, s14
 5564 0584 2AEE08AA 		vmul.f32	s20, s20, s16
 5565 0588 C2ED009A 		vstr.32	s19, [r2]
 5566 058c 84ED01AA 		vstr.32	s20, [r4, #4]
 5567 0590 83ED00AA 		vstr.32	s20, [r3]
 5568 0594 FFF7FEFF 		bl	log10f
 5569 0598 DFED337A 		vldr.32	s15, .L875+136
 5570 059c 78EE888A 		vadd.f32	s17, s17, s16
 5571 05a0 DFED396A 		vldr.32	s13, .L875+168
 5572 05a4 30EE670A 		vsub.f32	s0, s0, s15
 5573 05a8 9FED387A 		vldr.32	s14, .L875+172
 5574 05ac DFED387A 		vldr.32	s15, .L875+176
 5575 05b0 3148     		ldr	r0, .L875+152
 5576 05b2 A0EE267A 		vfma.f32	s14, s0, s13
 5577 05b6 2E4A     		ldr	r2, .L875+144
 5578 05b8 29EE279A 		vmul.f32	s18, s18, s15
 5579 05bc 354B     		ldr	r3, .L875+180
 5580 05be 3149     		ldr	r1, .L875+164
 5581 05c0 C0ED008A 		vstr.32	s17, [r0]
 5582 05c4 BDEEC99A 		vcvt.s32.f32	s18, s18
 5583 05c8 81ED00BA 		vstr.32	s22, [r1]
 5584 05cc 84ED007A 		vstr.32	s14, [r4]
 5585 05d0 82ED007A 		vstr.32	s14, [r2]
 5586 05d4 83ED009A 		vstr.32	s18, [r3]	@ int
 5587 05d8 66E6     		b	.L721
 5588              	.L876:
 5589 05da 00BFAFF3 		.align	3
 5589      0080
 5590              	.L875:
 5591 05e0 33333333 		.word	858993459
 5592 05e4 3333E33F 		.word	1071854387
 5593 05e8 9A999999 		.word	2576980378
 5594 05ec 9999D93F 		.word	1071225241
 5595 05f0 894160E5 		.word	3848290697
 5596 05f4 D022D33F 		.word	1070801616
 5597 05f8 00000060 		.word	1610612736
 5598 05fc 6666E63F 		.word	1072064102
 5599 0600 66666666 		.word	1717986918
 5600 0604 6666EE3F 		.word	1072588390
 5601 0608 00000000 		.word	.LANCHOR137
 5602 060c 00000000 		.word	_ZL15spectra_oscbank
 5603 0610 00000000 		.word	_ZL12string_voice
 5604 0614 00000000 		.word	.LANCHOR167
 5605 0618 E4140000 		.word	_ZL12string_voice+5348
 5606 061c 00000000 		.word	.LANCHOR128
 5607 0620 00000000 		.word	.LANCHOR129
 5608 0624 00000000 		.word	.LANCHOR130
 5609 0628 60020000 		.word	.LANCHOR78+608
 5610 062c 00000000 		.word	.LANCHOR168
 5611 0630 00000000 		.word	.LANCHOR170
 5612 0634 00000000 		.word	.LANCHOR171
 5613 0638 00000000 		.word	.LANCHOR169
ARM GAS  /var/folders/lg/77ksxqjx0n7gwph6nqpzcmcw0000gn/T//ccn5JkAm.s 			page 98


 5614 063c 00000000 		.word	.LANCHOR132
 5615 0640 00000000 		.word	.LANCHOR172
 5616 0644 00000000 		.word	.LANCHOR18
 5617 0648 00000000 		.word	.LANCHOR26
 5618 064c 0000B442 		.word	1119092736
 5619 0650 00000000 		.word	_ZL3rev
 5620 0654 00000000 		.word	.LANCHOR119
 5621 0658 00000000 		.word	.LANCHOR174
 5622 065c 00000000 		.word	.LANCHOR173
 5623 0660 00000000 		.word	.LANCHOR20
 5624 0664 00000000 		.word	0
 5625 0668 0800803F 		.word	1065353224
 5626 066c CDCC8C3F 		.word	1066192077
 5627 0670 00000000 		.word	.LANCHOR19
 5628 0674 00000000 		.word	.LANCHOR136
 5629 0678 00000000 		.word	.LANCHOR22
 5630 067c 3333733F 		.word	1064514355
 5631 0680 3333333F 		.word	1060320051
 5632 0684 00000000 		.word	.LANCHOR25
 5633 0688 CDCCCC3E 		.word	1053609165
 5634 068c CDCC4C3F 		.word	1061997773
 5635 0690 0000C842 		.word	1120403456
 5636 0694 00000000 		.word	.LANCHOR120
 5637              	.L727:
 5638 0698 7748     		ldr	r0, .L877+8
 5639 069a B2EE04AA 		vmov.f32	s20, #1.0e+1
 5640 069e FFF7FEFF 		bl	_ZN5daisy9Parameter7ProcessEv
 5641 06a2 79EEA99A 		vadd.f32	s19, s19, s19
 5642 06a6 754C     		ldr	r4, .L877+12
 5643 06a8 7548     		ldr	r0, .L877+16
 5644 06aa 764B     		ldr	r3, .L877+20
 5645 06ac 84ED000A 		vstr.32	s0, [r4]
 5646 06b0 80ED030A 		vstr.32	s0, [r0, #12]
 5647 06b4 C3ED009A 		vstr.32	s19, [r3]
 5648 06b8 FFF7FEFF 		bl	_ZN7daisysp4Tone21CalculateCoefficientsEv
 5649 06bc 2368     		ldr	r3, [r4]	@ float
 5650 06be 7248     		ldr	r0, .L877+24
 5651 06c0 DFED729A 		vldr.32	s19, .L877+28
 5652 06c4 C360     		str	r3, [r0, #12]	@ float
 5653 06c6 FFF7FEFF 		bl	_ZN7daisysp4Tone21CalculateCoefficientsEv
 5654 06ca 7148     		ldr	r0, .L877+32
 5655 06cc FFF7FEFF 		bl	_ZN5daisy9Parameter7ProcessEv
 5656 06d0 2268     		ldr	r2, [r4]	@ float
 5657 06d2 7048     		ldr	r0, .L877+36
 5658 06d4 FDEEC07A 		vcvt.s32.f32	s15, s0
 5659 06d8 B7EECBBA 		vcvt.f64.f32	d11, s22
 5660 06dc 6E4C     		ldr	r4, .L877+40
 5661 06de 0260     		str	r2, [r0]	@ float
 5662 06e0 B0EE4A0A 		vmov.f32	s0, s20
 5663 06e4 6D48     		ldr	r0, .L877+44
 5664 06e6 6E49     		ldr	r1, .L877+48
 5665 06e8 C0ED007A 		vstr.32	s15, [r0]	@ int
 5666 06ec A9EE290A 		vfma.f32	s0, s18, s19
 5667 06f0 6260     		str	r2, [r4, #4]	@ float
 5668 06f2 9FED5F7B 		vldr.64	d7, .L877
 5669 06f6 2BEE07BB 		vmul.f64	d11, d11, d7
 5670 06fa B7EECBBB 		vcvt.f32.f64	s22, d11
ARM GAS  /var/folders/lg/77ksxqjx0n7gwph6nqpzcmcw0000gn/T//ccn5JkAm.s 			page 99


 5671 06fe 81ED00BA 		vstr.32	s22, [r1]
 5672 0702 FFF7FEFF 		bl	log10f
 5673 0706 9FED677A 		vldr.32	s14, .L877+52
 5674 070a F0EE086A 		vmov.f32	s13, #3.0e+0
 5675 070e 9FED666A 		vldr.32	s12, .L877+56
 5676 0712 28EE088A 		vmul.f32	s16, s16, s16
 5677 0716 30EE477A 		vsub.f32	s14, s0, s14
 5678 071a DFED647A 		vldr.32	s15, .L877+60
 5679 071e B0EE4A0A 		vmov.f32	s0, s20
 5680 0722 634B     		ldr	r3, .L877+64
 5681 0724 28EE268A 		vmul.f32	s16, s16, s13
 5682 0728 624A     		ldr	r2, .L877+68
 5683 072a E7EE067A 		vfma.f32	s15, s14, s12
 5684 072e A8EEA90A 		vfma.f32	s0, s17, s19
 5685 0732 82ED008A 		vstr.32	s16, [r2]
 5686 0736 C4ED007A 		vstr.32	s15, [r4]
 5687 073a C3ED007A 		vstr.32	s15, [r3]
 5688 073e FFF7FEFF 		bl	log10f
 5689 0742 DFED5D7A 		vldr.32	s15, .L877+72
 5690 0746 B7EE007A 		vmov.f32	s14, #1.0e+0
 5691 074a DFED5C5A 		vldr.32	s11, .L877+76
 5692 074e 30EE670A 		vsub.f32	s0, s0, s15
 5693 0752 DFED5B7A 		vldr.32	s15, .L877+80
 5694 0756 9FED5B6A 		vldr.32	s12, .L877+84
 5695 075a DFED5B6A 		vldr.32	s13, .L877+88
 5696 075e E0EE257A 		vfma.f32	s15, s0, s11
 5697 0762 77EE677A 		vsub.f32	s15, s14, s15
 5698 0766 67EE867A 		vmul.f32	s15, s15, s12
 5699 076a F4EEE67A 		vcmpe.f32	s15, s13
 5700 076e F1EE10FA 		vmrs	APSR_nzcv, FPSCR
 5701 0772 00F12486 		bmi	.L815
 5702 0776 9FED557A 		vldr.32	s14, .L877+92
 5703 077a F4EE477A 		vcmp.f32	s15, s14
 5704 077e F1EE10FA 		vmrs	APSR_nzcv, FPSCR
 5705 0782 77FE277A 		vselgt.f32	s15, s14, s15
 5706              	.L734:
 5707 0786 9FED527A 		vldr.32	s14, .L877+96
 5708 078a 4FF07C54 		mov	r4, #1056964608
 5709 078e 514D     		ldr	r5, .L877+100
 5710 0790 0022     		movs	r2, #0
 5711 0792 29EE079A 		vmul.f32	s18, s18, s14
 5712 0796 5048     		ldr	r0, .L877+104
 5713 0798 5049     		ldr	r1, .L877+108
 5714 079a 514B     		ldr	r3, .L877+112
 5715 079c 85ED009A 		vstr.32	s18, [r5]
 5716 07a0 0460     		str	r4, [r0]	@ float
 5717 07a2 C1ED007A 		vstr.32	s15, [r1]
 5718 07a6 1A60     		str	r2, [r3]	@ float
 5719 07a8 7EE5     		b	.L721
 5720              	.L726:
 5721 07aa 4E48     		ldr	r0, .L877+116
 5722 07ac FFF7FEFF 		bl	_ZN5daisy6GateIn4TrigEv
 5723 07b0 50B3     		cbz	r0, .L736
 5724 07b2 4D4B     		ldr	r3, .L877+120
 5725 07b4 0025     		movs	r5, #0
 5726 07b6 4D49     		ldr	r1, .L877+124
 5727 07b8 4FF07E52 		mov	r2, #1065353216
ARM GAS  /var/folders/lg/77ksxqjx0n7gwph6nqpzcmcw0000gn/T//ccn5JkAm.s 			page 100


 5728 07bc 1868     		ldr	r0, [r3]
 5729 07be 0A24     		movs	r4, #10
 5730 07c0 1D60     		str	r5, [r3]
 5731 07c2 0125     		movs	r5, #1
 5732 07c4 81FB0031 		smull	r3, r1, r1, r0
 5733 07c8 C317     		asrs	r3, r0, #31
 5734 07ca 494E     		ldr	r6, .L877+128
 5735 07cc C3EB2151 		rsb	r1, r3, r1, asr #20
 5736 07d0 484B     		ldr	r3, .L877+132
 5737 07d2 06FB1101 		mls	r1, r6, r1, r0
 5738 07d6 1B68     		ldr	r3, [r3]
 5739 07d8 4748     		ldr	r0, .L877+136
 5740 07da 5B1A     		subs	r3, r3, r1
 5741 07dc 474E     		ldr	r6, .L877+140
 5742 07de 0160     		str	r1, [r0]
 5743 07e0 07EE903A 		vmov	s15, r3	@ int
 5744 07e4 4648     		ldr	r0, .L877+144
 5745 07e6 474B     		ldr	r3, .L877+148
 5746 07e8 F8EEE77A 		vcvt.f32.s32	s15, s15
 5747 07ec 4649     		ldr	r1, .L877+152
 5748 07ee DA61     		str	r2, [r3, #28]	@ float
 5749 07f0 1A62     		str	r2, [r3, #32]	@ float
 5750 07f2 C6ED007A 		vstr.32	s15, [r6]
 5751 07f6 C0ED007A 		vstr.32	s15, [r0]
 5752 07fa 5A62     		str	r2, [r3, #36]	@ float
 5753 07fc 9A62     		str	r2, [r3, #40]	@ float
 5754 07fe DA62     		str	r2, [r3, #44]	@ float
 5755 0800 1A63     		str	r2, [r3, #48]	@ float
 5756 0802 0D70     		strb	r5, [r1]
 5757 0804 C3E90144 		strd	r4, r4, [r3, #4]
 5758              	.L736:
 5759 0808 F6EE007A 		vmov.f32	s15, #5.0e-1
 5760 080c 3F4B     		ldr	r3, .L877+156
 5761 080e F4EEE79A 		vcmpe.f32	s19, s15
 5762 0812 F1EE10FA 		vmrs	APSR_nzcv, FPSCR
 5763 0816 40F36B84 		ble	.L857
 5764 081a 1A78     		ldrb	r2, [r3]	@ zero_extendqisi2
 5765 081c 6AB9     		cbnz	r2, .L739
 5766 081e 3649     		ldr	r1, .L877+136
 5767 0820 0122     		movs	r2, #1
 5768 0822 364D     		ldr	r5, .L877+140
 5769 0824 0C68     		ldr	r4, [r1]
 5770 0826 3648     		ldr	r0, .L877+144
 5771 0828 3949     		ldr	r1, .L877+160
 5772 082a 2D68     		ldr	r5, [r5]	@ float
 5773 082c 0C60     		str	r4, [r1]
 5774 082e 0068     		ldr	r0, [r0]	@ float
 5775 0830 384C     		ldr	r4, .L877+164
 5776 0832 3949     		ldr	r1, .L877+168
 5777 0834 2560     		str	r5, [r4]	@ float
 5778 0836 0860     		str	r0, [r1]	@ float
 5779 0838 1A70     		strb	r2, [r3]
 5780              	.L739:
 5781 083a F0EE490A 		vmov.f32	s1, s18
 5782 083e B0EE4B0A 		vmov.f32	s0, s22
 5783 0842 FFF7FEFF 		bl	_Z20SelectLooperDivisionff
 5784 0846 F0EE480A 		vmov.f32	s1, s16
ARM GAS  /var/folders/lg/77ksxqjx0n7gwph6nqpzcmcw0000gn/T//ccn5JkAm.s 			page 101


 5785 084a B0EE6A0A 		vmov.f32	s0, s21
 5786 084e FFF7FEFF 		bl	_Z21SelectLooperPlaySpeedff
 5787 0852 B7EEE87A 		vcvt.f64.f32	d7, s17
 5788 0856 314B     		ldr	r3, .L877+172
 5789 0858 9FED056B 		vldr.64	d6, .L877
 5790 085c 27EE067B 		vmul.f64	d7, d7, d6
 5791 0860 B7EEC77B 		vcvt.f32.f64	s14, d7
 5792 0864 83ED007A 		vstr.32	s14, [r3]
 5793 0868 1EE5     		b	.L721
 5794              	.L878:
 5795 086a 00BFAFF3 		.align	3
 5795      0080
 5796              	.L877:
 5797 0870 295C8FC2 		.word	3264175145
 5798 0874 F528F03F 		.word	1072703733
 5799 0878 00000000 		.word	.LANCHOR94
 5800 087c 00000000 		.word	.LANCHOR57
 5801 0880 00000000 		.word	.LANCHOR36
 5802 0884 00000000 		.word	.LANCHOR62
 5803 0888 00000000 		.word	.LANCHOR38
 5804 088c 0000B442 		.word	1119092736
 5805 0890 00000000 		.word	.LANCHOR95
 5806 0894 00000000 		.word	.LANCHOR119
 5807 0898 00000000 		.word	_ZL3rev
 5808 089c 00000000 		.word	.LANCHOR58
 5809 08a0 00000000 		.word	.LANCHOR64
 5810 08a4 0800803F 		.word	1065353224
 5811 08a8 9A99993E 		.word	1050253722
 5812 08ac 3333333F 		.word	1060320051
 5813 08b0 00000000 		.word	.LANCHOR19
 5814 08b4 00000000 		.word	.LANCHOR54
 5815 08b8 69FF7F3F 		.word	1065353065
 5816 08bc CDCCCC3E 		.word	1053609165
 5817 08c0 9A99193F 		.word	1058642330
 5818 08c4 CDCC4C3D 		.word	1028443341
 5819 08c8 17B7D138 		.word	953267991
 5820 08cc 58FF7F3F 		.word	1065353048
 5821 08d0 CDCC4C3F 		.word	1061997773
 5822 08d4 00000000 		.word	.LANCHOR25
 5823 08d8 00000000 		.word	.LANCHOR22
 5824 08dc 00000000 		.word	.LANCHOR56
 5825 08e0 00000000 		.word	.LANCHOR20
 5826 08e4 60020000 		.word	.LANCHOR78+608
 5827 08e8 00000000 		.word	.LANCHOR77
 5828 08ec EFED345D 		.word	1563749871
 5829 08f0 00F22B00 		.word	2880000
 5830 08f4 00000000 		.word	.LANCHOR73
 5831 08f8 00000000 		.word	.LANCHOR75
 5832 08fc 00000000 		.word	.LANCHOR69
 5833 0900 00000000 		.word	.LANCHOR71
 5834 0904 00000000 		.word	.LANCHOR18
 5835 0908 00000000 		.word	.LANCHOR68
 5836 090c 00000000 		.word	.LANCHOR98
 5837 0910 00000000 		.word	.LANCHOR76
 5838 0914 00000000 		.word	.LANCHOR70
 5839 0918 00000000 		.word	.LANCHOR72
 5840 091c 00000000 		.word	.LANCHOR113
ARM GAS  /var/folders/lg/77ksxqjx0n7gwph6nqpzcmcw0000gn/T//ccn5JkAm.s 			page 102


 5841              	.L725:
 5842 0920 7348     		ldr	r0, .L879+8
 5843 0922 FFF7FEFF 		bl	_ZN5daisy6GateIn4TrigEv
 5844 0926 98B1     		cbz	r0, .L780
 5845 0928 724B     		ldr	r3, .L879+12
 5846 092a 0024     		movs	r4, #0
 5847 092c 4FF07C52 		mov	r2, #1056964608
 5848 0930 4FF07E50 		mov	r0, #1065353216
 5849 0934 1D68     		ldr	r5, [r3]
 5850 0936 0A21     		movs	r1, #10
 5851 0938 1C60     		str	r4, [r3]
 5852 093a 6F4B     		ldr	r3, .L879+16
 5853 093c 6F4C     		ldr	r4, .L879+20
 5854 093e D861     		str	r0, [r3, #28]	@ float
 5855 0940 2560     		str	r5, [r4]
 5856 0942 9862     		str	r0, [r3, #40]	@ float
 5857 0944 1A62     		str	r2, [r3, #32]	@ float
 5858 0946 5A62     		str	r2, [r3, #36]	@ float
 5859 0948 DA62     		str	r2, [r3, #44]	@ float
 5860 094a 1A63     		str	r2, [r3, #48]	@ float
 5861 094c C3E90111 		strd	r1, r1, [r3, #4]
 5862              	.L780:
 5863 0950 6B4E     		ldr	r6, .L879+24
 5864 0952 3368     		ldr	r3, [r6]
 5865 0954 002B     		cmp	r3, #0
 5866 0956 40F02B83 		bne	.L781
 5867 095a 6A4A     		ldr	r2, .L879+28
 5868 095c 6A49     		ldr	r1, .L879+32
 5869 095e 1468     		ldr	r4, [r2]
 5870 0960 6A48     		ldr	r0, .L879+36
 5871 0962 6B4A     		ldr	r2, .L879+40
 5872 0964 01EB8407 		add	r7, r1, r4, lsl #2
 5873 0968 0068     		ldr	r0, [r0]
 5874 096a 02EB840C 		add	ip, r2, r4, lsl #2
 5875 096e 3F68     		ldr	r7, [r7]	@ float
 5876 0970 01EB8001 		add	r1, r1, r0, lsl #2
 5877 0974 674D     		ldr	r5, .L879+44
 5878 0976 DCF800E0 		ldr	lr, [ip]	@ float
 5879 097a 02EB8002 		add	r2, r2, r0, lsl #2
 5880 097e DFF87CC1 		ldr	ip, .L879+20
 5881 0982 0F60     		str	r7, [r1]	@ float
 5882 0984 DCF80010 		ldr	r1, [ip]
 5883 0988 55F82470 		ldr	r7, [r5, r4, lsl #2]
 5884 098c 0029     		cmp	r1, #0
 5885 098e C2F800E0 		str	lr, [r2]	@ float
 5886 0992 45F82070 		str	r7, [r5, r0, lsl #2]
 5887 0996 40DD     		ble	.L782
 5888 0998 C1F3D612 		ubfx	r2, r1, #7, #23
 5889 099c 5E4F     		ldr	r7, .L879+48
 5890 099e CCF80030 		str	r3, [ip]
 5891 09a2 07EE900A 		vmov	s15, r0	@ int
 5892 09a6 A7FB0223 		umull	r2, r3, r7, r2
 5893 09aa 5C4A     		ldr	r2, .L879+52
 5894 09ac 5C4F     		ldr	r7, .L879+56
 5895 09ae F8EEE77A 		vcvt.f32.s32	s15, s15
 5896 09b2 9B08     		lsrs	r3, r3, #2
 5897 09b4 DFF89CC1 		ldr	ip, .L879+108
ARM GAS  /var/folders/lg/77ksxqjx0n7gwph6nqpzcmcw0000gn/T//ccn5JkAm.s 			page 103


 5898 09b8 02FB03F2 		mul	r2, r2, r3
 5899 09bc 3B68     		ldr	r3, [r7]
 5900 09be CCED007A 		vstr.32	s15, [ip]
 5901 09c2 C2EB8102 		rsb	r2, r2, r1, lsl #2
 5902 09c6 45F82020 		str	r2, [r5, r0, lsl #2]
 5903 09ca EBB9     		cbnz	r3, .L783
 5904 09cc 554A     		ldr	r2, .L879+60
 5905 09ce 5649     		ldr	r1, .L879+64
 5906 09d0 1268     		ldr	r2, [r2]
 5907 09d2 51F82410 		ldr	r1, [r1, r4, lsl #2]
 5908 09d6 5548     		ldr	r0, .L879+68
 5909 09d8 511A     		subs	r1, r2, r1
 5910 09da DFF87CC1 		ldr	ip, .L879+112
 5911 09de 50F82400 		ldr	r0, [r0, r4, lsl #2]
 5912 09e2 48BF     		it	mi
 5913 09e4 0331     		addmi	r1, r1, #3
 5914 09e6 121A     		subs	r2, r2, r0
 5915 09e8 5148     		ldr	r0, .L879+72
 5916 09ea 4FEAA101 		asr	r1, r1, #2
 5917 09ee 48BF     		it	mi
 5918 09f0 0332     		addmi	r2, r2, #3
 5919 09f2 CCF80010 		str	r1, [ip]
 5920 09f6 0021     		movs	r1, #0
 5921 09f8 9210     		asrs	r2, r2, #2
 5922 09fa DFF860C1 		ldr	ip, .L879+116
 5923 09fe 0160     		str	r1, [r0]
 5924 0a00 CCF80020 		str	r2, [ip]
 5925 0a04 4B4A     		ldr	r2, .L879+76
 5926 0a06 1160     		str	r1, [r2]
 5927              	.L783:
 5928 0a08 0133     		adds	r3, r3, #1
 5929 0a0a 5A42     		rsbs	r2, r3, #0
 5930 0a0c 03F00303 		and	r3, r3, #3
 5931 0a10 02F00302 		and	r2, r2, #3
 5932 0a14 58BF     		it	pl
 5933 0a16 5342     		rsbpl	r3, r2, #0
 5934 0a18 3B60     		str	r3, [r7]
 5935              	.L782:
 5936 0a1a F6EE007A 		vmov.f32	s15, #5.0e-1
 5937 0a1e F4EEE79A 		vcmpe.f32	s19, s15
 5938 0a22 F1EE10FA 		vmrs	APSR_nzcv, FPSCR
 5939 0a26 40F3B982 		ble	.L861
 5940 0a2a 434A     		ldr	r2, .L879+80
 5941 0a2c 1378     		ldrb	r3, [r2]	@ zero_extendqisi2
 5942 0a2e 002B     		cmp	r3, #0
 5943 0a30 40F0B782 		bne	.L788
 5944 0a34 3B49     		ldr	r1, .L879+60
 5945 0a36 0127     		movs	r7, #1
 5946 0a38 55F82430 		ldr	r3, [r5, r4, lsl #2]
 5947 0a3c 0C68     		ldr	r4, [r1]
 5948 0a3e 3748     		ldr	r0, .L879+52
 5949 0a40 E31A     		subs	r3, r4, r3
 5950 0a42 3E49     		ldr	r1, .L879+84
 5951 0a44 1770     		strb	r7, [r2]
 5952 0a46 0344     		add	r3, r3, r0
 5953 0a48 3D4D     		ldr	r5, .L879+88
 5954 0a4a 81FB0321 		smull	r2, r1, r1, r3
ARM GAS  /var/folders/lg/77ksxqjx0n7gwph6nqpzcmcw0000gn/T//ccn5JkAm.s 			page 104


 5955 0a4e DA17     		asrs	r2, r3, #31
 5956 0a50 2C60     		str	r4, [r5]
 5957 0a52 C2EB2152 		rsb	r2, r2, r1, asr #20
 5958 0a56 3B4C     		ldr	r4, .L879+92
 5959 0a58 3B49     		ldr	r1, .L879+96
 5960 0a5a 00FB1232 		mls	r2, r0, r2, r3
 5961 0a5e 2260     		str	r2, [r4]
 5962 0a60 0A60     		str	r2, [r1]
 5963 0a62 9EE2     		b	.L788
 5964              	.L724:
 5965 0a64 B7EE000A 		vmov.f32	s0, #1.0e+0
 5966 0a68 F5EE007A 		vmov.f32	s15, #2.5e-1
 5967 0a6c 30EE6A0A 		vsub.f32	s0, s0, s21
 5968 0a70 B4EEE70A 		vcmpe.f32	s0, s15
 5969 0a74 F1EE10FA 		vmrs	APSR_nzcv, FPSCR
 5970 0a78 40F12583 		bpl	.L858
 5971 0a7c 334E     		ldr	r6, .L879+100
 5972 0a7e 44F6E413 		movw	r3, #18916
 5973 0a82 0222     		movs	r2, #2
 5974 0a84 F250     		str	r2, [r6, r3]
 5975              	.L742:
 5976 0a86 324A     		ldr	r2, .L879+104
 5977 0a88 F2EE027A 		vmov.f32	s15, #9.0e+0
 5978 0a8c B2EE026B 		vmov.f64	d6, #9.0e+0
 5979 0a90 44F67413 		movw	r3, #18804
 5980 0a94 92ED007A 		vldr.32	s14, [r2]
 5981 0a98 0022     		movs	r2, #0
 5982 0a9a A8EEA77A 		vfma.f32	s14, s17, s15
 5983 0a9e F250     		str	r2, [r6, r3]
 5984 0aa0 9FED115B 		vldr.64	d5, .L879
 5985 0aa4 B7EEC77A 		vcvt.f64.f32	d7, s14
 5986 0aa8 27EE057B 		vmul.f64	d7, d7, d5
 5987 0aac 27EE067B 		vmul.f64	d7, d7, d6
 5988 0ab0 FDEEC77B 		vcvt.s32.f64	s15, d7
 5989 0ab4 17EE903A 		vmov	r3, s15	@ int
 5990 0ab8 082B     		cmp	r3, #8
 5991 0aba 00F27D85 		bhi	.L816
 5992 0abe 01A2     		adr	r2, .L750
 5993 0ac0 52F823F0 		ldr	pc, [r2, r3, lsl #2]
 5994              		.p2align 2
 5995              	.L750:
 5996 0ac4 91110000 		.word	.L758+1
 5997 0ac8 77110000 		.word	.L757+1
 5998 0acc 61110000 		.word	.L756+1
 5999 0ad0 4B110000 		.word	.L755+1
 6000 0ad4 B7110000 		.word	.L754+1
 6001 0ad8 A1110000 		.word	.L753+1
 6002 0adc CD110000 		.word	.L752+1
 6003 0ae0 33110000 		.word	.L751+1
 6004 0ae4 D7000000 		.word	.L749+1
 6005              		.p2align 1
 6006              	.L880:
 6007              		.align	3
 6008              	.L879:
 6009 0ae8 9A999999 		.word	2576980378
 6010 0aec 9999B93F 		.word	1069128089
 6011 0af0 60020000 		.word	.LANCHOR78+608
ARM GAS  /var/folders/lg/77ksxqjx0n7gwph6nqpzcmcw0000gn/T//ccn5JkAm.s 			page 105


 6012 0af4 00000000 		.word	.LANCHOR150
 6013 0af8 00000000 		.word	.LANCHOR18
 6014 0afc 00000000 		.word	.LANCHOR149
 6015 0b00 00000000 		.word	.LANCHOR151
 6016 0b04 00000000 		.word	.LANCHOR115
 6017 0b08 00000000 		.word	.LANCHOR92
 6018 0b0c 00000000 		.word	.LANCHOR116
 6019 0b10 00000000 		.word	.LANCHOR93
 6020 0b14 00000000 		.word	.LANCHOR89
 6021 0b18 779A2E00 		.word	3054199
 6022 0b1c 00F22B00 		.word	2880000
 6023 0b20 00000000 		.word	.LANCHOR152
 6024 0b24 00000000 		.word	.LANCHOR153
 6025 0b28 00000000 		.word	.LANCHOR87
 6026 0b2c 00000000 		.word	.LANCHOR88
 6027 0b30 00000000 		.word	.LANCHOR156
 6028 0b34 00000000 		.word	.LANCHOR157
 6029 0b38 00000000 		.word	.LANCHOR158
 6030 0b3c EFED345D 		.word	1563749871
 6031 0b40 00000000 		.word	.LANCHOR159
 6032 0b44 00000000 		.word	.LANCHOR160
 6033 0b48 00000000 		.word	.LANCHOR161
 6034 0b4c 00000000 		.word	_ZL15spectra_oscbank
 6035 0b50 00000000 		.word	.LANCHOR127
 6036 0b54 00000000 		.word	.LANCHOR117
 6037 0b58 00000000 		.word	.LANCHOR154
 6038 0b5c 00000000 		.word	.LANCHOR155
 6039              	.L729:
 6040 0b60 95F85532 		ldrb	r3, [r5, #597]	@ zero_extendqisi2
 6041 0b64 7F2B     		cmp	r3, #127
 6042 0b66 18D1     		bne	.L731
 6043 0b68 DF48     		ldr	r0, .L881+16
 6044 0b6a E049     		ldr	r1, .L881+20
 6045 0b6c 0268     		ldr	r2, [r0]
 6046 0b6e E04C     		ldr	r4, .L881+24
 6047 0b70 0132     		adds	r2, r2, #1
 6048 0b72 81FB0231 		smull	r3, r1, r1, r2
 6049 0b76 D317     		asrs	r3, r2, #31
 6050 0b78 C3EBA103 		rsb	r3, r3, r1, asr #2
 6051 0b7c 03EB8303 		add	r3, r3, r3, lsl #2
 6052 0b80 A2EB4303 		sub	r3, r2, r3, lsl #1
 6053 0b84 03FB03F2 		mul	r2, r3, r3
 6054 0b88 0360     		str	r3, [r0]
 6055 0b8a 03FB02F3 		mul	r3, r3, r2
 6056 0b8e 07EE903A 		vmov	s15, r3	@ int
 6057 0b92 F8EEE77A 		vcvt.f32.s32	s15, s15
 6058 0b96 C4ED007A 		vstr.32	s15, [r4]
 6059              	.L731:
 6060 0b9a B0EE6A0A 		vmov.f32	s0, s21
 6061 0b9e D54E     		ldr	r6, .L881+28
 6062 0ba0 FFF7FEFF 		bl	_Z21SelectResonatorOctavef
 6063 0ba4 F2EE087A 		vmov.f32	s15, #1.2e+1
 6064 0ba8 9FEDD37A 		vldr.32	s14, .L881+32
 6065 0bac F5EE006A 		vmov.f32	s13, #2.5e-1
 6066 0bb0 D24B     		ldr	r3, .L881+36
 6067 0bb2 F2EE04AA 		vmov.f32	s21, #1.0e+1
 6068 0bb6 E9EE877A 		vfma.f32	s15, s19, s14
ARM GAS  /var/folders/lg/77ksxqjx0n7gwph6nqpzcmcw0000gn/T//ccn5JkAm.s 			page 106


 6069 0bba DFEDD1BA 		vldr.32	s23, .L881+40
 6070 0bbe 38EE088A 		vadd.f32	s16, s16, s16
 6071 0bc2 D04A     		ldr	r2, .L881+44
 6072 0bc4 B0EE6A0A 		vmov.f32	s0, s21
 6073 0bc8 CF4D     		ldr	r5, .L881+48
 6074 0bca F6EE009A 		vmov.f32	s19, #5.0e-1
 6075 0bce CF4C     		ldr	r4, .L881+52
 6076 0bd0 82ED008A 		vstr.32	s16, [r2]
 6077 0bd4 A8EEAB0A 		vfma.f32	s0, s17, s23
 6078 0bd8 B0EE677A 		vmov.f32	s14, s15
 6079 0bdc D3ED007A 		vldr.32	s15, [r3]
 6080 0be0 CB4B     		ldr	r3, .L881+56
 6081 0be2 2AEE27AA 		vmul.f32	s20, s20, s15
 6082 0be6 FDEEC77A 		vcvt.s32.f32	s15, s14
 6083 0bea 2AEE26AA 		vmul.f32	s20, s20, s13
 6084 0bee F8EEE77A 		vcvt.f32.s32	s15, s15
 6085 0bf2 3AEE0A7A 		vadd.f32	s14, s20, s20
 6086 0bf6 85ED00AA 		vstr.32	s20, [r5]
 6087 0bfa C3ED007A 		vstr.32	s15, [r3]
 6088 0bfe 2AEE29AA 		vmul.f32	s20, s20, s19
 6089 0c02 86ED017A 		vstr.32	s14, [r6, #4]
 6090 0c06 FFF7FEFF 		bl	log10f
 6091 0c0a DFEDC27A 		vldr.32	s15, .L881+60
 6092 0c0e 9FEDC27A 		vldr.32	s14, .L881+64
 6093 0c12 30EE670A 		vsub.f32	s0, s0, s15
 6094 0c16 DFEDC17A 		vldr.32	s15, .L881+68
 6095 0c1a C14B     		ldr	r3, .L881+72
 6096 0c1c C14A     		ldr	r2, .L881+76
 6097 0c1e E0EE077A 		vfma.f32	s15, s0, s14
 6098 0c22 C148     		ldr	r0, .L881+80
 6099 0c24 C2ED008A 		vstr.32	s17, [r2]
 6100 0c28 80ED03AA 		vstr.32	s20, [r0, #12]
 6101 0c2c C6ED007A 		vstr.32	s15, [r6]
 6102 0c30 C3ED007A 		vstr.32	s15, [r3]
 6103 0c34 FFF7FEFF 		bl	_ZN7daisysp4Tone21CalculateCoefficientsEv
 6104 0c38 BC48     		ldr	r0, .L881+84
 6105 0c3a 80ED03AA 		vstr.32	s20, [r0, #12]
 6106 0c3e FFF7FEFF 		bl	_ZN7daisysp4Tone21CalculateCoefficientsEv
 6107 0c42 95ED000A 		vldr.32	s0, [r5]
 6108 0c46 BA48     		ldr	r0, .L881+88
 6109 0c48 FFF7FEFF 		bl	_ZN7daisysp3Svf7SetFreqEf
 6110 0c4c 95ED000A 		vldr.32	s0, [r5]
 6111 0c50 B848     		ldr	r0, .L881+92
 6112 0c52 FFF7FEFF 		bl	_ZN7daisysp3Svf7SetFreqEf
 6113 0c56 9FEDB80A 		vldr.32	s0, .L881+96
 6114 0c5a B548     		ldr	r0, .L881+88
 6115 0c5c FFF7FEFF 		bl	_ZN7daisysp3Svf6SetResEf
 6116 0c60 9FEDB50A 		vldr.32	s0, .L881+96
 6117 0c64 B348     		ldr	r0, .L881+92
 6118 0c66 FFF7FEFF 		bl	_ZN7daisysp3Svf6SetResEf
 6119 0c6a D4ED006A 		vldr.32	s13, [r4]
 6120 0c6e 9FEDB37A 		vldr.32	s14, .L881+100
 6121 0c72 F0EE007A 		vmov.f32	s15, #2.0e+0
 6122 0c76 39EE669A 		vsub.f32	s18, s18, s13
 6123 0c7a B14B     		ldr	r3, .L881+104
 6124 0c7c B6EE005B 		vmov.f64	d5, #5.0e-1
 6125 0c80 E8EEA79A 		vfma.f32	s19, s17, s15
ARM GAS  /var/folders/lg/77ksxqjx0n7gwph6nqpzcmcw0000gn/T//ccn5JkAm.s 			page 107


 6126 0c84 E9EE076A 		vfma.f32	s13, s18, s14
 6127 0c88 C3ED009A 		vstr.32	s19, [r3]
 6128 0c8c B7EEE67A 		vcvt.f64.f32	d7, s13
 6129 0c90 C4ED006A 		vstr.32	s13, [r4]
 6130 0c94 37EE457B 		vsub.f64	d7, d7, d5
 6131 0c98 37EE077B 		vadd.f64	d7, d7, d7
 6132 0c9c B7EEC77B 		vcvt.f32.f64	s14, d7
 6133 0ca0 B5EEC07A 		vcmpe.f32	s14, #0
 6134 0ca4 F1EE10FA 		vmrs	APSR_nzcv, FPSCR
 6135 0ca8 00F17883 		bmi	.L811
 6136 0cac F7EE007A 		vmov.f32	s15, #1.0e+0
 6137 0cb0 B4EEE77A 		vcmpe.f32	s14, s15
 6138 0cb4 F1EE10FA 		vmrs	APSR_nzcv, FPSCR
 6139 0cb8 00F33082 		bgt	.L812
 6140 0cbc B0EE6A0A 		vmov.f32	s0, s21
 6141 0cc0 A7EE2B0A 		vfma.f32	s0, s14, s23
 6142              	.L732:
 6143 0cc4 FFF7FEFF 		bl	log10f
 6144 0cc8 B7EE007A 		vmov.f32	s14, #1.0e+0
 6145 0ccc 9FED916A 		vldr.32	s12, .L881+60
 6146 0cd0 F0EE007A 		vmov.f32	s15, #2.0e+0
 6147 0cd4 D4ED006A 		vldr.32	s13, [r4]
 6148 0cd8 B7EE088A 		vmov.f32	s16, #1.5e+0
 6149 0cdc 30EE460A 		vsub.f32	s0, s0, s12
 6150 0ce0 B0EE476A 		vmov.f32	s12, s14
 6151 0ce4 20EE088A 		vmul.f32	s16, s0, s16
 6152 0ce8 A6EEE76A 		vfms.f32	s12, s13, s15
 6153 0cec B5EEC06A 		vcmpe.f32	s12, #0
 6154 0cf0 F1EE10FA 		vmrs	APSR_nzcv, FPSCR
 6155 0cf4 00F16783 		bmi	.L813
 6156 0cf8 B4EEC76A 		vcmpe.f32	s12, s14
 6157 0cfc F1EE10FA 		vmrs	APSR_nzcv, FPSCR
 6158 0d00 00F33684 		bgt	.L814
 6159 0d04 B2EE040A 		vmov.f32	s0, #1.0e+1
 6160 0d08 9FED7D7A 		vldr.32	s14, .L881+40
 6161 0d0c A6EE070A 		vfma.f32	s0, s12, s14
 6162              	.L733:
 6163 0d10 FFF7FEFF 		bl	log10f
 6164 0d14 DFED7F7A 		vldr.32	s15, .L881+60
 6165 0d18 B7EECBBA 		vcvt.f64.f32	d11, s22
 6166 0d1c 894B     		ldr	r3, .L881+108
 6167 0d1e 30EE670A 		vsub.f32	s0, s0, s15
 6168 0d22 894A     		ldr	r2, .L881+112
 6169 0d24 F7EE086A 		vmov.f32	s13, #1.5e+0
 6170 0d28 9FED6B7B 		vldr.64	d7, .L881
 6171 0d2c A0EE668A 		vfms.f32	s16, s0, s13
 6172 0d30 2BEE07BB 		vmul.f64	d11, d11, d7
 6173 0d34 82ED008A 		vstr.32	s16, [r2]
 6174 0d38 B7EECBBB 		vcvt.f32.f64	s22, d11
 6175 0d3c 83ED00BA 		vstr.32	s22, [r3]
 6176 0d40 FFF7B2BA 		b	.L721
 6177              	.L728:
 6178 0d44 6D4C     		ldr	r4, .L881+36
 6179 0d46 8148     		ldr	r0, .L881+116
 6180 0d48 FFF7FEFF 		bl	_ZN5daisy9Parameter7ProcessEv
 6181 0d4c 94ED007A 		vldr.32	s14, [r4]
 6182 0d50 7F4D     		ldr	r5, .L881+120
ARM GAS  /var/folders/lg/77ksxqjx0n7gwph6nqpzcmcw0000gn/T//ccn5JkAm.s 			page 108


 6183 0d52 C0EE077A 		vdiv.f32	s15, s0, s14
 6184 0d56 7F48     		ldr	r0, .L881+124
 6185 0d58 C5ED007A 		vstr.32	s15, [r5]
 6186 0d5c FFF7FEFF 		bl	_ZN5daisy9Parameter7ProcessEv
 6187 0d60 D4ED007A 		vldr.32	s15, [r4]
 6188 0d64 F7EE002A 		vmov.f32	s5, #1.0e+0
 6189 0d68 7B4B     		ldr	r3, .L881+128
 6190 0d6a 28EE088A 		vmul.f32	s16, s16, s16
 6191 0d6e C0EE273A 		vdiv.f32	s7, s0, s15
 6192 0d72 95ED006A 		vldr.32	s12, [r5]
 6193 0d76 D3ED007A 		vldr.32	s15, [r3]
 6194 0d7a 784C     		ldr	r4, .L881+132
 6195 0d7c 9FED784A 		vldr.32	s8, .L881+136
 6196 0d80 D4ED006A 		vldr.32	s13, [r4]
 6197 0d84 36EE676A 		vsub.f32	s12, s12, s15
 6198 0d88 9FED763A 		vldr.32	s6, .L881+140
 6199 0d8c 6AEEAAAA 		vmul.f32	s21, s21, s21
 6200 0d90 DFED754A 		vldr.32	s9, .L881+144
 6201 0d94 B0EE622A 		vmov.f32	s4, s5
 6202 0d98 744A     		ldr	r2, .L881+148
 6203 0d9a F0EE620A 		vmov.f32	s1, s5
 6204 0d9e 9FED741A 		vldr.32	s2, .L881+152
 6205 0da2 E6EE047A 		vfma.f32	s15, s12, s8
 6206 0da6 9FED735A 		vldr.32	s10, .L881+156
 6207 0daa A8EE032A 		vfma.f32	s4, s16, s6
 6208 0dae DFED725A 		vldr.32	s11, .L881+160
 6209 0db2 EAEE830A 		vfma.f32	s1, s21, s6
 6210 0db6 9FED716A 		vldr.32	s12, .L881+164
 6211 0dba B7EECBBA 		vcvt.f64.f32	d11, s22
 6212 0dbe 7048     		ldr	r0, .L881+168
 6213 0dc0 7049     		ldr	r1, .L881+172
 6214 0dc2 32EECA0A 		vsub.f32	s0, s5, s20
 6215 0dc6 704D     		ldr	r5, .L881+176
 6216 0dc8 B0EE677A 		vmov.f32	s14, s15
 6217 0dcc DFED6F7A 		vldr.32	s15, .L881+180
 6218 0dd0 33EEE63A 		vsub.f32	s6, s7, s13
 6219 0dd4 C2ED003A 		vstr.32	s7, [r2]
 6220 0dd8 B0EE428A 		vmov.f32	s16, s4
 6221 0ddc 0022     		movs	r2, #0
 6222 0dde 27EE072A 		vmul.f32	s4, s14, s14
 6223 0de2 83ED007A 		vstr.32	s14, [r3]
 6224 0de6 E3EE046A 		vfma.f32	s13, s6, s8
 6225 0dea 694B     		ldr	r3, .L881+184
 6226 0dec B0EE644A 		vmov.f32	s8, s9
 6227 0df0 85ED00AA 		vstr.32	s20, [r5]
 6228 0df4 E2EE014A 		vfma.f32	s9, s4, s2
 6229 0df8 C3ED169A 		vstr.32	s19, [r3, #88]
 6230 0dfc 82EEA03A 		vdiv.f32	s6, s5, s1
 6231 0e00 5A64     		str	r2, [r3, #68]	@ float
 6232 0e02 9A64     		str	r2, [r3, #72]	@ float
 6233 0e04 1A65     		str	r2, [r3, #80]	@ float
 6234 0e06 C4ED006A 		vstr.32	s13, [r4]
 6235 0e0a 624C     		ldr	r4, .L881+188
 6236 0e0c 66EEA63A 		vmul.f32	s7, s13, s13
 6237 0e10 DA65     		str	r2, [r3, #92]	@ float
 6238 0e12 F0EE650A 		vmov.f32	s1, s11
 6239 0e16 C4ED009A 		vstr.32	s19, [r4]
ARM GAS  /var/folders/lg/77ksxqjx0n7gwph6nqpzcmcw0000gn/T//ccn5JkAm.s 			page 109


 6240 0e1a 72EEE99A 		vsub.f32	s19, s5, s19
 6241 0e1e 9A66     		str	r2, [r3, #104]	@ float
 6242 0e20 A3EE814A 		vfma.f32	s8, s7, s2
 6243 0e24 DA66     		str	r2, [r3, #108]	@ float
 6244 0e26 B0EE451A 		vmov.f32	s2, s10
 6245 0e2a 5B4A     		ldr	r2, .L881+192
 6246 0e2c A2EE245A 		vfma.f32	s10, s4, s9
 6247 0e30 C3ED189A 		vstr.32	s19, [r3, #96]
 6248 0e34 B7EEC99A 		vcvt.f64.f32	d9, s18
 6249 0e38 83ED13AA 		vstr.32	s20, [r3, #76]
 6250 0e3c C2EE881A 		vdiv.f32	s3, s5, s16
 6251 0e40 C2ED008A 		vstr.32	s17, [r2]
 6252 0e44 83ED150A 		vstr.32	s0, [r3, #84]
 6253 0e48 81ED013A 		vstr.32	s6, [r1, #4]
 6254 0e4c A3EE841A 		vfma.f32	s2, s7, s8
 6255 0e50 E2EE055A 		vfma.f32	s11, s4, s10
 6256 0e54 9FED224B 		vldr.64	d4, .L881+8
 6257 0e58 E3EE810A 		vfma.f32	s1, s7, s2
 6258 0e5c 2BEE04BB 		vmul.f64	d11, d11, d4
 6259 0e60 29EE049B 		vmul.f64	d9, d9, d4
 6260 0e64 C0ED011A 		vstr.32	s3, [r0, #4]
 6261 0e68 F0EE464A 		vmov.f32	s9, s12
 6262 0e6c B7EECB5B 		vcvt.f32.f64	s10, d11
 6263 0e70 A2EE256A 		vfma.f32	s12, s4, s11
 6264 0e74 E3EEA04A 		vfma.f32	s9, s7, s1
 6265 0e78 83ED105A 		vstr.32	s10, [r3, #64]
 6266 0e7c B0EE675A 		vmov.f32	s10, s15
 6267 0e80 F7EEC95B 		vcvt.f32.f64	s11, d9
 6268 0e84 E2EE067A 		vfma.f32	s15, s4, s12
 6269 0e88 C3ED195A 		vstr.32	s11, [r3, #100]
 6270 0e8c A3EEA45A 		vfma.f32	s10, s7, s9
 6271 0e90 B0EE626A 		vmov.f32	s12, s5
 6272 0e94 67EE277A 		vmul.f32	s15, s14, s15
 6273 0e98 66EE856A 		vmul.f32	s13, s13, s10
 6274 0e9c B0EE627A 		vmov.f32	s14, s5
 6275 0ea0 C1ED007A 		vstr.32	s15, [r1]
 6276 0ea4 A6EEA16A 		vfma.f32	s12, s13, s3
 6277 0ea8 C0ED006A 		vstr.32	s13, [r0]
 6278 0eac A7EE837A 		vfma.f32	s14, s15, s6
 6279 0eb0 A6EEA66A 		vfma.f32	s12, s13, s13
 6280 0eb4 A7EEA77A 		vfma.f32	s14, s15, s15
 6281 0eb8 F0EE466A 		vmov.f32	s13, s12
 6282 0ebc F0EE477A 		vmov.f32	s15, s14
 6283 0ec0 82EEA66A 		vdiv.f32	s12, s5, s13
 6284 0ec4 82EEA77A 		vdiv.f32	s14, s5, s15
 6285 0ec8 80ED026A 		vstr.32	s12, [r0, #8]
 6286 0ecc 81ED027A 		vstr.32	s14, [r1, #8]
 6287 0ed0 FFF7EAB9 		b	.L721
 6288              	.L882:
 6289 0ed4 AFF30080 		.align	3
 6290              	.L881:
 6291 0ed8 295C8FC2 		.word	3264175145
 6292 0edc F528F03F 		.word	1072703733
 6293 0ee0 9A999999 		.word	2576980378
 6294 0ee4 9999E93F 		.word	1072273817
 6295 0ee8 00000000 		.word	.LANCHOR35
 6296 0eec 67666666 		.word	1717986919
ARM GAS  /var/folders/lg/77ksxqjx0n7gwph6nqpzcmcw0000gn/T//ccn5JkAm.s 			page 110


 6297 0ef0 00000000 		.word	.LANCHOR28
 6298 0ef4 00000000 		.word	_ZL3rev
 6299 0ef8 00007042 		.word	1114636288
 6300 0efc 00000000 		.word	.LANCHOR26
 6301 0f00 0000B442 		.word	1119092736
 6302 0f04 00000000 		.word	.LANCHOR20
 6303 0f08 00000000 		.word	.LANCHOR121
 6304 0f0c 00000000 		.word	.LANCHOR122
 6305 0f10 00000000 		.word	.LANCHOR27
 6306 0f14 0800803F 		.word	1065353224
 6307 0f18 3333B33F 		.word	1068708659
 6308 0f1c CDCC4C3F 		.word	1061997773
 6309 0f20 00000000 		.word	.LANCHOR19
 6310 0f24 00000000 		.word	.LANCHOR25
 6311 0f28 00000000 		.word	.LANCHOR36
 6312 0f2c 00000000 		.word	.LANCHOR38
 6313 0f30 00000000 		.word	.LANCHOR37
 6314 0f34 00000000 		.word	.LANCHOR39
 6315 0f38 6F12833A 		.word	981668463
 6316 0f3c 6F12033C 		.word	1006834287
 6317 0f40 00000000 		.word	.LANCHOR22
 6318 0f44 00000000 		.word	.LANCHOR41
 6319 0f48 00000000 		.word	.LANCHOR43
 6320 0f4c 00000000 		.word	.LANCHOR84
 6321 0f50 00000000 		.word	.LANCHOR123
 6322 0f54 00000000 		.word	.LANCHOR85
 6323 0f58 00000000 		.word	.LANCHOR125
 6324 0f5c 00000000 		.word	.LANCHOR126
 6325 0f60 CDCCCC3D 		.word	1036831949
 6326 0f64 00004442 		.word	1111752704
 6327 0f68 90ECAC42 		.word	1118629008
 6328 0f6c 00000000 		.word	.LANCHOR124
 6329 0f70 23FE2E45 		.word	1160707619
 6330 0f74 8F342143 		.word	1126249615
 6331 0f78 66482342 		.word	1109608550
 6332 0f7c A85D2541 		.word	1092967848
 6333 0f80 00000000 		.word	.LANCHOR49
 6334 0f84 00000000 		.word	.LANCHOR47
 6335 0f88 00000000 		.word	.LANCHOR46
 6336 0f8c DB0F4940 		.word	1078530011
 6337 0f90 00000000 		.word	.LANCHOR18
 6338 0f94 00000000 		.word	.LANCHOR48
 6339 0f98 00000000 		.word	.LANCHOR50
 6340              	.L861:
 6341 0f9c BC4B     		ldr	r3, .L883+16
 6342 0f9e 0022     		movs	r2, #0
 6343 0fa0 1A70     		strb	r2, [r3]
 6344              	.L788:
 6345 0fa2 F0EE490A 		vmov.f32	s1, s18
 6346 0fa6 B0EE4B0A 		vmov.f32	s0, s22
 6347 0faa FFF7FEFF 		bl	_Z19SelectDelayDivisionff
 6348 0fae 3368     		ldr	r3, [r6]
 6349              	.L781:
 6350 0fb0 B84A     		ldr	r2, .L883+20
 6351 0fb2 0133     		adds	r3, r3, #1
 6352 0fb4 F2EE04AA 		vmov.f32	s21, #1.0e+1
 6353 0fb8 9FEDB7BA 		vldr.32	s22, .L883+24
ARM GAS  /var/folders/lg/77ksxqjx0n7gwph6nqpzcmcw0000gn/T//ccn5JkAm.s 			page 111


 6354 0fbc 1168     		ldr	r1, [r2]
 6355 0fbe B7EE009A 		vmov.f32	s18, #1.0e+0
 6356 0fc2 DFEDB69A 		vldr.32	s19, .L883+28
 6357 0fc6 B0EE6A0A 		vmov.f32	s0, s21
 6358 0fca B54C     		ldr	r4, .L883+32
 6359 0fcc B54D     		ldr	r5, .L883+36
 6360 0fce 93FBF1F2 		sdiv	r2, r3, r1
 6361 0fd2 01FB1233 		mls	r3, r1, r2, r3
 6362 0fd6 AAEE0B0A 		vfma.f32	s0, s20, s22
 6363 0fda 3360     		str	r3, [r6]
 6364 0fdc FFF7FEFF 		bl	log10f
 6365 0fe0 30EE697A 		vsub.f32	s14, s0, s19
 6366 0fe4 DFEDB07A 		vldr.32	s15, .L883+40
 6367 0fe8 B7EEC85A 		vcvt.f64.f32	d5, s16
 6368 0fec AF4B     		ldr	r3, .L883+44
 6369 0fee B0EE6A0A 		vmov.f32	s0, s21
 6370 0ff2 27EE277A 		vmul.f32	s14, s14, s15
 6371 0ff6 9FEDA26B 		vldr.64	d6, .L883
 6372 0ffa B7EEC77A 		vcvt.f64.f32	d7, s14
 6373 0ffe A8EE8B0A 		vfma.f32	s0, s17, s22
 6374 1002 A5EE067B 		vfma.f64	d7, d5, d6
 6375 1006 B7EEC77B 		vcvt.f32.f64	s14, d7
 6376 100a 83ED007A 		vstr.32	s14, [r3]
 6377 100e FFF7FEFF 		bl	log10f
 6378 1012 30EE490A 		vsub.f32	s0, s0, s18
 6379 1016 A64B     		ldr	r3, .L883+48
 6380 1018 A648     		ldr	r0, .L883+52
 6381 101a 9FED9B6B 		vldr.64	d6, .L883+8
 6382 101e B7EEC07A 		vcvt.f64.f32	d7, s0
 6383 1022 27EE067B 		vmul.f64	d7, d7, d6
 6384 1026 B7EEC77B 		vcvt.f32.f64	s14, d7
 6385 102a 83ED007A 		vstr.32	s14, [r3]
 6386 102e FFF7FEFF 		bl	_ZN5daisy9Parameter7ProcessEv
 6387 1032 D4ED007A 		vldr.32	s15, [r4]
 6388 1036 9FEDA07A 		vldr.32	s14, .L883+56
 6389 103a 70EE676A 		vsub.f32	s13, s0, s15
 6390 103e 9F48     		ldr	r0, .L883+60
 6391 1040 9F4B     		ldr	r3, .L883+64
 6392 1042 E6EE877A 		vfma.f32	s15, s13, s14
 6393 1046 83ED000A 		vstr.32	s0, [r3]
 6394 104a C4ED007A 		vstr.32	s15, [r4]
 6395 104e C0ED037A 		vstr.32	s15, [r0, #12]
 6396 1052 FFF7FEFF 		bl	_ZN7daisysp4Tone21CalculateCoefficientsEv
 6397 1056 9B48     		ldr	r0, .L883+68
 6398 1058 2368     		ldr	r3, [r4]	@ float
 6399 105a 9B4C     		ldr	r4, .L883+72
 6400 105c C360     		str	r3, [r0, #12]	@ float
 6401 105e FFF7FEFF 		bl	_ZN7daisysp4Tone21CalculateCoefficientsEv
 6402 1062 9A4A     		ldr	r2, .L883+76
 6403 1064 B5EE007A 		vmov.f32	s14, #2.5e-1
 6404 1068 B0EE6A0A 		vmov.f32	s0, s21
 6405 106c 984B     		ldr	r3, .L883+80
 6406 106e D2ED007A 		vldr.32	s15, [r2]
 6407 1072 E7EE887A 		vfma.f32	s15, s15, s16
 6408 1076 A8EE0B0A 		vfma.f32	s0, s16, s22
 6409 107a 67EE877A 		vmul.f32	s15, s15, s14
 6410 107e C5ED017A 		vstr.32	s15, [r5, #4]
ARM GAS  /var/folders/lg/77ksxqjx0n7gwph6nqpzcmcw0000gn/T//ccn5JkAm.s 			page 112


 6411 1082 C3ED007A 		vstr.32	s15, [r3]
 6412 1086 FFF7FEFF 		bl	log10f
 6413 108a 30EE690A 		vsub.f32	s0, s0, s19
 6414 108e DFED916A 		vldr.32	s13, .L883+84
 6415 1092 DFED917A 		vldr.32	s15, .L883+88
 6416 1096 B6EE087A 		vmov.f32	s14, #7.5e-1
 6417 109a 904B     		ldr	r3, .L883+92
 6418 109c 0021     		movs	r1, #0
 6419 109e E0EE267A 		vfma.f32	s15, s0, s13
 6420 10a2 8F48     		ldr	r0, .L883+96
 6421 10a4 28EE078A 		vmul.f32	s16, s16, s14
 6422 10a8 8E4A     		ldr	r2, .L883+100
 6423 10aa 84ED009A 		vstr.32	s18, [r4]
 6424 10ae 1160     		str	r1, [r2]	@ float
 6425 10b0 80ED008A 		vstr.32	s16, [r0]
 6426 10b4 C5ED007A 		vstr.32	s15, [r5]
 6427 10b8 C3ED007A 		vstr.32	s15, [r3]
 6428 10bc FFF7F4B8 		b	.L721
 6429              	.L868:
 6430 10c0 0634     		adds	r4, r4, #6
 6431 10c2 FEF7DBBF 		b	.L718
 6432              	.L858:
 6433 10c6 F6EE007A 		vmov.f32	s15, #5.0e-1
 6434 10ca B4EEE70A 		vcmpe.f32	s0, s15
 6435 10ce F1EE10FA 		vmrs	APSR_nzcv, FPSCR
 6436 10d2 11D4     		bmi	.L872
 6437 10d4 F6EE087A 		vmov.f32	s15, #7.5e-1
 6438 10d8 834E     		ldr	r6, .L883+104
 6439 10da B4EEE70A 		vcmpe.f32	s0, s15
 6440 10de F1EE10FA 		vmrs	APSR_nzcv, FPSCR
 6441 10e2 40F16182 		bpl	.L860
 6442 10e6 44F6E413 		movw	r3, #18916
 6443 10ea 0822     		movs	r2, #8
 6444 10ec F250     		str	r2, [r6, r3]
 6445 10ee CAE4     		b	.L742
 6446              	.L857:
 6447 10f0 0022     		movs	r2, #0
 6448 10f2 1A70     		strb	r2, [r3]
 6449 10f4 FFF7A1BB 		b	.L739
 6450              	.L872:
 6451 10f8 7B4E     		ldr	r6, .L883+104
 6452 10fa 44F6E413 		movw	r3, #18916
 6453 10fe 0422     		movs	r2, #4
 6454 1100 F250     		str	r2, [r6, r3]
 6455 1102 C0E4     		b	.L742
 6456              	.L802:
 6457 1104 794B     		ldr	r3, .L883+108
 6458 1106 0A21     		movs	r1, #10
 6459 1108 9A62     		str	r2, [r3, #40]	@ float
 6460 110a DA62     		str	r2, [r3, #44]	@ float
 6461 110c 1A63     		str	r2, [r3, #48]	@ float
 6462 110e 9960     		str	r1, [r3, #8]
 6463 1110 FFF7A8B9 		b	.L801
 6464              	.L822:
 6465 1114 DFED767A 		vldr.32	s15, .L883+112
 6466 1118 FFF720BA 		b	.L804
 6467              	.L812:
ARM GAS  /var/folders/lg/77ksxqjx0n7gwph6nqpzcmcw0000gn/T//ccn5JkAm.s 			page 113


 6468 111c 9FED750A 		vldr.32	s0, .L883+116
 6469 1120 D0E5     		b	.L732
 6470              	.L871:
 6471 1122 F4EE667A 		vcmp.f32	s15, s13
 6472 1126 F1EE10FA 		vmrs	APSR_nzcv, FPSCR
 6473 112a 76FEA77A 		vselgt.f32	s15, s13, s15
 6474 112e FFF715BA 		b	.L804
 6475              	.L751:
 6476 1132 44F67413 		movw	r3, #18804
 6477 1136 0621     		movs	r1, #6
 6478 1138 6F4A     		ldr	r2, .L883+120
 6479 113a F150     		str	r1, [r6, r3]
 6480 113c 2346     		mov	r3, r4
 6481 113e 6F49     		ldr	r1, .L883+124
 6482 1140 9FED6F7A 		vldr.32	s14, .L883+128
 6483 1144 1160     		str	r1, [r2]	@ float
 6484 1146 FEF7CFBF 		b	.L748
 6485              	.L755:
 6486 114a 44F67410 		movw	r0, #18804
 6487 114e 0523     		movs	r3, #5
 6488 1150 694A     		ldr	r2, .L883+120
 6489 1152 6C49     		ldr	r1, .L883+132
 6490 1154 9FED6C7A 		vldr.32	s14, .L883+136
 6491 1158 3350     		str	r3, [r6, r0]
 6492 115a 1160     		str	r1, [r2]	@ float
 6493 115c FEF7C4BF 		b	.L748
 6494              	.L756:
 6495 1160 44F67410 		movw	r0, #18804
 6496 1164 0123     		movs	r3, #1
 6497 1166 644A     		ldr	r2, .L883+120
 6498 1168 6649     		ldr	r1, .L883+132
 6499 116a 9FED687A 		vldr.32	s14, .L883+140
 6500 116e 3350     		str	r3, [r6, r0]
 6501 1170 1160     		str	r1, [r2]	@ float
 6502 1172 FEF7B9BF 		b	.L748
 6503              	.L757:
 6504 1176 604B     		ldr	r3, .L883+120
 6505 1178 0822     		movs	r2, #8
 6506 117a 4FF07E50 		mov	r0, #1065353216
 6507 117e 44F67411 		movw	r1, #18804
 6508 1182 9FED637A 		vldr.32	s14, .L883+144
 6509 1186 1860     		str	r0, [r3]	@ float
 6510 1188 1346     		mov	r3, r2
 6511 118a 7250     		str	r2, [r6, r1]
 6512 118c FEF7ACBF 		b	.L748
 6513              	.L758:
 6514 1190 4FF07E51 		mov	r1, #1065353216
 6515 1194 584A     		ldr	r2, .L883+120
 6516 1196 9FED5F7A 		vldr.32	s14, .L883+148
 6517 119a 1160     		str	r1, [r2]	@ float
 6518 119c FEF7A4BF 		b	.L748
 6519              	.L753:
 6520 11a0 44F67410 		movw	r0, #18804
 6521 11a4 0223     		movs	r3, #2
 6522 11a6 544A     		ldr	r2, .L883+120
 6523 11a8 5B49     		ldr	r1, .L883+152
 6524 11aa 9FED5C7A 		vldr.32	s14, .L883+156
ARM GAS  /var/folders/lg/77ksxqjx0n7gwph6nqpzcmcw0000gn/T//ccn5JkAm.s 			page 114


 6525 11ae 3350     		str	r3, [r6, r0]
 6526 11b0 1160     		str	r1, [r2]	@ float
 6527 11b2 FEF799BF 		b	.L748
 6528              	.L754:
 6529 11b6 44F67411 		movw	r1, #18804
 6530 11ba 0723     		movs	r3, #7
 6531 11bc 4E4A     		ldr	r2, .L883+120
 6532 11be B6EE007A 		vmov.f32	s14, #5.0e-1
 6533 11c2 7350     		str	r3, [r6, r1]
 6534 11c4 5649     		ldr	r1, .L883+160
 6535 11c6 1160     		str	r1, [r2]	@ float
 6536 11c8 FEF78EBF 		b	.L748
 6537              	.L752:
 6538 11cc 44F67410 		movw	r0, #18804
 6539 11d0 0323     		movs	r3, #3
 6540 11d2 494A     		ldr	r2, .L883+120
 6541 11d4 4949     		ldr	r1, .L883+124
 6542 11d6 9FED537A 		vldr.32	s14, .L883+164
 6543 11da 3350     		str	r3, [r6, r0]
 6544 11dc 1160     		str	r1, [r2]	@ float
 6545 11de FEF783BF 		b	.L748
 6546              	.L867:
 6547 11e2 5148     		ldr	r0, .L883+168
 6548 11e4 5149     		ldr	r1, .L883+172
 6549 11e6 0268     		ldr	r2, [r0]
 6550 11e8 0132     		adds	r2, r2, #1
 6551 11ea 81FB0231 		smull	r3, r1, r1, r2
 6552 11ee D317     		asrs	r3, r2, #31
 6553 11f0 C3EB6103 		rsb	r3, r3, r1, asr #1
 6554 11f4 03EBC303 		add	r3, r3, r3, lsl #3
 6555 11f8 D31A     		subs	r3, r2, r3
 6556 11fa 002B     		cmp	r3, #0
 6557 11fc 0360     		str	r3, [r0]
 6558 11fe 40F3BF81 		ble	.L770
 6559 1202 3A4A     		ldr	r2, .L883+108
 6560 1204 0021     		movs	r1, #0
 6561 1206 4FF07E50 		mov	r0, #1065353216
 6562 120a 023B     		subs	r3, r3, #2
 6563 120c 1164     		str	r1, [r2, #64]	@ float
 6564 120e 5064     		str	r0, [r2, #68]	@ float
 6565 1210 9164     		str	r1, [r2, #72]	@ float
 6566 1212 062B     		cmp	r3, #6
 6567 1214 00F2D581 		bhi	.L771
 6568 1218 DFE803F0 		tbb	[pc, r3]
 6569              	.L773:
 6570 121c B3       		.byte	(.L779-.L773)/2
 6571 121d A8       		.byte	(.L778-.L773)/2
 6572 121e 9E       		.byte	(.L777-.L773)/2
 6573 121f 24       		.byte	(.L776-.L773)/2
 6574 1220 19       		.byte	(.L775-.L773)/2
 6575 1221 0E       		.byte	(.L774-.L773)/2
 6576 1222 04       		.byte	(.L772-.L773)/2
 6577 1223 00       		.p2align 1
 6578              	.L772:
 6579 1224 3C4B     		ldr	r3, .L883+152
 6580 1226 0024     		movs	r4, #0
 6581 1228 4149     		ldr	r1, .L883+176
ARM GAS  /var/folders/lg/77ksxqjx0n7gwph6nqpzcmcw0000gn/T//ccn5JkAm.s 			page 115


 6582 122a 4248     		ldr	r0, .L883+180
 6583 122c 5366     		str	r3, [r2, #100]	@ float
 6584 122e 9366     		str	r3, [r2, #104]	@ float
 6585 1230 D466     		str	r4, [r2, #108]	@ float
 6586 1232 0860     		str	r0, [r1]
 6587 1234 FFF735B8 		b	.L769
 6588              	.L774:
 6589 1238 0025     		movs	r5, #0
 6590 123a 374C     		ldr	r4, .L883+152
 6591 123c 3E48     		ldr	r0, .L883+184
 6592 123e 3C4B     		ldr	r3, .L883+176
 6593 1240 3E49     		ldr	r1, .L883+188
 6594 1242 5566     		str	r5, [r2, #100]	@ float
 6595 1244 9466     		str	r4, [r2, #104]	@ float
 6596 1246 D066     		str	r0, [r2, #108]	@ float
 6597 1248 1960     		str	r1, [r3]
 6598 124a FFF72AB8 		b	.L769
 6599              	.L775:
 6600 124e 0025     		movs	r5, #0
 6601 1250 3B4C     		ldr	r4, .L883+192
 6602 1252 3C48     		ldr	r0, .L883+196
 6603 1254 364B     		ldr	r3, .L883+176
 6604 1256 3C49     		ldr	r1, .L883+200
 6605 1258 5566     		str	r5, [r2, #100]	@ float
 6606 125a 9466     		str	r4, [r2, #104]	@ float
 6607 125c D066     		str	r0, [r2, #108]	@ float
 6608 125e 1960     		str	r1, [r3]
 6609 1260 FFF71FB8 		b	.L769
 6610              	.L776:
 6611 1264 0025     		movs	r5, #0
 6612 1266 394C     		ldr	r4, .L883+204
 6613 1268 3948     		ldr	r0, .L883+208
 6614 126a 314B     		ldr	r3, .L883+176
 6615 126c 3949     		ldr	r1, .L883+212
 6616 126e 5566     		str	r5, [r2, #100]	@ float
 6617 1270 9466     		str	r4, [r2, #104]	@ float
 6618 1272 D066     		str	r0, [r2, #108]	@ float
 6619 1274 1960     		str	r1, [r3]
 6620 1276 FFF714B8 		b	.L769
 6621              	.L884:
 6622 127a 00BFAFF3 		.align	3
 6622      0080
 6623              	.L883:
 6624 1280 9A999999 		.word	2576980378
 6625 1284 9999B93F 		.word	1069128089
 6626 1288 295C8FC2 		.word	3264175145
 6627 128c F528F03F 		.word	1072703733
 6628 1290 00000000 		.word	.LANCHOR158
 6629 1294 00000000 		.word	.LANCHOR162
 6630 1298 0000B442 		.word	1119092736
 6631 129c 0800803F 		.word	1065353224
 6632 12a0 00000000 		.word	.LANCHOR166
 6633 12a4 00000000 		.word	_ZL3rev
 6634 12a8 6666663F 		.word	1063675494
 6635 12ac 00000000 		.word	.LANCHOR163
 6636 12b0 00000000 		.word	.LANCHOR164
 6637 12b4 00000000 		.word	.LANCHOR86
ARM GAS  /var/folders/lg/77ksxqjx0n7gwph6nqpzcmcw0000gn/T//ccn5JkAm.s 			page 116


 6638 12b8 CDCCCC3D 		.word	1036831949
 6639 12bc 00000000 		.word	.LANCHOR36
 6640 12c0 00000000 		.word	.LANCHOR165
 6641 12c4 00000000 		.word	.LANCHOR38
 6642 12c8 00000000 		.word	.LANCHOR22
 6643 12cc 00000000 		.word	.LANCHOR26
 6644 12d0 00000000 		.word	.LANCHOR119
 6645 12d4 CDCC4C3E 		.word	1045220557
 6646 12d8 6666263F 		.word	1059481190
 6647 12dc 00000000 		.word	.LANCHOR19
 6648 12e0 00000000 		.word	.LANCHOR25
 6649 12e4 00000000 		.word	.LANCHOR20
 6650 12e8 00000000 		.word	_ZL15spectra_oscbank
 6651 12ec 00000000 		.word	.LANCHOR18
 6652 12f0 3333733F 		.word	1064514355
 6653 12f4 0000C842 		.word	1120403456
 6654 12f8 6C490000 		.word	_ZL15spectra_oscbank+18796
 6655 12fc 6666E63E 		.word	1055286886
 6656 1300 5555553F 		.word	1062557013
 6657 1304 6666663F 		.word	1063675494
 6658 1308 721CC73E 		.word	1053236338
 6659 130c E4388E3E 		.word	1049508068
 6660 1310 ABAA2A3E 		.word	1042983595
 6661 1314 398E633D 		.word	1029934649
 6662 1318 CDCCCC3E 		.word	1053609165
 6663 131c C7711C3F 		.word	1058828743
 6664 1320 3333B33E 		.word	1051931443
 6665 1324 8EE3383F 		.word	1060692878
 6666 1328 00000000 		.word	.LANCHOR138
 6667 132c 398EE338 		.word	954437177
 6668 1330 00000000 		.word	.LANCHOR139
 6669 1334 00000000 		.word	.LANCHOR147
 6670 1338 CDCCCC3D 		.word	1036831949
 6671 133c 00000000 		.word	.LANCHOR146
 6672 1340 3333333F 		.word	1060320051
 6673 1344 CDCC4C3E 		.word	1045220557
 6674 1348 00000000 		.word	.LANCHOR145
 6675 134c 9A99193F 		.word	1058642330
 6676 1350 9A99993E 		.word	1050253722
 6677 1354 00000000 		.word	.LANCHOR144
 6678              	.L777:
 6679 1358 A54B     		ldr	r3, .L885
 6680 135a 0021     		movs	r1, #0
 6681 135c A548     		ldr	r0, .L885+4
 6682 135e A64C     		ldr	r4, .L885+8
 6683 1360 5166     		str	r1, [r2, #100]	@ float
 6684 1362 0460     		str	r4, [r0]
 6685 1364 9366     		str	r3, [r2, #104]	@ float
 6686 1366 D366     		str	r3, [r2, #108]	@ float
 6687 1368 FEF79BBF 		b	.L769
 6688              	.L778:
 6689 136c A14C     		ldr	r4, .L885+4
 6690 136e 0020     		movs	r0, #0
 6691 1370 A24D     		ldr	r5, .L885+12
 6692 1372 A349     		ldr	r1, .L885+16
 6693 1374 A34B     		ldr	r3, .L885+20
 6694 1376 2560     		str	r5, [r4]
ARM GAS  /var/folders/lg/77ksxqjx0n7gwph6nqpzcmcw0000gn/T//ccn5JkAm.s 			page 117


 6695 1378 5066     		str	r0, [r2, #100]	@ float
 6696 137a 9166     		str	r1, [r2, #104]	@ float
 6697 137c D366     		str	r3, [r2, #108]	@ float
 6698 137e FEF790BF 		b	.L769
 6699              	.L779:
 6700 1382 0023     		movs	r3, #0
 6701 1384 9B48     		ldr	r0, .L885+4
 6702 1386 A04C     		ldr	r4, .L885+24
 6703 1388 A049     		ldr	r1, .L885+28
 6704 138a 0460     		str	r4, [r0]
 6705 138c 5366     		str	r3, [r2, #100]	@ float
 6706 138e 9366     		str	r3, [r2, #104]	@ float
 6707 1390 D166     		str	r1, [r2, #108]	@ float
 6708 1392 FEF786BF 		b	.L769
 6709              	.L817:
 6710 1396 0124     		movs	r4, #1
 6711 1398 FEF7EEBE 		b	.L764
 6712              	.L811:
 6713 139c B0EE6A0A 		vmov.f32	s0, s21
 6714 13a0 90E4     		b	.L732
 6715              	.L820:
 6716 13a2 B0EE489A 		vmov.f32	s18, s16
 6717 13a6 FEF769BF 		b	.L767
 6718              	.L818:
 6719 13aa B0EE677A 		vmov.f32	s14, s15
 6720 13ae F5EE007A 		vmov.f32	s15, #2.5e-1
 6721 13b2 FEF707BF 		b	.L765
 6722              	.L821:
 6723 13b6 DFED967A 		vldr.32	s15, .L885+32
 6724 13ba FFF7CFB8 		b	.L804
 6725              	.L815:
 6726 13be F0EE667A 		vmov.f32	s15, s13
 6727 13c2 FFF7E0B9 		b	.L734
 6728              	.L813:
 6729 13c6 B2EE040A 		vmov.f32	s0, #1.0e+1
 6730 13ca A1E4     		b	.L733
 6731              	.L869:
 6732 13cc 9148     		ldr	r0, .L885+36
 6733 13ce 9249     		ldr	r1, .L885+40
 6734 13d0 0268     		ldr	r2, [r0]
 6735 13d2 0132     		adds	r2, r2, #1
 6736 13d4 81FB0231 		smull	r3, r1, r1, r2
 6737 13d8 D317     		asrs	r3, r2, #31
 6738 13da C3EB6103 		rsb	r3, r3, r1, asr #1
 6739 13de 03EBC303 		add	r3, r3, r3, lsl #3
 6740 13e2 D31A     		subs	r3, r2, r3
 6741 13e4 002B     		cmp	r3, #0
 6742 13e6 0360     		str	r3, [r0]
 6743 13e8 40F3D480 		ble	.L790
 6744 13ec 8B4A     		ldr	r2, .L885+44
 6745 13ee 0021     		movs	r1, #0
 6746 13f0 4FF07E50 		mov	r0, #1065353216
 6747 13f4 023B     		subs	r3, r3, #2
 6748 13f6 1164     		str	r1, [r2, #64]	@ float
 6749 13f8 5064     		str	r0, [r2, #68]	@ float
 6750 13fa 9164     		str	r1, [r2, #72]	@ float
 6751 13fc 062B     		cmp	r3, #6
ARM GAS  /var/folders/lg/77ksxqjx0n7gwph6nqpzcmcw0000gn/T//ccn5JkAm.s 			page 118


 6752 13fe 00F2EB80 		bhi	.L791
 6753 1402 DFE803F0 		tbb	[pc, r3]
 6754              	.L793:
 6755 1406 44       		.byte	(.L799-.L793)/2
 6756 1407 39       		.byte	(.L798-.L793)/2
 6757 1408 2F       		.byte	(.L797-.L793)/2
 6758 1409 24       		.byte	(.L796-.L793)/2
 6759 140a 19       		.byte	(.L795-.L793)/2
 6760 140b 0E       		.byte	(.L794-.L793)/2
 6761 140c 04       		.byte	(.L792-.L793)/2
 6762 140d 00       		.p2align 1
 6763              	.L792:
 6764 140e 784B     		ldr	r3, .L885
 6765 1410 0024     		movs	r4, #0
 6766 1412 7849     		ldr	r1, .L885+4
 6767 1414 8248     		ldr	r0, .L885+48
 6768 1416 5366     		str	r3, [r2, #100]	@ float
 6769 1418 9366     		str	r3, [r2, #104]	@ float
 6770 141a D466     		str	r4, [r2, #108]	@ float
 6771 141c 0860     		str	r0, [r1]
 6772 141e FEF7B5BF 		b	.L789
 6773              	.L794:
 6774 1422 0025     		movs	r5, #0
 6775 1424 724C     		ldr	r4, .L885
 6776 1426 7F48     		ldr	r0, .L885+52
 6777 1428 724B     		ldr	r3, .L885+4
 6778 142a 7F49     		ldr	r1, .L885+56
 6779 142c 5566     		str	r5, [r2, #100]	@ float
 6780 142e 9466     		str	r4, [r2, #104]	@ float
 6781 1430 D066     		str	r0, [r2, #108]	@ float
 6782 1432 1960     		str	r1, [r3]
 6783 1434 FEF7AABF 		b	.L789
 6784              	.L795:
 6785 1438 0025     		movs	r5, #0
 6786 143a 7C4C     		ldr	r4, .L885+60
 6787 143c 7C48     		ldr	r0, .L885+64
 6788 143e 6D4B     		ldr	r3, .L885+4
 6789 1440 7C49     		ldr	r1, .L885+68
 6790 1442 5566     		str	r5, [r2, #100]	@ float
 6791 1444 9466     		str	r4, [r2, #104]	@ float
 6792 1446 D066     		str	r0, [r2, #108]	@ float
 6793 1448 1960     		str	r1, [r3]
 6794 144a FEF79FBF 		b	.L789
 6795              	.L796:
 6796 144e 0025     		movs	r5, #0
 6797 1450 6C4C     		ldr	r4, .L885+20
 6798 1452 6B48     		ldr	r0, .L885+16
 6799 1454 674B     		ldr	r3, .L885+4
 6800 1456 7849     		ldr	r1, .L885+72
 6801 1458 5566     		str	r5, [r2, #100]	@ float
 6802 145a 9466     		str	r4, [r2, #104]	@ float
 6803 145c D066     		str	r0, [r2, #108]	@ float
 6804 145e 1960     		str	r1, [r3]
 6805 1460 FEF794BF 		b	.L789
 6806              	.L797:
 6807 1464 624B     		ldr	r3, .L885
 6808 1466 0021     		movs	r1, #0
ARM GAS  /var/folders/lg/77ksxqjx0n7gwph6nqpzcmcw0000gn/T//ccn5JkAm.s 			page 119


 6809 1468 6248     		ldr	r0, .L885+4
 6810 146a 634C     		ldr	r4, .L885+8
 6811 146c 5166     		str	r1, [r2, #100]	@ float
 6812 146e 0460     		str	r4, [r0]
 6813 1470 9366     		str	r3, [r2, #104]	@ float
 6814 1472 D366     		str	r3, [r2, #108]	@ float
 6815 1474 FEF78ABF 		b	.L789
 6816              	.L798:
 6817 1478 5E4C     		ldr	r4, .L885+4
 6818 147a 0020     		movs	r0, #0
 6819 147c 5F4D     		ldr	r5, .L885+12
 6820 147e 6049     		ldr	r1, .L885+16
 6821 1480 604B     		ldr	r3, .L885+20
 6822 1482 2560     		str	r5, [r4]
 6823 1484 5066     		str	r0, [r2, #100]	@ float
 6824 1486 9166     		str	r1, [r2, #104]	@ float
 6825 1488 D366     		str	r3, [r2, #108]	@ float
 6826 148a FEF77FBF 		b	.L789
 6827              	.L799:
 6828 148e 0023     		movs	r3, #0
 6829 1490 5848     		ldr	r0, .L885+4
 6830 1492 5D4C     		ldr	r4, .L885+24
 6831 1494 5D49     		ldr	r1, .L885+28
 6832 1496 0460     		str	r4, [r0]
 6833 1498 5366     		str	r3, [r2, #100]	@ float
 6834 149a 9366     		str	r3, [r2, #104]	@ float
 6835 149c D166     		str	r1, [r2, #108]	@ float
 6836 149e FEF775BF 		b	.L789
 6837              	.L870:
 6838 14a2 DFF8BC81 		ldr	r8, .L885+112
 6839 14a6 41F2E447 		movw	r7, #5348
 6840 14aa 644B     		ldr	r3, .L885+76
 6841 14ac D8F80000 		ldr	r0, [r8]
 6842 14b0 03EB8003 		add	r3, r3, r0, lsl #2
 6843 14b4 07FB0040 		mla	r0, r7, r0, r4
 6844 14b8 93ED000A 		vldr.32	s0, [r3]
 6845 14bc FFF7FEFF 		bl	_ZN7daisysp11StringVoice10SetDampingEf
 6846 14c0 D8F80000 		ldr	r0, [r8]
 6847 14c4 07FB0040 		mla	r0, r7, r0, r4
 6848 14c8 FFF7FEFF 		bl	_ZN7daisysp11StringVoice4TrigEv
 6849 14cc 0023     		movs	r3, #0
 6850 14ce 2B70     		strb	r3, [r5]
 6851 14d0 FEF79ABF 		b	.L800
 6852              	.L866:
 6853 14d4 5A4B     		ldr	r3, .L885+80
 6854 14d6 0122     		movs	r2, #1
 6855 14d8 5A4E     		ldr	r6, .L885+84
 6856 14da 42F21074 		movw	r4, #10000
 6857 14de 1A70     		strb	r2, [r3]
 6858 14e0 FFF7FEFF 		bl	rand
 6859 14e4 86FB0032 		smull	r3, r2, r6, r0
 6860 14e8 C317     		asrs	r3, r0, #31
 6861 14ea 9FED578A 		vldr.32	s16, .L885+88
 6862 14ee C3EB2233 		rsb	r3, r3, r2, asr #12
 6863 14f2 DFF87081 		ldr	r8, .L885+116
 6864 14f6 554F     		ldr	r7, .L885+92
 6865 14f8 04FB1303 		mls	r3, r4, r3, r0
ARM GAS  /var/folders/lg/77ksxqjx0n7gwph6nqpzcmcw0000gn/T//ccn5JkAm.s 			page 120


 6866 14fc 07EE903A 		vmov	s15, r3	@ int
 6867 1500 F8EEE77A 		vcvt.f32.s32	s15, s15
 6868 1504 87EE887A 		vdiv.f32	s14, s15, s16
 6869 1508 88ED007A 		vstr.32	s14, [r8]
 6870 150c FFF7FEFF 		bl	rand
 6871 1510 86FB0032 		smull	r3, r2, r6, r0
 6872 1514 C317     		asrs	r3, r0, #31
 6873 1516 C3EB2233 		rsb	r3, r3, r2, asr #12
 6874 151a 04FB1303 		mls	r3, r4, r3, r0
 6875 151e 07EE903A 		vmov	s15, r3	@ int
 6876 1522 F8EEE77A 		vcvt.f32.s32	s15, s15
 6877 1526 87EE887A 		vdiv.f32	s14, s15, s16
 6878 152a 87ED007A 		vstr.32	s14, [r7]
 6879 152e FFF7FEFF 		bl	rand
 6880 1532 86FB0036 		smull	r3, r6, r6, r0
 6881 1536 C317     		asrs	r3, r0, #31
 6882 1538 384A     		ldr	r2, .L885+44
 6883 153a C3EB2633 		rsb	r3, r3, r6, asr #12
 6884 153e 3968     		ldr	r1, [r7]	@ float
 6885 1540 D8F800C0 		ldr	ip, [r8]	@ float
 6886 1544 04FB1303 		mls	r3, r4, r3, r0
 6887 1548 414F     		ldr	r7, .L885+96
 6888 154a C2F84CC0 		str	ip, [r2, #76]	@ float
 6889 154e 07EE903A 		vmov	s15, r3	@ int
 6890 1552 1165     		str	r1, [r2, #80]	@ float
 6891 1554 C2F858C0 		str	ip, [r2, #88]	@ float
 6892 1558 F8EEE77A 		vcvt.f32.s32	s15, s15
 6893 155c D165     		str	r1, [r2, #92]	@ float
 6894 155e 1166     		str	r1, [r2, #96]	@ float
 6895 1560 87EE887A 		vdiv.f32	s14, s15, s16
 6896 1564 87ED007A 		vstr.32	s14, [r7]
 6897 1568 82ED157A 		vstr.32	s14, [r2, #84]
 6898 156c FEF740BE 		b	.L766
 6899              	.L814:
 6900 1570 9FED380A 		vldr.32	s0, .L885+100
 6901 1574 FFF7CCBB 		b	.L733
 6902              	.L819:
 6903 1578 B0EE667A 		vmov.f32	s14, s13
 6904 157c FEF722BE 		b	.L765
 6905              	.L770:
 6906 1580 264B     		ldr	r3, .L885+44
 6907 1582 0022     		movs	r2, #0
 6908 1584 1A64     		str	r2, [r3, #64]	@ float
 6909 1586 5A64     		str	r2, [r3, #68]	@ float
 6910 1588 9A64     		str	r2, [r3, #72]	@ float
 6911 158a 5A66     		str	r2, [r3, #100]	@ float
 6912 158c 9A66     		str	r2, [r3, #104]	@ float
 6913 158e DA66     		str	r2, [r3, #108]	@ float
 6914 1590 FEF787BE 		b	.L769
 6915              	.L790:
 6916 1594 214B     		ldr	r3, .L885+44
 6917 1596 0022     		movs	r2, #0
 6918 1598 1A64     		str	r2, [r3, #64]	@ float
 6919 159a 5A64     		str	r2, [r3, #68]	@ float
 6920 159c 9A64     		str	r2, [r3, #72]	@ float
 6921 159e 5A66     		str	r2, [r3, #100]	@ float
 6922 15a0 9A66     		str	r2, [r3, #104]	@ float
ARM GAS  /var/folders/lg/77ksxqjx0n7gwph6nqpzcmcw0000gn/T//ccn5JkAm.s 			page 121


 6923 15a2 DA66     		str	r2, [r3, #108]	@ float
 6924 15a4 FEF7F2BE 		b	.L789
 6925              	.L860:
 6926 15a8 7FF76DAA 		ble	.L742
 6927 15ac 44F6E413 		movw	r3, #18916
 6928 15b0 1022     		movs	r2, #16
 6929 15b2 F250     		str	r2, [r6, r3]
 6930 15b4 FFF767BA 		b	.L742
 6931              	.L816:
 6932 15b8 0023     		movs	r3, #0
 6933 15ba 9FED277A 		vldr.32	s14, .L885+104
 6934 15be FEF793BD 		b	.L748
 6935              	.L771:
 6936 15c2 0023     		movs	r3, #0
 6937 15c4 4FF07E54 		mov	r4, #1065353216
 6938 15c8 0A49     		ldr	r1, .L885+4
 6939 15ca 2448     		ldr	r0, .L885+108
 6940 15cc D466     		str	r4, [r2, #108]	@ float
 6941 15ce 0860     		str	r0, [r1]
 6942 15d0 5366     		str	r3, [r2, #100]	@ float
 6943 15d2 9366     		str	r3, [r2, #104]	@ float
 6944 15d4 FEF765BE 		b	.L769
 6945              	.L791:
 6946 15d8 0023     		movs	r3, #0
 6947 15da 4FF07E54 		mov	r4, #1065353216
 6948 15de 0549     		ldr	r1, .L885+4
 6949 15e0 1E48     		ldr	r0, .L885+108
 6950 15e2 D466     		str	r4, [r2, #108]	@ float
 6951 15e4 0860     		str	r0, [r1]
 6952 15e6 5366     		str	r3, [r2, #100]	@ float
 6953 15e8 9366     		str	r3, [r2, #104]	@ float
 6954 15ea FEF7CFBE 		b	.L789
 6955              	.L886:
 6956 15ee 00BF     		.align	2
 6957              	.L885:
 6958 15f0 CDCCCC3E 		.word	1053609165
 6959 15f4 00000000 		.word	.LANCHOR139
 6960 15f8 00000000 		.word	.LANCHOR143
 6961 15fc 00000000 		.word	.LANCHOR142
 6962 1600 9A99993E 		.word	1050253722
 6963 1604 9A99193F 		.word	1058642330
 6964 1608 00000000 		.word	.LANCHOR141
 6965 160c CDCC4C3F 		.word	1061997773
 6966 1610 3333333F 		.word	1060320051
 6967 1614 00000000 		.word	.LANCHOR138
 6968 1618 398EE338 		.word	954437177
 6969 161c 00000000 		.word	.LANCHOR18
 6970 1620 00000000 		.word	.LANCHOR147
 6971 1624 CDCCCC3D 		.word	1036831949
 6972 1628 00000000 		.word	.LANCHOR146
 6973 162c 3333333F 		.word	1060320051
 6974 1630 CDCC4C3E 		.word	1045220557
 6975 1634 00000000 		.word	.LANCHOR145
 6976 1638 00000000 		.word	.LANCHOR144
 6977 163c 00000000 		.word	.LANCHOR169
 6978 1640 00000000 		.word	.LANCHOR132
 6979 1644 AD8BDB68 		.word	1759218605
ARM GAS  /var/folders/lg/77ksxqjx0n7gwph6nqpzcmcw0000gn/T//ccn5JkAm.s 			page 122


 6980 1648 00401C46 		.word	1176256512
 6981 164c 00000000 		.word	.LANCHOR134
 6982 1650 00000000 		.word	.LANCHOR135
 6983 1654 0000C842 		.word	1120403456
 6984 1658 00000000 		.word	0
 6985 165c 00000000 		.word	.LANCHOR140
 6986 1660 00000000 		.word	.LANCHOR168
 6987 1664 00000000 		.word	.LANCHOR133
 6989              		.section	.text._Z8Controlsv,"ax",%progbits
 6990              		.align	1
 6991              		.p2align 2,,3
 6992              		.global	_Z8Controlsv
 6993              		.syntax unified
 6994              		.thumb
 6995              		.thumb_func
 6996              		.fpu fpv5-d16
 6998              	_Z8Controlsv:
 6999              		@ args = 0, pretend = 0, frame = 0
 7000              		@ frame_needed = 0, uses_anonymous_args = 0
 7001 0000 10B5     		push	{r4, lr}
 7002 0002 0023     		movs	r3, #0
 7003 0004 064C     		ldr	r4, .L889
 7004 0006 0749     		ldr	r1, .L889+4
 7005 0008 074A     		ldr	r2, .L889+8
 7006 000a 0848     		ldr	r0, .L889+12
 7007 000c 2360     		str	r3, [r4]	@ float
 7008 000e 0B60     		str	r3, [r1]	@ float
 7009 0010 1360     		str	r3, [r2]	@ float
 7010 0012 FFF7FEFF 		bl	_ZN5daisy11DaisyVersio21ProcessAnalogControlsEv
 7011 0016 BDE81040 		pop	{r4, lr}
 7012 001a FFF7FEBF 		b	_Z11UpdateKnobsv
 7013              	.L890:
 7014 001e 00BF     		.align	2
 7015              	.L889:
 7016 0020 00000000 		.word	.LANCHOR25
 7017 0024 00000000 		.word	.LANCHOR43
 7018 0028 00000000 		.word	.LANCHOR96
 7019 002c 00000000 		.word	.LANCHOR78
 7021              		.section	.text._Z16WriteDelayBufferff,"ax",%progbits
 7022              		.align	1
 7023              		.p2align 2,,3
 7024              		.global	_Z16WriteDelayBufferff
 7025              		.syntax unified
 7026              		.thumb
 7027              		.thumb_func
 7028              		.fpu fpv5-d16
 7030              	_Z16WriteDelayBufferff:
 7031              		@ args = 0, pretend = 0, frame = 0
 7032              		@ frame_needed = 0, uses_anonymous_args = 0
 7033              		@ link register save eliminated.
 7034 0000 0C4B     		ldr	r3, .L893
 7035 0002 0D49     		ldr	r1, .L893+4
 7036 0004 1B68     		ldr	r3, [r3]
 7037 0006 0D4A     		ldr	r2, .L893+8
 7038 0008 0D48     		ldr	r0, .L893+12
 7039 000a 01EB8301 		add	r1, r1, r3, lsl #2
 7040 000e 02EB8302 		add	r2, r2, r3, lsl #2
ARM GAS  /var/folders/lg/77ksxqjx0n7gwph6nqpzcmcw0000gn/T//ccn5JkAm.s 			page 123


 7041 0012 0078     		ldrb	r0, [r0]	@ zero_extendqisi2
 7042 0014 9B00     		lsls	r3, r3, #2
 7043 0016 81ED000A 		vstr.32	s0, [r1]
 7044 001a C2ED000A 		vstr.32	s1, [r2]
 7045 001e 38B9     		cbnz	r0, .L891
 7046 0020 0849     		ldr	r1, .L893+16
 7047 0022 094A     		ldr	r2, .L893+20
 7048 0024 1944     		add	r1, r1, r3
 7049 0026 1344     		add	r3, r3, r2
 7050 0028 81ED000A 		vstr.32	s0, [r1]
 7051 002c C3ED000A 		vstr.32	s1, [r3]
 7052              	.L891:
 7053 0030 7047     		bx	lr
 7054              	.L894:
 7055 0032 00BF     		.align	2
 7056              	.L893:
 7057 0034 00000000 		.word	.LANCHOR153
 7058 0038 00000000 		.word	mlooper_buf_1l
 7059 003c 00000000 		.word	mlooper_buf_1r
 7060 0040 00000000 		.word	.LANCHOR158
 7061 0044 00000000 		.word	mlooper_frozen_buf_1l
 7062 0048 00000000 		.word	mlooper_frozen_buf_1r
 7064              		.section	.text._Z14GetDelaySampleRfS_ff,"ax",%progbits
 7065              		.align	1
 7066              		.p2align 2,,3
 7067              		.global	_Z14GetDelaySampleRfS_ff
 7068              		.syntax unified
 7069              		.thumb
 7070              		.thumb_func
 7071              		.fpu fpv5-d16
 7073              	_Z14GetDelaySampleRfS_ff:
 7074              		@ args = 0, pretend = 0, frame = 48
 7075              		@ frame_needed = 0, uses_anonymous_args = 0
 7076 0000 2DE9F04F 		push	{r4, r5, r6, r7, r8, r9, r10, fp, lr}
 7077 0004 E64C     		ldr	r4, .L975+40
 7078 0006 E74B     		ldr	r3, .L975+44
 7079 0008 2268     		ldr	r2, [r4]
 7080 000a DFEDE77A 		vldr.32	s15, .L975+48
 7081 000e 0132     		adds	r2, r2, #1
 7082 0010 2DED088B 		vpush.64	{d8, d9, d10, d11}
 7083 0014 8DB0     		sub	sp, sp, #52
 7084 0016 C1ED007A 		vstr.32	s15, [r1]
 7085 001a B0EE409A 		vmov.f32	s18, s0
 7086 001e C0ED007A 		vstr.32	s15, [r0]
 7087 0022 F0EE608A 		vmov.f32	s17, s1
 7088 0026 CDE90201 		strd	r0, r1, [sp, #8]
 7089 002a 83FB0231 		smull	r3, r1, r3, r2
 7090 002e D317     		asrs	r3, r2, #31
 7091 0030 C3EBE103 		rsb	r3, r3, r1, asr #3
 7092 0034 03EB4303 		add	r3, r3, r3, lsl #1
 7093 0038 A2EB0313 		sub	r3, r2, r3, lsl #4
 7094 003c 2360     		str	r3, [r4]
 7095 003e 002B     		cmp	r3, #0
 7096 0040 00F09084 		beq	.L896
 7097 0044 D94B     		ldr	r3, .L975+52
 7098 0046 DA4C     		ldr	r4, .L975+56
 7099 0048 D3ED003A 		vldr.32	s7, [r3]
ARM GAS  /var/folders/lg/77ksxqjx0n7gwph6nqpzcmcw0000gn/T//ccn5JkAm.s 			page 124


 7100              	.L897:
 7101 004c D94E     		ldr	r6, .L975+60
 7102 004e B6EE004B 		vmov.f64	d4, #5.0e-1
 7103 0052 B7EE000B 		vmov.f64	d0, #1.0e+0
 7104 0056 D84D     		ldr	r5, .L975+64
 7105 0058 D6ED006A 		vldr.32	s13, [r6]
 7106 005c B7EE003A 		vmov.f32	s6, #1.0e+0
 7107 0060 95ED006A 		vldr.32	s12, [r5]
 7108 0064 B6EE008A 		vmov.f32	s16, #5.0e-1
 7109 0068 B7EEE65A 		vcvt.f64.f32	d5, s13
 7110 006c DFF8A083 		ldr	r8, .L975+152
 7111 0070 B7EEC62A 		vcvt.f64.f32	d2, s12
 7112 0074 DFF89CB3 		ldr	fp, .L975+156
 7113 0078 73EEE69A 		vsub.f32	s19, s7, s13
 7114 007c D8ED007A 		vldr.32	s15, [r8]
 7115 0080 35EE045B 		vadd.f64	d5, d5, d4
 7116 0084 9BED004A 		vldr.32	s8, [fp]
 7117 0088 73EEC63A 		vsub.f32	s7, s7, s12
 7118 008c 27EE844A 		vmul.f32	s8, s15, s8
 7119 0090 80EE05BB 		vdiv.f64	d11, d0, d5
 7120 0094 73EE677A 		vsub.f32	s15, s6, s15
 7121 0098 B7EEC44A 		vcvt.f64.f32	d4, s8
 7122 009c 9FEDB65B 		vldr.64	d5, .L975
 7123 00a0 9FEDB71B 		vldr.64	d1, .L975+8
 7124 00a4 9FEDB8AB 		vldr.64	d10, .L975+16
 7125 00a8 32EE052B 		vadd.f64	d2, d2, d5
 7126 00ac F4EEC87A 		vcmpe.f32	s15, s16
 7127 00b0 80EE025B 		vdiv.f64	d5, d0, d2
 7128 00b4 F1EE10FA 		vmrs	APSR_nzcv, FPSCR
 7129 00b8 9FEDB52B 		vldr.64	d2, .L975+24
 7130 00bc 2BEE011B 		vmul.f64	d1, d11, d1
 7131 00c0 B7EEC11B 		vcvt.f32.f64	s2, d1
 7132 00c4 E1EE296A 		vfma.f32	s13, s2, s19
 7133 00c8 25EE0A5B 		vmul.f64	d5, d5, d10
 7134 00cc C6ED006A 		vstr.32	s13, [r6]
 7135 00d0 B7EEE61A 		vcvt.f64.f32	d1, s13
 7136 00d4 F0EE466A 		vmov.f32	s13, s12
 7137 00d8 A1EE420B 		vfms.f64	d0, d1, d2
 7138 00dc B7EEC55B 		vcvt.f32.f64	s10, d5
 7139 00e0 E5EE236A 		vfma.f32	s13, s10, s7
 7140 00e4 24EE000B 		vmul.f64	d0, d4, d0
 7141 00e8 C5ED006A 		vstr.32	s13, [r5]
 7142 00ec 00F13384 		bmi	.L964
 7143 00f0 F4EEC37A 		vcmpe.f32	s15, s6
 7144 00f4 F1EE10FA 		vmrs	APSR_nzcv, FPSCR
 7145 00f8 D4BF     		ite	le
 7146 00fa 27EE897A 		vmulle.f32	s14, s15, s18
 7147 00fe B0EE497A 		vmovgt.f32	s14, s18
 7148              	.L904:
 7149 0102 B7EEC77A 		vcvt.f64.f32	d7, s14
 7150 0106 AD48     		ldr	r0, .L975+68
 7151 0108 37EE000B 		vadd.f64	d0, d7, d0
 7152 010c B7EEC00B 		vcvt.f32.f64	s0, d0
 7153 0110 FFF7FEFF 		bl	_ZN7daisysp7DcBlock7ProcessEf
 7154 0114 B7EE005B 		vmov.f64	d5, #1.0e+0
 7155 0118 D5ED007A 		vldr.32	s15, [r5]
 7156 011c F7EE002A 		vmov.f32	s5, #1.0e+0
ARM GAS  /var/folders/lg/77ksxqjx0n7gwph6nqpzcmcw0000gn/T//ccn5JkAm.s 			page 125


 7157 0120 96ED003A 		vldr.32	s6, [r6]
 7158 0124 B7EEC00A 		vcvt.f64.f32	d0, s0
 7159 0128 B7EEE76A 		vcvt.f64.f32	d6, s15
 7160 012c A44B     		ldr	r3, .L975+72
 7161 012e B0EE45AB 		vmov.f64	d10, d5
 7162 0132 D8ED007A 		vldr.32	s15, [r8]
 7163 0136 B7EEC33A 		vcvt.f64.f32	d3, s6
 7164 013a 93ED004A 		vldr.32	s8, [r3]
 7165 013e B6EE007A 		vmov.f32	s14, #5.0e-1
 7166 0142 27EE844A 		vmul.f32	s8, s15, s8
 7167 0146 72EEE77A 		vsub.f32	s15, s5, s15
 7168 014a 9FED931B 		vldr.64	d1, .L975+32
 7169 014e F4EEC77A 		vcmpe.f32	s15, s14
 7170 0152 B7EEC44A 		vcvt.f64.f32	d4, s8
 7171 0156 A6EE41AB 		vfms.f64	d10, d6, d1
 7172 015a F1EE10FA 		vmrs	APSR_nzcv, FPSCR
 7173 015e 9FED8C1B 		vldr.64	d1, .L975+24
 7174 0162 A3EE415B 		vfms.f64	d5, d3, d1
 7175 0166 20EE0A6B 		vmul.f64	d6, d0, d10
 7176 016a 24EE055B 		vmul.f64	d5, d4, d5
 7177 016e B7EEC68B 		vcvt.f32.f64	s16, d6
 7178 0172 00F1F483 		bmi	.L965
 7179 0176 F4EEE27A 		vcmpe.f32	s15, s5
 7180 017a F1EE10FA 		vmrs	APSR_nzcv, FPSCR
 7181 017e D4BF     		ite	le
 7182 0180 27EEA87A 		vmulle.f32	s14, s15, s17
 7183 0184 B0EE687A 		vmovgt.f32	s14, s17
 7184              	.L907:
 7185 0188 B7EEC77A 		vcvt.f64.f32	d7, s14
 7186 018c 8D48     		ldr	r0, .L975+76
 7187 018e 8E4E     		ldr	r6, .L975+80
 7188 0190 DFF88492 		ldr	r9, .L975+160
 7189 0194 37EE057B 		vadd.f64	d7, d7, d5
 7190 0198 B7EEC70B 		vcvt.f32.f64	s0, d7
 7191 019c FFF7FEFF 		bl	_ZN7daisysp7DcBlock7ProcessEf
 7192 01a0 95ED006A 		vldr.32	s12, [r5]
 7193 01a4 B7EE007B 		vmov.f64	d7, #1.0e+0
 7194 01a8 884B     		ldr	r3, .L975+84
 7195 01aa B7EEC66A 		vcvt.f64.f32	d6, s12
 7196 01ae 8849     		ldr	r1, .L975+88
 7197 01b0 B7EEC00A 		vcvt.f64.f32	d0, s0
 7198 01b4 1B68     		ldr	r3, [r3]
 7199 01b6 874A     		ldr	r2, .L975+92
 7200 01b8 01EB8305 		add	r5, r1, r3, lsl #2
 7201 01bc 3678     		ldrb	r6, [r6]	@ zero_extendqisi2
 7202 01be 02EB8300 		add	r0, r2, r3, lsl #2
 7203 01c2 4FEA830C 		lsl	ip, r3, #2
 7204 01c6 0496     		str	r6, [sp, #16]
 7205 01c8 85ED008A 		vstr.32	s16, [r5]
 7206 01cc 9FED725B 		vldr.64	d5, .L975+32
 7207 01d0 A6EE457B 		vfms.f64	d7, d6, d5
 7208 01d4 20EE070B 		vmul.f64	d0, d0, d7
 7209 01d8 B7EEC00B 		vcvt.f32.f64	s0, d0
 7210 01dc 80ED000A 		vstr.32	s0, [r0]
 7211 01e0 002E     		cmp	r6, #0
 7212 01e2 40F03081 		bne	.L908
 7213 01e6 DFF834E2 		ldr	lr, .L975+164
ARM GAS  /var/folders/lg/77ksxqjx0n7gwph6nqpzcmcw0000gn/T//ccn5JkAm.s 			page 126


 7214 01ea D9F80000 		ldr	r0, [r9]
 7215 01ee 7A4E     		ldr	r6, .L975+96
 7216 01f0 7A4D     		ldr	r5, .L975+100
 7217 01f2 5EF82000 		ldr	r0, [lr, r0, lsl #2]
 7218 01f6 6644     		add	r6, r6, ip
 7219 01f8 6544     		add	r5, r5, ip
 7220 01fa 0028     		cmp	r0, #0
 7221 01fc 86ED008A 		vstr.32	s16, [r6]
 7222 0200 85ED000A 		vstr.32	s0, [r5]
 7223 0204 40F3CE81 		ble	.L960
 7224 0208 07EE903A 		vmov	s15, r3	@ int
 7225 020c 9EED007A 		vldr.32	s14, [lr]	@ int
 7226 0210 7348     		ldr	r0, .L975+104
 7227 0212 F8EEE77A 		vcvt.f32.s32	s15, s15
 7228 0216 734D     		ldr	r5, .L975+108
 7229 0218 B8EEC77A 		vcvt.f32.s32	s14, s14
 7230 021c 90ED005A 		vldr.32	s10, [r0]
 7231 0220 95ED006A 		vldr.32	s12, [r5]
 7232 0224 F0EE674A 		vmov.f32	s9, s15
 7233 0228 DEED016A 		vldr.32	s13, [lr, #4]	@ int
 7234 022c B0EE674A 		vmov.f32	s8, s15
 7235 0230 D0ED015A 		vldr.32	s11, [r0, #4]
 7236 0234 F8EEE66A 		vcvt.f32.s32	s13, s13
 7237 0238 DFF8E4E1 		ldr	lr, .L975+168
 7238 023c E7EE454A 		vfms.f32	s9, s14, s10
 7239 0240 694A     		ldr	r2, .L975+112
 7240 0242 A7EE464A 		vfms.f32	s8, s14, s12
 7241 0246 694F     		ldr	r7, .L975+116
 7242 0248 B0EE677A 		vmov.f32	s14, s15
 7243 024c 0192     		str	r2, [sp, #4]
 7244 024e A6EEE57A 		vfms.f32	s14, s13, s11
 7245 0252 B0EE645A 		vmov.f32	s10, s9
 7246 0256 D5ED014A 		vldr.32	s9, [r5, #4]
 7247 025a 654D     		ldr	r5, .L975+120
 7248 025c E6EEE47A 		vfms.f32	s15, s13, s9
 7249 0260 F0EE475A 		vmov.f32	s11, s14
 7250 0264 9FED637A 		vldr.32	s14, .L975+124
 7251 0268 35EE075A 		vadd.f32	s10, s10, s14
 7252 026c 74EE076A 		vadd.f32	s13, s8, s14
 7253 0270 35EE876A 		vadd.f32	s12, s11, s14
 7254 0274 77EE877A 		vadd.f32	s15, s15, s14
 7255 0278 BDEEC57A 		vcvt.s32.f32	s14, s10
 7256 027c FDEEE77A 		vcvt.s32.f32	s15, s15
 7257 0280 17EE10CA 		vmov	ip, s14	@ int
 7258 0284 BDEEC67A 		vcvt.s32.f32	s14, s12
 7259 0288 8EFB0C2A 		smull	r2, r10, lr, ip
 7260 028c 4FEAEC78 		asr	r8, ip, #31
 7261 0290 17EE100A 		vmov	r0, s14	@ int
 7262 0294 BDEEE67A 		vcvt.s32.f32	s14, s13
 7263 0298 C8EB2A58 		rsb	r8, r8, r10, asr #20
 7264 029c CDED067A 		vstr.32	s15, [sp, #24]	@ int
 7265 02a0 8EFB0062 		smull	r6, r2, lr, r0
 7266 02a4 4FEAE07A 		asr	r10, r0, #31
 7267 02a8 07FB18C8 		mls	r8, r7, r8, ip
 7268 02ac 4F4F     		ldr	r7, .L975+116
 7269 02ae CAEB225C 		rsb	ip, r10, r2, asr #20
 7270 02b2 17EE102A 		vmov	r2, s14	@ int
ARM GAS  /var/folders/lg/77ksxqjx0n7gwph6nqpzcmcw0000gn/T//ccn5JkAm.s 			page 127


 7271 02b6 8DED057A 		vstr.32	s14, [sp, #20]	@ int
 7272 02ba 8EFB0226 		smull	r2, r6, lr, r2
 7273 02be 17EE902A 		vmov	r2, s15	@ int
 7274 02c2 07FB1C0C 		mls	ip, r7, ip, r0
 7275 02c6 4C4F     		ldr	r7, .L975+128
 7276 02c8 8EFB02AE 		smull	r10, lr, lr, r2
 7277 02cc 17EE100A 		vmov	r0, s14	@ int
 7278 02d0 01EB880A 		add	r10, r1, r8, lsl #2
 7279 02d4 C7F80080 		str	r8, [r7]
 7280 02d8 C017     		asrs	r0, r0, #31
 7281 02da 444F     		ldr	r7, .L975+116
 7282 02dc 4FEAE278 		asr	r8, r2, #31
 7283 02e0 DAF800A0 		ldr	r10, [r10]	@ float
 7284 02e4 404A     		ldr	r2, .L975+112
 7285 02e6 C0EB2650 		rsb	r0, r0, r6, asr #20
 7286 02ea C8EB2E5E 		rsb	lr, r8, lr, asr #20
 7287 02ee 394E     		ldr	r6, .L975+92
 7288 02f0 C2F800A0 		str	r10, [r2]	@ float
 7289 02f4 17EE102A 		vmov	r2, s14	@ int
 7290 02f8 01EB8C01 		add	r1, r1, ip, lsl #2
 7291 02fc 07FB1020 		mls	r0, r7, r0, r2
 7292 0300 3D4F     		ldr	r7, .L975+128
 7293 0302 17EE902A 		vmov	r2, s15	@ int
 7294 0306 D1F80080 		ldr	r8, [r1]	@ float
 7295 030a C7F804C0 		str	ip, [r7, #4]
 7296 030e 06EB800C 		add	ip, r6, r0, lsl #2
 7297 0312 364F     		ldr	r7, .L975+116
 7298 0314 DCF80010 		ldr	r1, [ip]	@ float
 7299 0318 07FB1E2E 		mls	lr, r7, lr, r2
 7300 031c 2960     		str	r1, [r5]	@ float
 7301 031e 06EB8E02 		add	r2, r6, lr, lsl #2
 7302 0322 3649     		ldr	r1, .L975+132
 7303 0324 304E     		ldr	r6, .L975+112
 7304 0326 1268     		ldr	r2, [r2]	@ float
 7305 0328 C6F80480 		str	r8, [r6, #4]	@ float
 7306 032c 0860     		str	r0, [r1]
 7307 032e 6A60     		str	r2, [r5, #4]	@ float
 7308 0330 C1F804E0 		str	lr, [r1, #4]
 7309              	.L911:
 7310 0334 3249     		ldr	r1, .L975+136
 7311 0336 334A     		ldr	r2, .L975+140
 7312 0338 91ED000A 		vldr.32	s0, [r1]
 7313 033c D2ED007A 		vldr.32	s15, [r2]
 7314 0340 B4EEE70A 		vcmpe.f32	s0, s15
 7315 0344 F1EE10FA 		vmrs	APSR_nzcv, FPSCR
 7316 0348 40F33883 		ble	.L954
 7317 034c 2E4A     		ldr	r2, .L975+144
 7318 034e F7EE007A 		vmov.f32	s15, #1.0e+0
 7319 0352 9FED2E7A 		vldr.32	s14, .L975+148
 7320 0356 D2ED006A 		vldr.32	s13, [r2]	@ int
 7321 035a F8EEE66A 		vcvt.f32.s32	s13, s13
 7322 035e 66EE876A 		vmul.f32	s13, s13, s14
 7323 0362 87EEA67A 		vdiv.f32	s14, s15, s13
 7324 0366 30EE470A 		vsub.f32	s0, s0, s14
 7325 036a B5EEC00A 		vcmpe.f32	s0, #0
 7326 036e F1EE10FA 		vmrs	APSR_nzcv, FPSCR
 7327 0372 57E0     		b	.L976
ARM GAS  /var/folders/lg/77ksxqjx0n7gwph6nqpzcmcw0000gn/T//ccn5JkAm.s 			page 128


 7328              	.L977:
 7329 0374 AFF30080 		.align	3
 7330              	.L975:
 7331 0378 66666666 		.word	1717986918
 7332 037c 6666E63F 		.word	1072064102
 7333 0380 000000E0 		.word	3758096384
 7334 0384 4D62503F 		.word	1062232653
 7335 0388 000000E0 		.word	3758096384
 7336 038c 4D62403F 		.word	1061184077
 7337 0390 33333333 		.word	858993459
 7338 0394 3333D33F 		.word	1070805811
 7339 0398 9A999999 		.word	2576980378
 7340 039c 9999D93F 		.word	1071225241
 7341 03a0 00000000 		.word	.LANCHOR175
 7342 03a4 ABAAAA2A 		.word	715827883
 7343 03a8 00000000 		.word	0
 7344 03ac 00000000 		.word	.LANCHOR176
 7345 03b0 00000000 		.word	.LANCHOR177
 7346 03b4 00000000 		.word	.LANCHOR178
 7347 03b8 00000000 		.word	.LANCHOR179
 7348 03bc 00000000 		.word	.LANCHOR80
 7349 03c0 00000000 		.word	.LANCHOR181
 7350 03c4 00000000 		.word	.LANCHOR81
 7351 03c8 00000000 		.word	.LANCHOR158
 7352 03cc 00000000 		.word	.LANCHOR153
 7353 03d0 00000000 		.word	mlooper_buf_1l
 7354 03d4 00000000 		.word	mlooper_buf_1r
 7355 03d8 00000000 		.word	mlooper_frozen_buf_1l
 7356 03dc 00000000 		.word	mlooper_frozen_buf_1r
 7357 03e0 00000000 		.word	.LANCHOR92
 7358 03e4 00000000 		.word	.LANCHOR93
 7359 03e8 00000000 		.word	.LANCHOR90
 7360 03ec 00F22B00 		.word	2880000
 7361 03f0 00000000 		.word	.LANCHOR91
 7362 03f4 00C82F4A 		.word	1244645376
 7363 03f8 00000000 		.word	.LANCHOR87
 7364 03fc 00000000 		.word	.LANCHOR88
 7365 0400 00000000 		.word	.LANCHOR182
 7366 0404 00000000 		.word	.LANCHOR117
 7367 0408 00000000 		.word	.LANCHOR162
 7368 040c 00003C42 		.word	1111228416
 7369 0410 00000000 		.word	.LANCHOR163
 7370 0414 00000000 		.word	.LANCHOR180
 7371 0418 00000000 		.word	.LANCHOR116
 7372 041c 00000000 		.word	.LANCHOR89
 7373 0420 EFED345D 		.word	1563749871
 7374              	.L976:
 7375 0424 00F1E082 		bmi	.L942
 7376              	.L963:
 7377 0428 B4EEE70A 		vcmpe.f32	s0, s15
 7378 042c F1EE10FA 		vmrs	APSR_nzcv, FPSCR
 7379 0430 00F3F782 		bgt	.L943
 7380 0434 30EE007A 		vadd.f32	s14, s0, s0
 7381 0438 F6EE007A 		vmov.f32	s15, #5.0e-1
 7382 043c 67EE277A 		vmul.f32	s15, s14, s15
 7383              	.L917:
 7384 0440 81ED000A 		vstr.32	s0, [r1]
ARM GAS  /var/folders/lg/77ksxqjx0n7gwph6nqpzcmcw0000gn/T//ccn5JkAm.s 			page 129


 7385 0444 BAE0     		b	.L910
 7386              	.L908:
 7387 0446 D849     		ldr	r1, .L978
 7388 0448 D9F80020 		ldr	r2, [r9]
 7389 044c 51F82220 		ldr	r2, [r1, r2, lsl #2]
 7390 0450 002A     		cmp	r2, #0
 7391 0452 40F3A780 		ble	.L960
 7392 0456 D54F     		ldr	r7, .L978+4
 7393 0458 91ED007A 		vldr.32	s14, [r1]	@ int
 7394 045c 3A68     		ldr	r2, [r7]
 7395 045e D448     		ldr	r0, .L978+8
 7396 0460 B8EEC77A 		vcvt.f32.s32	s14, s14
 7397 0464 07EE902A 		vmov	s15, r2	@ int
 7398 0468 D1ED016A 		vldr.32	s13, [r1, #4]	@ int
 7399 046c D149     		ldr	r1, .L978+12
 7400 046e 0132     		adds	r2, r2, #1
 7401 0470 F8EEE77A 		vcvt.f32.s32	s15, s15
 7402 0474 90ED005A 		vldr.32	s10, [r0]
 7403 0478 91ED006A 		vldr.32	s12, [r1]
 7404 047c F8EEE66A 		vcvt.f32.s32	s13, s13
 7405 0480 D0ED015A 		vldr.32	s11, [r0, #4]
 7406 0484 D017     		asrs	r0, r2, #31
 7407 0486 F0EE674A 		vmov.f32	s9, s15
 7408 048a DFF86083 		ldr	r8, .L978+68
 7409 048e B0EE674A 		vmov.f32	s8, s15
 7410 0492 E7EE454A 		vfms.f32	s9, s14, s10
 7411 0496 A7EE464A 		vfms.f32	s8, s14, s12
 7412 049a B0EE677A 		vmov.f32	s14, s15
 7413 049e A6EEE57A 		vfms.f32	s14, s13, s11
 7414 04a2 B0EE645A 		vmov.f32	s10, s9
 7415 04a6 D1ED014A 		vldr.32	s9, [r1, #4]
 7416 04aa C349     		ldr	r1, .L978+16
 7417 04ac E6EEE47A 		vfms.f32	s15, s13, s9
 7418 04b0 81FB0265 		smull	r6, r5, r1, r2
 7419 04b4 C14E     		ldr	r6, .L978+20
 7420 04b6 F0EE475A 		vmov.f32	s11, s14
 7421 04ba 9FEDC17A 		vldr.32	s14, .L978+24
 7422 04be C0EB2555 		rsb	r5, r0, r5, asr #20
 7423 04c2 0196     		str	r6, [sp, #4]
 7424 04c4 35EE075A 		vadd.f32	s10, s10, s14
 7425 04c8 BE48     		ldr	r0, .L978+28
 7426 04ca 74EE076A 		vadd.f32	s13, s8, s14
 7427 04ce 08FB1522 		mls	r2, r8, r5, r2
 7428 04d2 35EE876A 		vadd.f32	s12, s11, s14
 7429 04d6 77EE877A 		vadd.f32	s15, s15, s14
 7430 04da 3A60     		str	r2, [r7]
 7431 04dc BDEEC57A 		vcvt.s32.f32	s14, s10
 7432 04e0 0692     		str	r2, [sp, #24]
 7433 04e2 FDEEE77A 		vcvt.s32.f32	s15, s15
 7434 04e6 17EE10CA 		vmov	ip, s14	@ int
 7435 04ea BDEEC67A 		vcvt.s32.f32	s14, s12
 7436 04ee 81FB0C62 		smull	r6, r2, r1, ip
 7437 04f2 4FEAEC7E 		asr	lr, ip, #31
 7438 04f6 17EE105A 		vmov	r5, s14	@ int
 7439 04fa BDEEE67A 		vcvt.s32.f32	s14, s13
 7440 04fe CEEB225E 		rsb	lr, lr, r2, asr #20
 7441 0502 CDED057A 		vstr.32	s15, [sp, #20]	@ int
ARM GAS  /var/folders/lg/77ksxqjx0n7gwph6nqpzcmcw0000gn/T//ccn5JkAm.s 			page 130


 7442 0506 81FB0576 		smull	r7, r6, r1, r5
 7443 050a 17EE10AA 		vmov	r10, s14	@ int
 7444 050e 17EE107A 		vmov	r7, s14	@ int
 7445 0512 08FB1ECE 		mls	lr, r8, lr, ip
 7446 0516 81FB0A2A 		smull	r2, r10, r1, r10
 7447 051a 17EE902A 		vmov	r2, s15	@ int
 7448 051e C0F800E0 		str	lr, [r0]
 7449 0522 81FB0212 		smull	r1, r2, r1, r2
 7450 0526 A849     		ldr	r1, .L978+32
 7451 0528 0792     		str	r2, [sp, #28]
 7452 052a EA17     		asrs	r2, r5, #31
 7453 052c 01EB8E0C 		add	ip, r1, lr, lsl #2
 7454 0530 C2EB2652 		rsb	r2, r2, r6, asr #20
 7455 0534 17EE906A 		vmov	r6, s15	@ int
 7456 0538 DCF800C0 		ldr	ip, [ip]	@ float
 7457 053c 08FB1252 		mls	r2, r8, r2, r5
 7458 0540 FD17     		asrs	r5, r7, #31
 7459 0542 4260     		str	r2, [r0, #4]
 7460 0544 C5EB2A5A 		rsb	r10, r5, r10, asr #20
 7461 0548 01EB8202 		add	r2, r1, r2, lsl #2
 7462 054c 0799     		ldr	r1, [sp, #28]
 7463 054e F517     		asrs	r5, r6, #31
 7464 0550 08FB1A7A 		mls	r10, r8, r10, r7
 7465 0554 9948     		ldr	r0, .L978+20
 7466 0556 C5EB2151 		rsb	r1, r5, r1, asr #20
 7467 055a 9C4F     		ldr	r7, .L978+36
 7468 055c D2ED007A 		vldr.32	s15, [r2]
 7469 0560 08FB1161 		mls	r1, r8, r1, r6
 7470 0564 9A4A     		ldr	r2, .L978+40
 7471 0566 C0F800C0 		str	ip, [r0]	@ float
 7472 056a 07EB8A0C 		add	ip, r7, r10, lsl #2
 7473 056e 9948     		ldr	r0, .L978+44
 7474 0570 DCF800E0 		ldr	lr, [ip]	@ float
 7475 0574 07EB810C 		add	ip, r7, r1, lsl #2
 7476 0578 0068     		ldr	r0, [r0]
 7477 057a 974D     		ldr	r5, .L978+48
 7478 057c DCF800C0 		ldr	ip, [ip]	@ float
 7479 0580 8E4E     		ldr	r6, .L978+20
 7480 0582 C5F800E0 		str	lr, [r5]	@ float
 7481 0586 C6ED017A 		vstr.32	s15, [r6, #4]
 7482 058a C5F804C0 		str	ip, [r5, #4]	@ float
 7483 058e C2E900A1 		strd	r10, r1, [r2]
 7484 0592 069A     		ldr	r2, [sp, #24]
 7485 0594 8242     		cmp	r2, r0
 7486 0596 7FF4CDAE 		bne	.L911
 7487 059a 904A     		ldr	r2, .L978+52
 7488 059c 8349     		ldr	r1, .L978+4
 7489 059e 1268     		ldr	r2, [r2]
 7490 05a0 0A60     		str	r2, [r1]
 7491 05a2 C7E6     		b	.L911
 7492              	.L960:
 7493 05a4 8E49     		ldr	r1, .L978+56
 7494 05a6 F6EE007A 		vmov.f32	s15, #5.0e-1
 7495 05aa 844A     		ldr	r2, .L978+20
 7496 05ac 91ED000A 		vldr.32	s0, [r1]
 7497 05b0 894D     		ldr	r5, .L978+48
 7498 05b2 30EE007A 		vadd.f32	s14, s0, s0
ARM GAS  /var/folders/lg/77ksxqjx0n7gwph6nqpzcmcw0000gn/T//ccn5JkAm.s 			page 131


 7499 05b6 0192     		str	r2, [sp, #4]
 7500 05b8 67EE277A 		vmul.f32	s15, s14, s15
 7501              	.L910:
 7502 05bc 8948     		ldr	r0, .L978+60
 7503 05be 0268     		ldr	r2, [r0]
 7504 05c0 013A     		subs	r2, r2, #1
 7505 05c2 002A     		cmp	r2, #0
 7506 05c4 0260     		str	r2, [r0]
 7507 05c6 40F38B81 		ble	.L966
 7508              	.L918:
 7509 05ca 8748     		ldr	r0, .L978+64
 7510 05cc 0268     		ldr	r2, [r0]
 7511 05ce 013A     		subs	r2, r2, #1
 7512 05d0 002A     		cmp	r2, #0
 7513 05d2 0260     		str	r2, [r0]
 7514 05d4 40F34981 		ble	.L967
 7515              	.L921:
 7516 05d8 0133     		adds	r3, r3, #1
 7517 05da 774A     		ldr	r2, .L978+16
 7518 05dc DFF83CC2 		ldr	ip, .L978+116
 7519 05e0 F5EE407A 		vcmp.f32	s15, #0
 7520 05e4 82FB0302 		smull	r0, r2, r2, r3
 7521 05e8 D817     		asrs	r0, r3, #31
 7522 05ea B1EEE78A 		vsqrt.f32	s16, s15
 7523 05ee C0EB2250 		rsb	r0, r0, r2, asr #20
 7524 05f2 7E4A     		ldr	r2, .L978+68
 7525 05f4 02FB1033 		mls	r3, r2, r0, r3
 7526 05f8 DCF80020 		ldr	r2, [ip]
 7527 05fc 7C48     		ldr	r0, .L978+72
 7528 05fe F1EE10FA 		vmrs	APSR_nzcv, FPSCR
 7529 0602 02F10102 		add	r2, r2, #1
 7530 0606 0360     		str	r3, [r0]
 7531 0608 CCF80020 		str	r2, [ip]
 7532 060c 00F12C82 		bmi	.L968
 7533              	.L924:
 7534 0610 F0EE007A 		vmov.f32	s15, #2.0e+0
 7535 0614 9FED770A 		vldr.32	s0, .L978+76
 7536 0618 019B     		ldr	r3, [sp, #4]
 7537 061a 77EEC77A 		vsub.f32	s15, s15, s14
 7538 061e D3ED016A 		vldr.32	s13, [r3, #4]
 7539 0622 28EE268A 		vmul.f32	s16, s16, s13
 7540 0626 27EE800A 		vmul.f32	s0, s15, s0
 7541 062a B5EE400A 		vcmp.f32	s0, #0
 7542 062e F1EEC09A 		vsqrt.f32	s19, s0
 7543 0632 F1EE10FA 		vmrs	APSR_nzcv, FPSCR
 7544 0636 00F1F981 		bmi	.L969
 7545              	.L925:
 7546 063a 019B     		ldr	r3, [sp, #4]
 7547 063c B6EE000A 		vmov.f32	s0, #5.0e-1
 7548 0640 D3ED007A 		vldr.32	s15, [r3]
 7549 0644 27EE000A 		vmul.f32	s0, s14, s0
 7550 0648 A7EEA98A 		vfma.f32	s16, s15, s19
 7551 064c B5EE400A 		vcmp.f32	s0, #0
 7552 0650 F1EE10FA 		vmrs	APSR_nzcv, FPSCR
 7553 0654 F0EE487A 		vmov.f32	s15, s16
 7554 0658 B1EEC08A 		vsqrt.f32	s16, s0
 7555 065c CDED087A 		vstr.32	s15, [sp, #32]
ARM GAS  /var/folders/lg/77ksxqjx0n7gwph6nqpzcmcw0000gn/T//ccn5JkAm.s 			page 132


 7556 0660 00F1ED81 		bmi	.L970
 7557              	.L926:
 7558 0664 DFED637A 		vldr.32	s15, .L978+76
 7559 0668 D5ED016A 		vldr.32	s13, [r5, #4]
 7560 066c B0EE000A 		vmov.f32	s0, #2.0e+0
 7561 0670 28EE268A 		vmul.f32	s16, s16, s13
 7562 0674 30EE470A 		vsub.f32	s0, s0, s14
 7563 0678 20EE270A 		vmul.f32	s0, s0, s15
 7564 067c B5EE400A 		vcmp.f32	s0, #0
 7565 0680 F1EEC09A 		vsqrt.f32	s19, s0
 7566 0684 F1EE10FA 		vmrs	APSR_nzcv, FPSCR
 7567 0688 00F1E281 		bmi	.L971
 7568              	.L927:
 7569 068c D5ED007A 		vldr.32	s15, [r5]
 7570 0690 5948     		ldr	r0, .L978+80
 7571 0692 A7EEA98A 		vfma.f32	s16, s15, s19
 7572 0696 9DED080A 		vldr.32	s0, [sp, #32]
 7573 069a 584D     		ldr	r5, .L978+84
 7574 069c 8DED098A 		vstr.32	s16, [sp, #36]
 7575 06a0 FFF7FEFF 		bl	_ZN7daisysp7DcBlock7ProcessEf
 7576 06a4 F0EE407A 		vmov.f32	s15, s0
 7577 06a8 5548     		ldr	r0, .L978+88
 7578 06aa 9DED090A 		vldr.32	s0, [sp, #36]
 7579 06ae CDED087A 		vstr.32	s15, [sp, #32]
 7580 06b2 FFF7FEFF 		bl	_ZN7daisysp7DcBlock7ProcessEf
 7581 06b6 08A9     		add	r1, sp, #32
 7582 06b8 5248     		ldr	r0, .L978+92
 7583 06ba 8DED090A 		vstr.32	s0, [sp, #36]
 7584 06be FFF7FEFF 		bl	_ZN7daisysp4Tone7ProcessERf
 7585 06c2 09A9     		add	r1, sp, #36
 7586 06c4 5048     		ldr	r0, .L978+96
 7587 06c6 8DED080A 		vstr.32	s0, [sp, #32]
 7588 06ca FFF7FEFF 		bl	_ZN7daisysp4Tone7ProcessERf
 7589 06ce F0EE400A 		vmov.f32	s1, s0
 7590 06d2 0BA9     		add	r1, sp, #44
 7591 06d4 9DED080A 		vldr.32	s0, [sp, #32]
 7592 06d8 0AA8     		add	r0, sp, #40
 7593 06da CDED090A 		vstr.32	s1, [sp, #36]
 7594 06de FFF7FEFF 		bl	_Z15GetReverbSampleRfS_ff
 7595 06e2 DFED4A7A 		vldr.32	s15, .L978+100
 7596 06e6 B6EE000A 		vmov.f32	s0, #5.0e-1
 7597 06ea 9DED0B7A 		vldr.32	s14, [sp, #44]
 7598 06ee 9DED0A8A 		vldr.32	s16, [sp, #40]
 7599 06f2 27EE277A 		vmul.f32	s14, s14, s15
 7600 06f6 D5ED006A 		vldr.32	s13, [r5]
 7601 06fa 28EE278A 		vmul.f32	s16, s16, s15
 7602 06fe 9FED446A 		vldr.32	s12, .L978+104
 7603 0702 D4F8C030 		ldr	r3, [r4, #192]
 7604 0706 67EE077A 		vmul.f32	s15, s14, s14
 7605 070a 4249     		ldr	r1, .L978+108
 7606 070c F4EEC66A 		vcmpe.f32	s13, s12
 7607 0710 04EB8302 		add	r2, r4, r3, lsl #2
 7608 0714 0133     		adds	r3, r3, #1
 7609 0716 81ED007A 		vstr.32	s14, [r1]
 7610 071a E8EE087A 		vfma.f32	s15, s16, s16
 7611 071e 8BED008A 		vstr.32	s16, [fp]
 7612 0722 F1EE10FA 		vmrs	APSR_nzcv, FPSCR
ARM GAS  /var/folders/lg/77ksxqjx0n7gwph6nqpzcmcw0000gn/T//ccn5JkAm.s 			page 133


 7613 0726 C4F8C030 		str	r3, [r4, #192]
 7614 072a 67EE807A 		vmul.f32	s15, s15, s0
 7615 072e C2ED007A 		vstr.32	s15, [r2]
 7616 0732 77DD     		ble	.L956
 7617 0734 4FF07E53 		mov	r3, #1065353216
 7618 0738 DFED379A 		vldr.32	s19, .L978+112
 7619 073c 2B60     		str	r3, [r5]	@ float
 7620              	.L930:
 7621 073e A9EE298A 		vfma.f32	s16, s18, s19
 7622 0742 029B     		ldr	r3, [sp, #8]
 7623 0744 B6EE007A 		vmov.f32	s14, #5.0e-1
 7624 0748 83ED008A 		vstr.32	s16, [r3]
 7625 074c 95ED000A 		vldr.32	s0, [r5]
 7626 0750 70EE007A 		vadd.f32	s15, s0, s0
 7627 0754 27EE877A 		vmul.f32	s14, s15, s14
 7628 0758 B5EE407A 		vcmp.f32	s14, #0
 7629 075c B1EEC78A 		vsqrt.f32	s16, s14
 7630 0760 F1EE10FA 		vmrs	APSR_nzcv, FPSCR
 7631 0764 00F17781 		bmi	.L972
 7632              	.L934:
 7633 0768 B0EE000A 		vmov.f32	s0, #2.0e+0
 7634 076c 9FED2C7A 		vldr.32	s14, .L978+120
 7635 0770 284B     		ldr	r3, .L978+108
 7636 0772 30EE670A 		vsub.f32	s0, s0, s15
 7637 0776 D3ED006A 		vldr.32	s13, [r3]
 7638 077a 28EE268A 		vmul.f32	s16, s16, s13
 7639 077e 20EE070A 		vmul.f32	s0, s0, s14
 7640 0782 B5EE400A 		vcmp.f32	s0, #0
 7641 0786 B1EEC09A 		vsqrt.f32	s18, s0
 7642 078a F1EE10FA 		vmrs	APSR_nzcv, FPSCR
 7643 078e 00F18581 		bmi	.L973
 7644              	.L935:
 7645 0792 A8EE898A 		vfma.f32	s16, s17, s18
 7646 0796 039B     		ldr	r3, [sp, #12]
 7647 0798 83ED008A 		vstr.32	s16, [r3]
 7648 079c 0DB0     		add	sp, sp, #52
 7649              		@ sp needed
 7650 079e BDEC088B 		vldm	sp!, {d8-d11}
 7651 07a2 BDE8F08F 		pop	{r4, r5, r6, r7, r8, r9, r10, fp, pc}
 7652              	.L979:
 7653 07a6 00BF     		.align	2
 7654              	.L978:
 7655 07a8 00000000 		.word	.LANCHOR89
 7656 07ac 00000000 		.word	.LANCHOR161
 7657 07b0 00000000 		.word	.LANCHOR92
 7658 07b4 00000000 		.word	.LANCHOR93
 7659 07b8 EFED345D 		.word	1563749871
 7660 07bc 00000000 		.word	.LANCHOR90
 7661 07c0 00C82F4A 		.word	1244645376
 7662 07c4 00000000 		.word	.LANCHOR87
 7663 07c8 00000000 		.word	mlooper_frozen_buf_1l
 7664 07cc 00000000 		.word	mlooper_frozen_buf_1r
 7665 07d0 00000000 		.word	.LANCHOR88
 7666 07d4 00000000 		.word	.LANCHOR159
 7667 07d8 00000000 		.word	.LANCHOR91
 7668 07dc 00000000 		.word	.LANCHOR160
 7669 07e0 00000000 		.word	.LANCHOR182
ARM GAS  /var/folders/lg/77ksxqjx0n7gwph6nqpzcmcw0000gn/T//ccn5JkAm.s 			page 134


 7670 07e4 00000000 		.word	.LANCHOR154
 7671 07e8 00000000 		.word	.LANCHOR155
 7672 07ec 00F22B00 		.word	2880000
 7673 07f0 00000000 		.word	.LANCHOR153
 7674 07f4 3333733F 		.word	1064514355
 7675 07f8 00000000 		.word	.LANCHOR44
 7676 07fc 00000000 		.word	.LANCHOR164
 7677 0800 00000000 		.word	.LANCHOR45
 7678 0804 00000000 		.word	.LANCHOR36
 7679 0808 00000000 		.word	.LANCHOR38
 7680 080c 9A99593F 		.word	1062836634
 7681 0810 A4707D3F 		.word	1065185444
 7682 0814 00000000 		.word	.LANCHOR181
 7683 0818 00000000 		.word	0
 7684 081c 00000000 		.word	.LANCHOR150
 7685 0820 3333333F 		.word	1060320051
 7686              	.L956:
 7687 0824 76EEA66A 		vadd.f32	s13, s13, s13
 7688 0828 26EE800A 		vmul.f32	s0, s13, s0
 7689 082c B5EE400A 		vcmp.f32	s0, #0
 7690 0830 F1EEC09A 		vsqrt.f32	s19, s0
 7691 0834 F1EE10FA 		vmrs	APSR_nzcv, FPSCR
 7692 0838 00F12181 		bmi	.L957
 7693 083c B0EE000A 		vmov.f32	s0, #2.0e+0
 7694 0840 5FED097A 		vldr.32	s15, .L978+120
 7695 0844 70EE666A 		vsub.f32	s13, s0, s13
 7696 0848 66EEA76A 		vmul.f32	s13, s13, s15
 7697              	.L933:
 7698 084c F5EE406A 		vcmp.f32	s13, #0
 7699 0850 28EE298A 		vmul.f32	s16, s16, s19
 7700 0854 F1EEE69A 		vsqrt.f32	s19, s13
 7701 0858 F1EE10FA 		vmrs	APSR_nzcv, FPSCR
 7702 085c 7FF56FAF 		bpl	.L930
 7703 0860 B0EE660A 		vmov.f32	s0, s13
 7704 0864 FFF7FEFF 		bl	sqrtf
 7705 0868 69E7     		b	.L930
 7706              	.L967:
 7707 086a DFF860E2 		ldr	lr, .L980+28
 7708 086e DEF80020 		ldr	r2, [lr]
 7709 0872 C2B9     		cbnz	r2, .L922
 7710 0874 049E     		ldr	r6, [sp, #16]
 7711 0876 4FF00308 		mov	r8, #3
 7712 087a DFF854C2 		ldr	ip, .L980+32
 7713 087e 4FF00009 		mov	r9, #0
 7714 0882 86F00107 		eor	r7, r6, #1
 7715 0886 06EE106A 		vmov	s12, r6	@ int
 7716 088a CCF83890 		str	r9, [ip, #56]	@ float
 7717 088e 06EE907A 		vmov	s13, r7	@ int
 7718 0892 B8EE466A 		vcvt.f32.u32	s12, s12
 7719 0896 CCF80C80 		str	r8, [ip, #12]
 7720 089a F8EEE66A 		vcvt.f32.s32	s13, s13
 7721 089e 8CED0F6A 		vstr.32	s12, [ip, #60]
 7722 08a2 CCED0D6A 		vstr.32	s13, [ip, #52]
 7723              	.L922:
 7724 08a6 0132     		adds	r2, r2, #1
 7725 08a8 DFF81882 		ldr	r8, .L980+20
 7726 08ac D2F1000C 		rsbs	ip, r2, #0
ARM GAS  /var/folders/lg/77ksxqjx0n7gwph6nqpzcmcw0000gn/T//ccn5JkAm.s 			page 135


 7727 08b0 D8F80090 		ldr	r9, [r8]
 7728 08b4 DFF81C82 		ldr	r8, .L980+36
 7729 08b8 02F00302 		and	r2, r2, #3
 7730 08bc 0CF0030C 		and	ip, ip, #3
 7731 08c0 58BF     		it	pl
 7732 08c2 CCF10002 		rsbpl	r2, ip, #0
 7733 08c6 58F829C0 		ldr	ip, [r8, r9, lsl #2]
 7734 08ca B3EB0C0C 		subs	ip, r3, ip
 7735 08ce CEF80020 		str	r2, [lr]
 7736 08d2 48BF     		it	mi
 7737 08d4 0CF1030C 		addmi	ip, ip, #3
 7738 08d8 4FEAAC02 		asr	r2, ip, #2
 7739 08dc 0260     		str	r2, [r0]
 7740 08de 7BE6     		b	.L921
 7741              	.L966:
 7742 08e0 DFF8F4E1 		ldr	lr, .L980+40
 7743 08e4 DEF80020 		ldr	r2, [lr]
 7744 08e8 C2B9     		cbnz	r2, .L919
 7745 08ea 049F     		ldr	r7, [sp, #16]
 7746 08ec 4FF00309 		mov	r9, #3
 7747 08f0 DFF8DC81 		ldr	r8, .L980+32
 7748 08f4 87F0010C 		eor	ip, r7, #1
 7749 08f8 06EE107A 		vmov	s12, r7	@ int
 7750 08fc C8F80090 		str	r9, [r8]
 7751 0900 06EE90CA 		vmov	s13, ip	@ int
 7752 0904 B8EE466A 		vcvt.f32.u32	s12, s12
 7753 0908 4FF0000C 		mov	ip, #0
 7754 090c F8EEE66A 		vcvt.f32.s32	s13, s13
 7755 0910 88ED066A 		vstr.32	s12, [r8, #24]
 7756 0914 C8F814C0 		str	ip, [r8, #20]	@ float
 7757 0918 C8ED046A 		vstr.32	s13, [r8, #16]
 7758              	.L919:
 7759 091c 0132     		adds	r2, r2, #1
 7760 091e DFF8A481 		ldr	r8, .L980+20
 7761 0922 D2F1000C 		rsbs	ip, r2, #0
 7762 0926 D8F80090 		ldr	r9, [r8]
 7763 092a DFF8B081 		ldr	r8, .L980+44
 7764 092e 02F00302 		and	r2, r2, #3
 7765 0932 0CF0030C 		and	ip, ip, #3
 7766 0936 58BF     		it	pl
 7767 0938 CCF10002 		rsbpl	r2, ip, #0
 7768 093c 58F829C0 		ldr	ip, [r8, r9, lsl #2]
 7769 0940 B3EB0C0C 		subs	ip, r3, ip
 7770 0944 CEF80020 		str	r2, [lr]
 7771 0948 48BF     		it	mi
 7772 094a 0CF1030C 		addmi	ip, ip, #3
 7773 094e 4FEAAC02 		asr	r2, ip, #2
 7774 0952 0260     		str	r2, [r0]
 7775 0954 39E6     		b	.L918
 7776              	.L964:
 7777 0956 29EE087A 		vmul.f32	s14, s18, s16
 7778 095a FFF7D2BB 		b	.L904
 7779              	.L965:
 7780 095e 28EE877A 		vmul.f32	s14, s17, s14
 7781 0962 11E4     		b	.L907
 7782              	.L896:
 7783 0964 524C     		ldr	r4, .L980
ARM GAS  /var/folders/lg/77ksxqjx0n7gwph6nqpzcmcw0000gn/T//ccn5JkAm.s 			page 136


 7784 0966 D4F8C020 		ldr	r2, [r4, #192]
 7785 096a 002A     		cmp	r2, #0
 7786 096c 08DD     		ble	.L898
 7787 096e 2346     		mov	r3, r4
 7788 0970 04EB8201 		add	r1, r4, r2, lsl #2
 7789              	.L899:
 7790 0974 B3EC017A 		vldmia.32	r3!, {s14}
 7791 0978 9942     		cmp	r1, r3
 7792 097a 77EE877A 		vadd.f32	s15, s15, s14
 7793 097e F9D1     		bne	.L899
 7794              	.L898:
 7795 0980 07EE102A 		vmov	s14, r2	@ int
 7796 0984 B8EEC77A 		vcvt.f32.s32	s14, s14
 7797 0988 87EE870A 		vdiv.f32	s0, s15, s14
 7798 098c B5EE400A 		vcmp.f32	s0, #0
 7799 0990 F1EEC03A 		vsqrt.f32	s7, s0
 7800 0994 F1EE10FA 		vmrs	APSR_nzcv, FPSCR
 7801 0998 00F18380 		bmi	.L974
 7802              	.L900:
 7803 099c 444B     		ldr	r3, .L980
 7804 099e 03F1C001 		add	r1, r3, #192
 7805              	.L901:
 7806 09a2 0022     		movs	r2, #0
 7807 09a4 43F8042B 		str	r2, [r3], #4	@ float
 7808 09a8 9942     		cmp	r1, r3
 7809 09aa FAD1     		bne	.L901
 7810 09ac 0022     		movs	r2, #0
 7811 09ae 414B     		ldr	r3, .L980+4
 7812 09b0 C4F8C020 		str	r2, [r4, #192]
 7813 09b4 C3ED003A 		vstr.32	s7, [r3]
 7814 09b8 FFF748BB 		b	.L897
 7815              	.L954:
 7816 09bc 1BD5     		bpl	.L955
 7817 09be 3E4A     		ldr	r2, .L980+8
 7818 09c0 F7EE007A 		vmov.f32	s15, #1.0e+0
 7819 09c4 9FED3D7A 		vldr.32	s14, .L980+12
 7820 09c8 D2ED006A 		vldr.32	s13, [r2]	@ int
 7821 09cc F8EEE66A 		vcvt.f32.s32	s13, s13
 7822 09d0 66EE876A 		vmul.f32	s13, s13, s14
 7823 09d4 87EEA67A 		vdiv.f32	s14, s15, s13
 7824 09d8 37EE000A 		vadd.f32	s0, s14, s0
 7825 09dc B5EEC00A 		vcmpe.f32	s0, #0
 7826 09e0 F1EE10FA 		vmrs	APSR_nzcv, FPSCR
 7827 09e4 7FF520AD 		bpl	.L963
 7828              	.L942:
 7829 09e8 DFED357A 		vldr.32	s15, .L980+16
 7830 09ec B0EE677A 		vmov.f32	s14, s15
 7831 09f0 B0EE670A 		vmov.f32	s0, s15
 7832 09f4 24E5     		b	.L917
 7833              	.L955:
 7834 09f6 FDEEE77A 		vcvt.s32.f32	s15, s15
 7835 09fa 3248     		ldr	r0, .L980+20
 7836 09fc 30EE007A 		vadd.f32	s14, s0, s0
 7837 0a00 17EE90CA 		vmov	ip, s15	@ int
 7838 0a04 F6EE007A 		vmov.f32	s15, #5.0e-1
 7839 0a08 1CF10102 		adds	r2, ip, #1
 7840 0a0c C0F800C0 		str	ip, [r0]
ARM GAS  /var/folders/lg/77ksxqjx0n7gwph6nqpzcmcw0000gn/T//ccn5JkAm.s 			page 137


 7841 0a10 67EE277A 		vmul.f32	s15, s14, s15
 7842 0a14 02F00102 		and	r2, r2, #1
 7843 0a18 48BF     		it	mi
 7844 0a1a 5242     		rsbmi	r2, r2, #0
 7845 0a1c C9F80020 		str	r2, [r9]
 7846 0a20 CCE5     		b	.L910
 7847              	.L943:
 7848 0a22 B0EE007A 		vmov.f32	s14, #2.0e+0
 7849 0a26 B0EE670A 		vmov.f32	s0, s15
 7850 0a2a 09E5     		b	.L917
 7851              	.L969:
 7852 0a2c 0491     		str	r1, [sp, #16]
 7853 0a2e FFF7FEFF 		bl	sqrtf
 7854 0a32 0499     		ldr	r1, [sp, #16]
 7855 0a34 91ED000A 		vldr.32	s0, [r1]
 7856 0a38 30EE007A 		vadd.f32	s14, s0, s0
 7857 0a3c FDE5     		b	.L925
 7858              	.L970:
 7859 0a3e 0191     		str	r1, [sp, #4]
 7860 0a40 FFF7FEFF 		bl	sqrtf
 7861 0a44 0199     		ldr	r1, [sp, #4]
 7862 0a46 91ED000A 		vldr.32	s0, [r1]
 7863 0a4a 30EE007A 		vadd.f32	s14, s0, s0
 7864 0a4e 09E6     		b	.L926
 7865              	.L971:
 7866 0a50 FFF7FEFF 		bl	sqrtf
 7867 0a54 1AE6     		b	.L927
 7868              	.L972:
 7869 0a56 B0EE470A 		vmov.f32	s0, s14
 7870 0a5a FFF7FEFF 		bl	sqrtf
 7871 0a5e 95ED000A 		vldr.32	s0, [r5]
 7872 0a62 70EE007A 		vadd.f32	s15, s0, s0
 7873 0a66 7FE6     		b	.L934
 7874              	.L968:
 7875 0a68 B0EE670A 		vmov.f32	s0, s15
 7876 0a6c 0491     		str	r1, [sp, #16]
 7877 0a6e FFF7FEFF 		bl	sqrtf
 7878 0a72 0499     		ldr	r1, [sp, #16]
 7879 0a74 91ED000A 		vldr.32	s0, [r1]
 7880 0a78 30EE007A 		vadd.f32	s14, s0, s0
 7881 0a7c C8E5     		b	.L924
 7882              	.L957:
 7883 0a7e FFF7FEFF 		bl	sqrtf
 7884 0a82 F0EE007A 		vmov.f32	s15, #2.0e+0
 7885 0a86 95ED007A 		vldr.32	s14, [r5]
 7886 0a8a DFED0F6A 		vldr.32	s13, .L980+24
 7887 0a8e E7EE677A 		vfms.f32	s15, s14, s15
 7888 0a92 9BED008A 		vldr.32	s16, [fp]
 7889 0a96 67EEA66A 		vmul.f32	s13, s15, s13
 7890 0a9a D7E6     		b	.L933
 7891              	.L973:
 7892 0a9c FFF7FEFF 		bl	sqrtf
 7893 0aa0 77E6     		b	.L935
 7894              	.L974:
 7895 0aa2 CDED013A 		vstr.32	s7, [sp, #4]	@ int
 7896 0aa6 FFF7FEFF 		bl	sqrtf
 7897 0aaa DDED013A 		vldr.32	s7, [sp, #4]	@ int
ARM GAS  /var/folders/lg/77ksxqjx0n7gwph6nqpzcmcw0000gn/T//ccn5JkAm.s 			page 138


 7898 0aae 75E7     		b	.L900
 7899              	.L981:
 7900              		.align	2
 7901              	.L980:
 7902 0ab0 00000000 		.word	.LANCHOR177
 7903 0ab4 00000000 		.word	.LANCHOR176
 7904 0ab8 00000000 		.word	.LANCHOR162
 7905 0abc 00003C42 		.word	1111228416
 7906 0ac0 00000000 		.word	0
 7907 0ac4 00000000 		.word	.LANCHOR115
 7908 0ac8 3333333F 		.word	1060320051
 7909 0acc 00000000 		.word	.LANCHOR157
 7910 0ad0 00000000 		.word	.LANCHOR18
 7911 0ad4 00000000 		.word	.LANCHOR88
 7912 0ad8 00000000 		.word	.LANCHOR156
 7913 0adc 00000000 		.word	.LANCHOR87
 7915              		.section	.text._Z16GetSpectraSampleRfS_ff,"ax",%progbits
 7916              		.align	1
 7917              		.p2align 2,,3
 7918              		.global	_Z16GetSpectraSampleRfS_ff
 7919              		.syntax unified
 7920              		.thumb
 7921              		.thumb_func
 7922              		.fpu fpv5-d16
 7924              	_Z16GetSpectraSampleRfS_ff:
 7925              		@ args = 0, pretend = 0, frame = 0
 7926              		@ frame_needed = 0, uses_anonymous_args = 0
 7927 0000 2DE9F84F 		push	{r3, r4, r5, r6, r7, r8, r9, r10, fp, lr}
 7928 0004 8A4C     		ldr	r4, .L1003+16
 7929 0006 0746     		mov	r7, r0
 7930 0008 0E46     		mov	r6, r1
 7931 000a DFF84CA2 		ldr	r10, .L1003+56
 7932 000e A4F1F009 		sub	r9, r4, #240
 7933 0012 A046     		mov	r8, r4
 7934 0014 2DED068B 		vpush.64	{d8, d9, d10}
 7935 0018 F0EE409A 		vmov.f32	s19, s0
 7936 001c 4D46     		mov	r5, r9
 7937 001e B0EE609A 		vmov.f32	s18, s1
 7938              	.L983:
 7939 0022 F4EC017A 		vldmia.32	r4!, {s15}
 7940 0026 2846     		mov	r0, r5
 7941 0028 9FED82AA 		vldr.32	s20, .L1003+20
 7942 002c 2835     		adds	r5, r5, #40
 7943 002e 94ED0B7A 		vldr.32	s14, [r4, #44]
 7944 0032 DFED818A 		vldr.32	s17, .L1003+24
 7945 0036 E7EE0A7A 		vfma.f32	s15, s14, s20
 7946 003a 87EEA88A 		vdiv.f32	s16, s15, s17
 7947 003e 05ED088A 		vstr.32	s16, [r5, #-32]
 7948 0042 B0EE480A 		vmov.f32	s0, s16
 7949 0046 FFF7FEFF 		bl	_ZN7daisysp10Oscillator12CalcPhaseIncEf
 7950 004a 05ED040A 		vstr.32	s0, [r5, #-16]
 7951 004e D4ED116A 		vldr.32	s13, [r4, #68]
 7952 0052 D4ED057A 		vldr.32	s15, [r4, #20]
 7953 0056 84ED0B8A 		vstr.32	s16, [r4, #44]
 7954 005a E6EE8A7A 		vfma.f32	s15, s13, s20
 7955 005e 9AED007A 		vldr.32	s14, [r10]
 7956 0062 27EE267A 		vmul.f32	s14, s14, s13
ARM GAS  /var/folders/lg/77ksxqjx0n7gwph6nqpzcmcw0000gn/T//ccn5JkAm.s 			page 139


 7957 0066 05ED097A 		vstr.32	s14, [r5, #-36]
 7958 006a A845     		cmp	r8, r5
 7959 006c 87EEA87A 		vdiv.f32	s14, s15, s17
 7960 0070 84ED117A 		vstr.32	s14, [r4, #68]
 7961 0074 D5D1     		bne	.L983
 7962 0076 714D     		ldr	r5, .L1003+28
 7963 0078 9FED71AA 		vldr.32	s20, .L1003+32
 7964 007c 2C46     		mov	r4, r5
 7965 007e A5F1040A 		sub	r10, r5, #4
 7966 0082 A5F1080B 		sub	fp, r5, #8
 7967 0086 95ED007A 		vldr.32	s14, [r5]
 7968 008a 5C34     		adds	r4, r4, #92
 7969 008c 0AE0     		b	.L985
 7970              	.L998:
 7971 008e FCEEE77A 		vcvt.u32.f32	s15, s15
 7972 0092 09F12809 		add	r9, r9, #40
 7973 0096 C845     		cmp	r8, r9
 7974 0098 17EE903A 		vmov	r3, s15	@ int
 7975 009c 2360     		str	r3, [r4]
 7976 009e 85ED007A 		vstr.32	s14, [r5]
 7977 00a2 40D0     		beq	.L997
 7978              	.L985:
 7979 00a4 DBED006A 		vldr.32	s13, [fp]	@ int
 7980 00a8 B6EE004B 		vmov.f64	d4, #5.0e-1
 7981 00ac DFED617A 		vldr.32	s15, .L1003+20
 7982 00b0 4846     		mov	r0, r9
 7983 00b2 B8EEE65B 		vcvt.f64.s32	d5, s13
 7984 00b6 27EE277A 		vmul.f32	s14, s14, s15
 7985 00ba 9FED593B 		vldr.64	d3, .L1003
 7986 00be B7EEC77A 		vcvt.f64.f32	d7, s14
 7987 00c2 83EE056B 		vdiv.f64	d6, d3, d5
 7988 00c6 9FED585B 		vldr.64	d5, .L1003+8
 7989 00ca 36EE046B 		vadd.f64	d6, d6, d4
 7990 00ce 36EE077B 		vadd.f64	d7, d6, d7
 7991 00d2 87EE056B 		vdiv.f64	d6, d7, d5
 7992 00d6 B7EEC66B 		vcvt.f32.f64	s12, d6
 7993 00da 8AED006A 		vstr.32	s12, [r10]
 7994 00de FFF7FEFF 		bl	_ZN7daisysp10Oscillator7ProcessEv
 7995 00e2 54F8043F 		ldr	r3, [r4, #4]!
 7996 00e6 DFED576A 		vldr.32	s13, .L1003+36
 7997 00ea 5A1C     		adds	r2, r3, #1
 7998 00ec 9AED007A 		vldr.32	s14, [r10]
 7999 00f0 07EE902A 		vmov	s15, r2	@ int
 8000 00f4 544A     		ldr	r2, .L1003+40
 8001 00f6 20EE070A 		vmul.f32	s0, s0, s14
 8002 00fa F8EE677A 		vcvt.f32.u32	s15, s15
 8003 00fe 02EB8303 		add	r3, r2, r3, lsl #2
 8004 0102 93ED006A 		vldr.32	s12, [r3]
 8005 0106 F4EEE67A 		vcmpe.f32	s15, s13
 8006 010a A0EE06AA 		vfma.f32	s20, s0, s12
 8007 010e F1EE10FA 		vmrs	APSR_nzcv, FPSCR
 8008 0112 BCDD     		ble	.L998
 8009 0114 09F12809 		add	r9, r9, #40
 8010 0118 40F22B13 		movw	r3, #299
 8011 011c C845     		cmp	r8, r9
 8012 011e 2360     		str	r3, [r4]
 8013 0120 85ED007A 		vstr.32	s14, [r5]
ARM GAS  /var/folders/lg/77ksxqjx0n7gwph6nqpzcmcw0000gn/T//ccn5JkAm.s 			page 140


 8014 0124 BED1     		bne	.L985
 8015              	.L997:
 8016 0126 494C     		ldr	r4, .L1003+44
 8017 0128 9FED497A 		vldr.32	s14, .L1003+48
 8018 012c D4ED007A 		vldr.32	s15, [r4]
 8019 0130 F4EEC77A 		vcmpe.f32	s15, s14
 8020 0134 F1EE10FA 		vmrs	APSR_nzcv, FPSCR
 8021 0138 09DD     		ble	.L986
 8022 013a F7EE006A 		vmov.f32	s13, #1.0e+0
 8023 013e B6EE007A 		vmov.f32	s14, #5.0e-1
 8024 0142 77EEA67A 		vadd.f32	s15, s15, s13
 8025 0146 67EE877A 		vmul.f32	s15, s15, s14
 8026 014a C4ED007A 		vstr.32	s15, [r4]
 8027              	.L986:
 8028 014e 77EEA77A 		vadd.f32	s15, s15, s15
 8029 0152 B6EE000A 		vmov.f32	s0, #5.0e-1
 8030 0156 27EE800A 		vmul.f32	s0, s15, s0
 8031 015a B5EE400A 		vcmp.f32	s0, #0
 8032 015e F1EEC08A 		vsqrt.f32	s17, s0
 8033 0162 F1EE10FA 		vmrs	APSR_nzcv, FPSCR
 8034 0166 42D4     		bmi	.L999
 8035              	.L988:
 8036 0168 B0EE000A 		vmov.f32	s0, #2.0e+0
 8037 016c 9FED397A 		vldr.32	s14, .L1003+52
 8038 0170 68EE8A8A 		vmul.f32	s17, s17, s20
 8039 0174 70EE677A 		vsub.f32	s15, s0, s15
 8040 0178 67EE877A 		vmul.f32	s15, s15, s14
 8041 017c F5EE407A 		vcmp.f32	s15, #0
 8042 0180 B1EEE78A 		vsqrt.f32	s16, s15
 8043 0184 F1EE10FA 		vmrs	APSR_nzcv, FPSCR
 8044 0188 44D4     		bmi	.L1000
 8045              	.L989:
 8046 018a E9EE888A 		vfma.f32	s17, s19, s16
 8047 018e B6EE007A 		vmov.f32	s14, #5.0e-1
 8048 0192 68EE878A 		vmul.f32	s17, s17, s14
 8049 0196 C7ED008A 		vstr.32	s17, [r7]
 8050 019a 94ED000A 		vldr.32	s0, [r4]
 8051 019e 70EE007A 		vadd.f32	s15, s0, s0
 8052 01a2 27EE877A 		vmul.f32	s14, s15, s14
 8053 01a6 B5EE407A 		vcmp.f32	s14, #0
 8054 01aa B1EEC78A 		vsqrt.f32	s16, s14
 8055 01ae F1EE10FA 		vmrs	APSR_nzcv, FPSCR
 8056 01b2 26D4     		bmi	.L1001
 8057              	.L990:
 8058 01b4 B0EE000A 		vmov.f32	s0, #2.0e+0
 8059 01b8 9FED267A 		vldr.32	s14, .L1003+52
 8060 01bc 28EE0A8A 		vmul.f32	s16, s16, s20
 8061 01c0 30EE670A 		vsub.f32	s0, s0, s15
 8062 01c4 20EE070A 		vmul.f32	s0, s0, s14
 8063 01c8 B5EE400A 		vcmp.f32	s0, #0
 8064 01cc F1EEC08A 		vsqrt.f32	s17, s0
 8065 01d0 F1EE10FA 		vmrs	APSR_nzcv, FPSCR
 8066 01d4 12D4     		bmi	.L1002
 8067              	.L991:
 8068 01d6 A9EE288A 		vfma.f32	s16, s18, s17
 8069 01da F6EE007A 		vmov.f32	s15, #5.0e-1
 8070 01de 28EE278A 		vmul.f32	s16, s16, s15
ARM GAS  /var/folders/lg/77ksxqjx0n7gwph6nqpzcmcw0000gn/T//ccn5JkAm.s 			page 141


 8071 01e2 86ED008A 		vstr.32	s16, [r6]
 8072 01e6 BDEC068B 		vldm	sp!, {d8-d10}
 8073 01ea BDE8F88F 		pop	{r3, r4, r5, r6, r7, r8, r9, r10, fp, pc}
 8074              	.L999:
 8075 01ee FFF7FEFF 		bl	sqrtf
 8076 01f2 D4ED007A 		vldr.32	s15, [r4]
 8077 01f6 77EEA77A 		vadd.f32	s15, s15, s15
 8078 01fa B5E7     		b	.L988
 8079              	.L1002:
 8080 01fc FFF7FEFF 		bl	sqrtf
 8081 0200 E9E7     		b	.L991
 8082              	.L1001:
 8083 0202 B0EE470A 		vmov.f32	s0, s14
 8084 0206 FFF7FEFF 		bl	sqrtf
 8085 020a 94ED000A 		vldr.32	s0, [r4]
 8086 020e 70EE007A 		vadd.f32	s15, s0, s0
 8087 0212 CFE7     		b	.L990
 8088              	.L1000:
 8089 0214 B0EE670A 		vmov.f32	s0, s15
 8090 0218 FFF7FEFF 		bl	sqrtf
 8091 021c B5E7     		b	.L989
 8092              	.L1004:
 8093 021e 00BF     		.align	3
 8094              	.L1003:
 8095 0220 9A999999 		.word	2576980378
 8096 0224 9999C93F 		.word	1070176665
 8097 0228 00000000 		.word	0
 8098 022c 00004840 		.word	1078460416
 8099 0230 F0000000 		.word	_ZL15spectra_oscbank+240
 8100 0234 00003C42 		.word	1111228416
 8101 0238 00004042 		.word	1111490560
 8102 023c 64490000 		.word	_ZL15spectra_oscbank+18788
 8103 0240 00000000 		.word	0
 8104 0244 00809543 		.word	1133871104
 8105 0248 00000000 		.word	.LANCHOR97
 8106 024c 00000000 		.word	.LANCHOR136
 8107 0250 48E17A3F 		.word	1065017672
 8108 0254 3333733F 		.word	1064514355
 8109 0258 6C490000 		.word	_ZL15spectra_oscbank+18796
 8111              		.section	.text._Z19GetSpectringsSampleRfS_ff,"ax",%progbits
 8112              		.align	1
 8113              		.p2align 2,,3
 8114              		.global	_Z19GetSpectringsSampleRfS_ff
 8115              		.syntax unified
 8116              		.thumb
 8117              		.thumb_func
 8118              		.fpu fpv5-d16
 8120              	_Z19GetSpectringsSampleRfS_ff:
 8121              		@ args = 0, pretend = 0, frame = 8
 8122              		@ frame_needed = 0, uses_anonymous_args = 0
 8123 0000 2DE9F043 		push	{r4, r5, r6, r7, r8, r9, lr}
 8124 0004 A44C     		ldr	r4, .L1027+16
 8125 0006 0646     		mov	r6, r0
 8126 0008 0D46     		mov	r5, r1
 8127 000a DFF8C082 		ldr	r8, .L1027+68
 8128 000e A4F1F007 		sub	r7, r4, #240
 8129 0012 A146     		mov	r9, r4
ARM GAS  /var/folders/lg/77ksxqjx0n7gwph6nqpzcmcw0000gn/T//ccn5JkAm.s 			page 142


 8130 0014 2DED068B 		vpush.64	{d8, d9, d10}
 8131 0018 F0EE408A 		vmov.f32	s17, s0
 8132 001c 83B0     		sub	sp, sp, #12
 8133 001e B0EE608A 		vmov.f32	s16, s1
 8134              	.L1006:
 8135 0022 F4EC017A 		vldmia.32	r4!, {s15}
 8136 0026 3846     		mov	r0, r7
 8137 0028 9FED9CAA 		vldr.32	s20, .L1027+20
 8138 002c 2837     		adds	r7, r7, #40
 8139 002e 94ED0B7A 		vldr.32	s14, [r4, #44]
 8140 0032 DFED9B9A 		vldr.32	s19, .L1027+24
 8141 0036 E7EE0A7A 		vfma.f32	s15, s14, s20
 8142 003a 87EEA99A 		vdiv.f32	s18, s15, s19
 8143 003e 07ED089A 		vstr.32	s18, [r7, #-32]
 8144 0042 B0EE490A 		vmov.f32	s0, s18
 8145 0046 FFF7FEFF 		bl	_ZN7daisysp10Oscillator12CalcPhaseIncEf
 8146 004a 07ED040A 		vstr.32	s0, [r7, #-16]
 8147 004e D4ED116A 		vldr.32	s13, [r4, #68]
 8148 0052 D4ED057A 		vldr.32	s15, [r4, #20]
 8149 0056 84ED0B9A 		vstr.32	s18, [r4, #44]
 8150 005a E6EE8A7A 		vfma.f32	s15, s13, s20
 8151 005e 98ED007A 		vldr.32	s14, [r8]
 8152 0062 27EE267A 		vmul.f32	s14, s14, s13
 8153 0066 07ED097A 		vstr.32	s14, [r7, #-36]
 8154 006a B945     		cmp	r9, r7
 8155 006c 87EEA97A 		vdiv.f32	s14, s15, s19
 8156 0070 84ED117A 		vstr.32	s14, [r4, #68]
 8157 0074 D5D1     		bne	.L1006
 8158 0076 8B4C     		ldr	r4, .L1027+28
 8159 0078 0021     		movs	r1, #0
 8160 007a 8B48     		ldr	r0, .L1027+32
 8161 007c B7EE009A 		vmov.f32	s18, #1.0e+0
 8162 0080 DFF84C82 		ldr	r8, .L1027+72
 8163 0084 FFF7FEFF 		bl	_ZN7daisysp11StringVoice7ProcessEb
 8164 0088 884F     		ldr	r7, .L1027+36
 8165 008a 0021     		movs	r1, #0
 8166 008c 2368     		ldr	r3, [r4]
 8167 008e D8ED007A 		vldr.32	s15, [r8]
 8168 0092 07EB8303 		add	r3, r7, r3, lsl #2
 8169 0096 8648     		ldr	r0, .L1027+40
 8170 0098 79EE679A 		vsub.f32	s19, s18, s15
 8171 009c 93ED007A 		vldr.32	s14, [r3]
 8172 00a0 E7EE879A 		vfma.f32	s19, s15, s14
 8173 00a4 60EE299A 		vmul.f32	s19, s0, s19
 8174 00a8 FFF7FEFF 		bl	_ZN7daisysp11StringVoice7ProcessEb
 8175 00ac 6368     		ldr	r3, [r4, #4]
 8176 00ae 98ED017A 		vldr.32	s14, [r8, #4]
 8177 00b2 07EB8307 		add	r7, r7, r3, lsl #2
 8178 00b6 7F4A     		ldr	r2, .L1027+44
 8179 00b8 39EE476A 		vsub.f32	s12, s18, s14
 8180 00bc 9FED7E5A 		vldr.32	s10, .L1027+48
 8181 00c0 D7ED006A 		vldr.32	s13, [r7]
 8182 00c4 D2ED007A 		vldr.32	s15, [r2]
 8183 00c8 A7EE266A 		vfma.f32	s12, s14, s13
 8184 00cc 2268     		ldr	r2, [r4]
 8185 00ce 39EE674A 		vsub.f32	s8, s18, s15
 8186 00d2 0132     		adds	r2, r2, #1
ARM GAS  /var/folders/lg/77ksxqjx0n7gwph6nqpzcmcw0000gn/T//ccn5JkAm.s 			page 143


 8187 00d4 07EE102A 		vmov	s14, r2	@ int
 8188 00d8 B7EEC44A 		vcvt.f64.f32	d4, s8
 8189 00dc 9FED6A2B 		vldr.64	d2, .L1027
 8190 00e0 9FED6B3B 		vldr.64	d3, .L1027+8
 8191 00e4 F8EE475A 		vcvt.f32.u32	s11, s14
 8192 00e8 20EE066A 		vmul.f32	s12, s0, s12
 8193 00ec B0EE697A 		vmov.f32	s14, s19
 8194 00f0 A4EE023B 		vfma.f64	d3, d4, d2
 8195 00f4 A7EE867A 		vfma.f32	s14, s15, s12
 8196 00f8 A7EEA96A 		vfma.f32	s12, s15, s19
 8197 00fc F4EEC55A 		vcmpe.f32	s11, s10
 8198 0100 F1EE10FA 		vmrs	APSR_nzcv, FPSCR
 8199 0104 B7EEC77A 		vcvt.f64.f32	d7, s14
 8200 0108 B7EEC66A 		vcvt.f64.f32	d6, s12
 8201 010c 27EE037B 		vmul.f64	d7, d7, d3
 8202 0110 26EE036B 		vmul.f64	d6, d6, d3
 8203 0114 B7EEC77B 		vcvt.f32.f64	s14, d7
 8204 0118 B7EEC66B 		vcvt.f32.f64	s12, d6
 8205 011c 00F38180 		bgt	.L1017
 8206 0120 FCEEE57A 		vcvt.u32.f32	s15, s11
 8207 0124 17EE902A 		vmov	r2, s15	@ int
 8208              	.L1007:
 8209 0128 0133     		adds	r3, r3, #1
 8210 012a DFED636A 		vldr.32	s13, .L1027+48
 8211 012e 2260     		str	r2, [r4]
 8212 0130 07EE903A 		vmov	s15, r3	@ int
 8213 0134 F8EE677A 		vcvt.f32.u32	s15, s15
 8214 0138 F4EEE67A 		vcmpe.f32	s15, s13
 8215 013c F1EE10FA 		vmrs	APSR_nzcv, FPSCR
 8216 0140 72DC     		bgt	.L1018
 8217 0142 FCEEE77A 		vcvt.u32.f32	s15, s15
 8218 0146 17EE903A 		vmov	r3, s15	@ int
 8219              	.L1008:
 8220 014a 5C4F     		ldr	r7, .L1027+52
 8221 014c DFED5C7A 		vldr.32	s15, .L1027+56
 8222 0150 97ED000A 		vldr.32	s0, [r7]
 8223 0154 6360     		str	r3, [r4, #4]
 8224 0156 B4EEE70A 		vcmpe.f32	s0, s15
 8225 015a F1EE10FA 		vmrs	APSR_nzcv, FPSCR
 8226 015e 37DD     		ble	.L1022
 8227 0160 4FF07E53 		mov	r3, #1065353216
 8228 0164 9FED579A 		vldr.32	s18, .L1027+60
 8229 0168 3B60     		str	r3, [r7]	@ float
 8230              	.L1011:
 8231 016a A8EE897A 		vfma.f32	s14, s17, s18
 8232 016e F6EE006A 		vmov.f32	s13, #5.0e-1
 8233 0172 27EE267A 		vmul.f32	s14, s14, s13
 8234 0176 86ED007A 		vstr.32	s14, [r6]
 8235 017a 97ED000A 		vldr.32	s0, [r7]
 8236 017e 70EE007A 		vadd.f32	s15, s0, s0
 8237 0182 67EEA66A 		vmul.f32	s13, s15, s13
 8238 0186 F5EE406A 		vcmp.f32	s13, #0
 8239 018a F1EEE68A 		vsqrt.f32	s17, s13
 8240 018e F1EE10FA 		vmrs	APSR_nzcv, FPSCR
 8241 0192 6AD4     		bmi	.L1025
 8242              	.L1015:
 8243 0194 B0EE000A 		vmov.f32	s0, #2.0e+0
ARM GAS  /var/folders/lg/77ksxqjx0n7gwph6nqpzcmcw0000gn/T//ccn5JkAm.s 			page 144


 8244 0198 9FED4B7A 		vldr.32	s14, .L1027+64
 8245 019c 26EE286A 		vmul.f32	s12, s12, s17
 8246 01a0 30EE670A 		vsub.f32	s0, s0, s15
 8247 01a4 20EE070A 		vmul.f32	s0, s0, s14
 8248 01a8 B5EE400A 		vcmp.f32	s0, #0
 8249 01ac F1EEC08A 		vsqrt.f32	s17, s0
 8250 01b0 F1EE10FA 		vmrs	APSR_nzcv, FPSCR
 8251 01b4 52D4     		bmi	.L1026
 8252              	.L1016:
 8253 01b6 A8EE286A 		vfma.f32	s12, s16, s17
 8254 01ba F6EE007A 		vmov.f32	s15, #5.0e-1
 8255 01be 26EE276A 		vmul.f32	s12, s12, s15
 8256 01c2 85ED006A 		vstr.32	s12, [r5]
 8257 01c6 03B0     		add	sp, sp, #12
 8258              		@ sp needed
 8259 01c8 BDEC068B 		vldm	sp!, {d8-d10}
 8260 01cc BDE8F083 		pop	{r4, r5, r6, r7, r8, r9, pc}
 8261              	.L1022:
 8262 01d0 30EE000A 		vadd.f32	s0, s0, s0
 8263 01d4 F6EE007A 		vmov.f32	s15, #5.0e-1
 8264 01d8 60EE277A 		vmul.f32	s15, s0, s15
 8265 01dc F5EE407A 		vcmp.f32	s15, #0
 8266 01e0 B1EEE79A 		vsqrt.f32	s18, s15
 8267 01e4 F1EE10FA 		vmrs	APSR_nzcv, FPSCR
 8268 01e8 21D4     		bmi	.L1023
 8269 01ea F0EE007A 		vmov.f32	s15, #2.0e+0
 8270 01ee DFED366A 		vldr.32	s13, .L1027+64
 8271 01f2 37EEC00A 		vsub.f32	s0, s15, s0
 8272 01f6 20EE260A 		vmul.f32	s0, s0, s13
 8273              	.L1014:
 8274 01fa B5EE400A 		vcmp.f32	s0, #0
 8275 01fe 27EE097A 		vmul.f32	s14, s14, s18
 8276 0202 B1EEC09A 		vsqrt.f32	s18, s0
 8277 0206 F1EE10FA 		vmrs	APSR_nzcv, FPSCR
 8278 020a AED5     		bpl	.L1011
 8279 020c 8DED016A 		vstr.32	s12, [sp, #4]	@ int
 8280 0210 8DED007A 		vstr.32	s14, [sp]	@ int
 8281 0214 FFF7FEFF 		bl	sqrtf
 8282 0218 9DED016A 		vldr.32	s12, [sp, #4]	@ int
 8283 021c 9DED007A 		vldr.32	s14, [sp]	@ int
 8284 0220 A3E7     		b	.L1011
 8285              	.L1017:
 8286 0222 40F22B12 		movw	r2, #299
 8287 0226 7FE7     		b	.L1007
 8288              	.L1018:
 8289 0228 40F22B13 		movw	r3, #299
 8290 022c 8DE7     		b	.L1008
 8291              	.L1023:
 8292 022e B0EE670A 		vmov.f32	s0, s15
 8293 0232 8DED016A 		vstr.32	s12, [sp, #4]	@ int
 8294 0236 8DED007A 		vstr.32	s14, [sp]	@ int
 8295 023a FFF7FEFF 		bl	sqrtf
 8296 023e F0EE007A 		vmov.f32	s15, #2.0e+0
 8297 0242 D7ED006A 		vldr.32	s13, [r7]
 8298 0246 9FED200A 		vldr.32	s0, .L1027+64
 8299 024a 9DED016A 		vldr.32	s12, [sp, #4]	@ int
 8300 024e E6EEE77A 		vfms.f32	s15, s13, s15
ARM GAS  /var/folders/lg/77ksxqjx0n7gwph6nqpzcmcw0000gn/T//ccn5JkAm.s 			page 145


 8301 0252 9DED007A 		vldr.32	s14, [sp]	@ int
 8302 0256 27EE800A 		vmul.f32	s0, s15, s0
 8303 025a CEE7     		b	.L1014
 8304              	.L1026:
 8305 025c 8DED006A 		vstr.32	s12, [sp]	@ int
 8306 0260 FFF7FEFF 		bl	sqrtf
 8307 0264 9DED006A 		vldr.32	s12, [sp]	@ int
 8308 0268 A5E7     		b	.L1016
 8309              	.L1025:
 8310 026a B0EE660A 		vmov.f32	s0, s13
 8311 026e 8DED006A 		vstr.32	s12, [sp]	@ int
 8312 0272 FFF7FEFF 		bl	sqrtf
 8313 0276 97ED000A 		vldr.32	s0, [r7]
 8314 027a 9DED006A 		vldr.32	s12, [sp]	@ int
 8315 027e 70EE007A 		vadd.f32	s15, s0, s0
 8316 0282 87E7     		b	.L1015
 8317              	.L1028:
 8318 0284 AFF30080 		.align	3
 8319              	.L1027:
 8320 0288 33333333 		.word	858993459
 8321 028c 3333D33F 		.word	1070805811
 8322 0290 66666666 		.word	1717986918
 8323 0294 6666E63F 		.word	1072064102
 8324 0298 F0000000 		.word	_ZL15spectra_oscbank+240
 8325 029c 00003C42 		.word	1111228416
 8326 02a0 00004042 		.word	1111490560
 8327 02a4 00000000 		.word	.LANCHOR172
 8328 02a8 00000000 		.word	_ZL12string_voice
 8329 02ac 00000000 		.word	.LANCHOR97
 8330 02b0 E4140000 		.word	_ZL12string_voice+5348
 8331 02b4 00000000 		.word	.LANCHOR174
 8332 02b8 00809543 		.word	1133871104
 8333 02bc 00000000 		.word	.LANCHOR173
 8334 02c0 48E17A3F 		.word	1065017672
 8335 02c4 00000000 		.word	0
 8336 02c8 3333733F 		.word	1064514355
 8337 02cc 6C490000 		.word	_ZL15spectra_oscbank+18796
 8338 02d0 00000000 		.word	.LANCHOR171
 8340              		.section	.text._ZL13AudioCallbackPPfS0_j,"ax",%progbits
 8341              		.align	1
 8342              		.p2align 2,,3
 8343              		.syntax unified
 8344              		.thumb
 8345              		.thumb_func
 8346              		.fpu fpv5-d16
 8348              	_ZL13AudioCallbackPPfS0_j:
 8349              		@ args = 0, pretend = 0, frame = 88
 8350              		@ frame_needed = 0, uses_anonymous_args = 0
 8351 0000 2DE9F04F 		push	{r4, r5, r6, r7, r8, r9, r10, fp, lr}
 8352 0004 B44E     		ldr	r6, .L1129+8
 8353 0006 0025     		movs	r5, #0
 8354 0008 2DED028B 		vpush.64	{d8}
 8355 000c 99B0     		sub	sp, sp, #100
 8356 000e 3446     		mov	r4, r6
 8357 0010 CDE91301 		strd	r0, r1, [sp, #76]
 8358 0014 1292     		str	r2, [sp, #72]
 8359 0016 FFF7FEFF 		bl	_Z8Controlsv
ARM GAS  /var/folders/lg/77ksxqjx0n7gwph6nqpzcmcw0000gn/T//ccn5JkAm.s 			page 146


 8360              	.L1031:
 8361 001a 2946     		mov	r1, r5
 8362 001c AF48     		ldr	r0, .L1129+12
 8363 001e 94ED121A 		vldr.32	s2, [r4, #72]
 8364 0022 D4ED110A 		vldr.32	s1, [r4, #68]
 8365 0026 94ED100A 		vldr.32	s0, [r4, #64]
 8366 002a FFF7FEFF 		bl	_ZN5daisy11DaisyVersio6SetLedEjfff
 8367 002e 56F8043B 		ldr	r3, [r6], #4
 8368 0032 2946     		mov	r1, r5
 8369 0034 A948     		ldr	r0, .L1129+12
 8370 0036 002B     		cmp	r3, #0
 8371 0038 05F10105 		add	r5, r5, #1
 8372 003c 03F1FF33 		add	r3, r3, #-1
 8373 0040 09DD     		ble	.L1030
 8374 0042 94ED061A 		vldr.32	s2, [r4, #24]
 8375 0046 D4ED050A 		vldr.32	s1, [r4, #20]
 8376 004a 94ED040A 		vldr.32	s0, [r4, #16]
 8377 004e 46F8043C 		str	r3, [r6, #-4]
 8378 0052 FFF7FEFF 		bl	_ZN5daisy11DaisyVersio6SetLedEjfff
 8379              	.L1030:
 8380 0056 042D     		cmp	r5, #4
 8381 0058 04F10C04 		add	r4, r4, #12
 8382 005c DDD1     		bne	.L1031
 8383 005e 9F48     		ldr	r0, .L1129+12
 8384 0060 FFF7FEFF 		bl	_ZN5daisy11DaisyVersio10UpdateLedsEv
 8385 0064 9E4B     		ldr	r3, .L1129+16
 8386 0066 1968     		ldr	r1, [r3]
 8387 0068 8B1F     		subs	r3, r1, #6
 8388 006a 012B     		cmp	r3, #1
 8389 006c 74D9     		bls	.L1122
 8390              	.L1032:
 8391 006e 129D     		ldr	r5, [sp, #72]
 8392 0070 002D     		cmp	r5, #0
 8393 0072 32D0     		beq	.L1074
 8394 0074 0024     		movs	r4, #0
 8395 0076 DDE91367 		ldrd	r6, r7, [sp, #76]
 8396              	.L1084:
 8397 007a 3368     		ldr	r3, [r6]
 8398 007c 0020     		movs	r0, #0
 8399 007e 7268     		ldr	r2, [r6, #4]
 8400 0080 4FEA8408 		lsl	r8, r4, #2
 8401 0084 03EB8403 		add	r3, r3, r4, lsl #2
 8402 0088 02EB8402 		add	r2, r2, r4, lsl #2
 8403 008c 93ED000A 		vldr.32	s0, [r3]
 8404 0090 D2ED000A 		vldr.32	s1, [r2]
 8405 0094 1690     		str	r0, [sp, #88]	@ float
 8406 0096 1790     		str	r0, [sp, #92]	@ float
 8407 0098 0729     		cmp	r1, #7
 8408 009a 5BD8     		bhi	.L1089
 8409 009c DFE801F0 		tbb	[pc, r1]
 8410              	.L1077:
 8411 00a0 32       		.byte	(.L1083-.L1077)/2
 8412 00a1 2A       		.byte	(.L1082-.L1077)/2
 8413 00a2 5A       		.byte	(.L1089-.L1077)/2
 8414 00a3 42       		.byte	(.L1081-.L1077)/2
 8415 00a4 3A       		.byte	(.L1080-.L1077)/2
 8416 00a5 52       		.byte	(.L1079-.L1077)/2
ARM GAS  /var/folders/lg/77ksxqjx0n7gwph6nqpzcmcw0000gn/T//ccn5JkAm.s 			page 147


 8417 00a6 25       		.byte	(.L1078-.L1077)/2
 8418 00a7 04       		.byte	(.L1076-.L1077)/2
 8419              		.p2align 1
 8420              	.L1076:
 8421 00a8 17A9     		add	r1, sp, #92
 8422 00aa 16A8     		add	r0, sp, #88
 8423 00ac FFF7FEFF 		bl	_Z19GetSpectringsSampleRfS_ff
 8424              	.L1121:
 8425 00b0 17A9     		add	r1, sp, #92
 8426 00b2 16A8     		add	r0, sp, #88
 8427 00b4 DDED170A 		vldr.32	s1, [sp, #92]
 8428 00b8 9DED160A 		vldr.32	s0, [sp, #88]
 8429 00bc FFF7FEFF 		bl	_Z15GetReverbSampleRfS_ff
 8430 00c0 874B     		ldr	r3, .L1129+16
 8431 00c2 1698     		ldr	r0, [sp, #88]	@ float
 8432 00c4 1968     		ldr	r1, [r3]
 8433              	.L1075:
 8434 00c6 3A68     		ldr	r2, [r7]
 8435 00c8 0134     		adds	r4, r4, #1
 8436 00ca 7B68     		ldr	r3, [r7, #4]
 8437 00cc 4244     		add	r2, r2, r8
 8438 00ce A542     		cmp	r5, r4
 8439 00d0 4344     		add	r3, r3, r8
 8440 00d2 1060     		str	r0, [r2]	@ float
 8441 00d4 179A     		ldr	r2, [sp, #92]	@ float
 8442 00d6 1A60     		str	r2, [r3]	@ float
 8443 00d8 CFD1     		bne	.L1084
 8444              	.L1074:
 8445 00da 0229     		cmp	r1, #2
 8446 00dc 00F09782 		beq	.L1123
 8447 00e0 19B0     		add	sp, sp, #100
 8448              		@ sp needed
 8449 00e2 BDEC028B 		vldm	sp!, {d8}
 8450 00e6 BDE8F08F 		pop	{r4, r5, r6, r7, r8, r9, r10, fp, pc}
 8451              	.L1078:
 8452 00ea 17A9     		add	r1, sp, #92
 8453 00ec 16A8     		add	r0, sp, #88
 8454 00ee FFF7FEFF 		bl	_Z16GetSpectraSampleRfS_ff
 8455 00f2 DDE7     		b	.L1121
 8456              	.L1082:
 8457 00f4 17A9     		add	r1, sp, #92
 8458 00f6 16A8     		add	r0, sp, #88
 8459 00f8 FFF7FEFF 		bl	_Z18GetResonatorSampleRfS_ff
 8460 00fc 784B     		ldr	r3, .L1129+16
 8461 00fe 1698     		ldr	r0, [sp, #88]	@ float
 8462 0100 1968     		ldr	r1, [r3]
 8463 0102 E0E7     		b	.L1075
 8464              	.L1083:
 8465 0104 17A9     		add	r1, sp, #92
 8466 0106 16A8     		add	r0, sp, #88
 8467 0108 FFF7FEFF 		bl	_Z15GetReverbSampleRfS_ff
 8468 010c 744B     		ldr	r3, .L1129+16
 8469 010e 1698     		ldr	r0, [sp, #88]	@ float
 8470 0110 1968     		ldr	r1, [r3]
 8471 0112 D8E7     		b	.L1075
 8472              	.L1080:
 8473 0114 17A9     		add	r1, sp, #92
ARM GAS  /var/folders/lg/77ksxqjx0n7gwph6nqpzcmcw0000gn/T//ccn5JkAm.s 			page 148


 8474 0116 16A8     		add	r0, sp, #88
 8475 0118 FFF7FEFF 		bl	_Z15GetLooperSampleRfS_ff
 8476 011c 704B     		ldr	r3, .L1129+16
 8477 011e 1698     		ldr	r0, [sp, #88]	@ float
 8478 0120 1968     		ldr	r1, [r3]
 8479 0122 D0E7     		b	.L1075
 8480              	.L1081:
 8481 0124 17A9     		add	r1, sp, #92
 8482 0126 16A8     		add	r0, sp, #88
 8483 0128 FFF7FEFF 		bl	_Z15GetReverbSampleRfS_ff
 8484 012c 17A9     		add	r1, sp, #92
 8485 012e 16A8     		add	r0, sp, #88
 8486 0130 DDED170A 		vldr.32	s1, [sp, #92]
 8487 0134 9DED160A 		vldr.32	s0, [sp, #88]
 8488 0138 FFF7FEFF 		bl	_Z13GetLofiSampleRfS_ff
 8489 013c 684B     		ldr	r3, .L1129+16
 8490 013e 1698     		ldr	r0, [sp, #88]	@ float
 8491 0140 1968     		ldr	r1, [r3]
 8492 0142 C0E7     		b	.L1075
 8493              	.L1079:
 8494 0144 17A9     		add	r1, sp, #92
 8495 0146 16A8     		add	r0, sp, #88
 8496 0148 FFF7FEFF 		bl	_Z14GetDelaySampleRfS_ff
 8497 014c 644B     		ldr	r3, .L1129+16
 8498 014e 1698     		ldr	r0, [sp, #88]	@ float
 8499 0150 1968     		ldr	r1, [r3]
 8500 0152 B8E7     		b	.L1075
 8501              	.L1089:
 8502 0154 0020     		movs	r0, #0
 8503 0156 B6E7     		b	.L1075
 8504              	.L1122:
 8505 0158 44F6E415 		movw	r5, #18916
 8506 015c 614E     		ldr	r6, .L1129+20
 8507 015e 624B     		ldr	r3, .L1129+24
 8508 0160 7459     		ldr	r4, [r6, r5]
 8509 0162 D3ED006A 		vldr.32	s13, [r3]
 8510 0166 A102     		lsls	r1, r4, #10
 8511 0168 604B     		ldr	r3, .L1129+28
 8512 016a 9FED610A 		vldr.32	s0, .L1129+32
 8513 016e 07EE901A 		vmov	s15, r1	@ int
 8514 0172 1399     		ldr	r1, [sp, #76]
 8515 0174 5F48     		ldr	r0, .L1129+36
 8516 0176 F8EE677A 		vcvt.f32.u32	s15, s15
 8517 017a 0F68     		ldr	r7, [r1]
 8518 017c D1F80480 		ldr	r8, [r1, #4]
 8519 0180 1299     		ldr	r1, [sp, #72]
 8520 0182 86EEA77A 		vdiv.f32	s14, s13, s15
 8521 0186 B1FBF4F1 		udiv	r1, r1, r4
 8522 018a 0391     		str	r1, [sp, #12]
 8523 018c 83ED007A 		vstr.32	s14, [r3]
 8524 0190 FFF7FEFF 		bl	_ZN7daisysp3Svf6SetResEf
 8525 0194 7359     		ldr	r3, [r6, r5]
 8526 0196 544A     		ldr	r2, .L1129+24
 8527 0198 5B00     		lsls	r3, r3, #1
 8528 019a 5648     		ldr	r0, .L1129+36
 8529 019c 92ED000A 		vldr.32	s0, [r2]
 8530 01a0 07EE903A 		vmov	s15, r3	@ int
ARM GAS  /var/folders/lg/77ksxqjx0n7gwph6nqpzcmcw0000gn/T//ccn5JkAm.s 			page 149


 8531 01a4 F8EE677A 		vcvt.f32.u32	s15, s15
 8532 01a8 80EE270A 		vdiv.f32	s0, s0, s15
 8533 01ac FFF7FEFF 		bl	_ZN7daisysp3Svf7SetFreqEf
 8534 01b0 9FED4F0A 		vldr.32	s0, .L1129+32
 8535 01b4 5048     		ldr	r0, .L1129+40
 8536 01b6 FFF7FEFF 		bl	_ZN7daisysp3Svf6SetResEf
 8537 01ba 7259     		ldr	r2, [r6, r5]
 8538 01bc 2023     		movs	r3, #32
 8539 01be 4B48     		ldr	r0, .L1129+28
 8540 01c0 B3FBF2F3 		udiv	r3, r3, r2
 8541 01c4 07EE903A 		vmov	s15, r3	@ int
 8542 01c8 90ED000A 		vldr.32	s0, [r0]
 8543 01cc 4A48     		ldr	r0, .L1129+40
 8544 01ce F8EEE77A 		vcvt.f32.s32	s15, s15
 8545 01d2 27EE800A 		vmul.f32	s0, s15, s0
 8546 01d6 FFF7FEFF 		bl	_ZN7daisysp3Svf7SetFreqEf
 8547 01da 0399     		ldr	r1, [sp, #12]
 8548 01dc D1F58060 		rsbs	r0, r1, #1024
 8549 01e0 00F08683 		beq	.L1124
 8550 01e4 039B     		ldr	r3, [sp, #12]
 8551 01e6 03F15502 		add	r2, r3, #85
 8552 01ea 3E4B     		ldr	r3, .L1129+20
 8553 01ec 03F5AA71 		add	r1, r3, #340
 8554 01f0 03EB8202 		add	r2, r3, r2, lsl #2
 8555 01f4 01EB8000 		add	r0, r1, r0, lsl #2
 8556 01f8 0B46     		mov	r3, r1
 8557 01fa 0491     		str	r1, [sp, #16]
 8558              	.L1037:
 8559 01fc 52F8041B 		ldr	r1, [r2], #4	@ float
 8560 0200 43F8041B 		str	r1, [r3], #4	@ float
 8561 0204 8342     		cmp	r3, r0
 8562 0206 F9D1     		bne	.L1037
 8563 0208 129B     		ldr	r3, [sp, #72]
 8564 020a A342     		cmp	r3, r4
 8565 020c 43D3     		bcc	.L1040
 8566              	.L1033:
 8567 020e 039B     		ldr	r3, [sp, #12]
 8568 0210 40F25549 		movw	r9, #1109
 8569 0214 0024     		movs	r4, #0
 8570 0216 394D     		ldr	r5, .L1129+44
 8571 0218 A9EB0309 		sub	r9, r9, r3
 8572 021c 314B     		ldr	r3, .L1129+20
 8573 021e 03EB8909 		add	r9, r3, r9, lsl #2
 8574              	.L1041:
 8575 0222 2B68     		ldr	r3, [r5]
 8576 0224 9FED368A 		vldr.32	s16, .L1129+48
 8577 0228 7BB3     		cbz	r3, .L1038
 8578 022a 4FF0000B 		mov	fp, #0
 8579 022e 314E     		ldr	r6, .L1129+36
 8580 0230 DFF8C4A0 		ldr	r10, .L1129+40
 8581              	.L1039:
 8582 0234 04FB03B3 		mla	r3, r4, r3, fp
 8583 0238 2E48     		ldr	r0, .L1129+36
 8584 023a 0BF1010B 		add	fp, fp, #1
 8585 023e 07EB8302 		add	r2, r7, r3, lsl #2
 8586 0242 08EB8303 		add	r3, r8, r3, lsl #2
 8587 0246 92ED000A 		vldr.32	s0, [r2]
ARM GAS  /var/folders/lg/77ksxqjx0n7gwph6nqpzcmcw0000gn/T//ccn5JkAm.s 			page 150


 8588 024a D3ED007A 		vldr.32	s15, [r3]
 8589 024e 30EE270A 		vadd.f32	s0, s0, s15
 8590 0252 9FED1F7B 		vldr.64	d7, .L1129
 8591 0256 B7EEC00A 		vcvt.f64.f32	d0, s0
 8592 025a 20EE070B 		vmul.f64	d0, d0, d7
 8593 025e B7EEC00B 		vcvt.f32.f64	s0, d0
 8594 0262 FFF7FEFF 		bl	_ZN7daisysp3Svf7ProcessEf
 8595 0266 96ED0C0A 		vldr.32	s0, [r6, #48]
 8596 026a 2348     		ldr	r0, .L1129+40
 8597 026c FFF7FEFF 		bl	_ZN7daisysp3Svf7ProcessEf
 8598 0270 2B68     		ldr	r3, [r5]
 8599 0272 DAED0D6A 		vldr.32	s13, [r10, #52]
 8600 0276 07EE903A 		vmov	s15, r3	@ int
 8601 027a 5B45     		cmp	r3, fp
 8602 027c B8EE677A 		vcvt.f32.u32	s14, s15
 8603 0280 C6EE877A 		vdiv.f32	s15, s13, s14
 8604 0284 38EE278A 		vadd.f32	s16, s16, s15
 8605 0288 D4D8     		bhi	.L1039
 8606              	.L1038:
 8607 028a 0134     		adds	r4, r4, #1
 8608 028c 039B     		ldr	r3, [sp, #12]
 8609 028e A9EC018A 		vstmia.32	r9!, {s16}
 8610 0292 A342     		cmp	r3, r4
 8611 0294 C5D8     		bhi	.L1041
 8612              	.L1040:
 8613 0296 DDF810B0 		ldr	fp, [sp, #16]
 8614 029a 0BF58052 		add	r2, fp, #4096
 8615 029e 0BF50053 		add	r3, fp, #8192
 8616 02a2 1046     		mov	r0, r2
 8617 02a4 1946     		mov	r1, r3
 8618              	.L1035:
 8619 02a6 BBEC017A 		vldmia.32	fp!, {s14}
 8620 02aa F2EC017A 		vldmia.32	r2!, {s15}
 8621 02ae 5845     		cmp	r0, fp
 8622 02b0 67EE877A 		vmul.f32	s15, s15, s14
 8623 02b4 E1EC017A 		vstmia.32	r1!, {s15}
 8624 02b8 F5D1     		bne	.L1035
 8625 02ba 0021     		movs	r1, #0
 8626 02bc 094A     		ldr	r2, .L1129+20
 8627 02be 44F26418 		movw	r8, #16740
 8628 02c2 1048     		ldr	r0, .L1129+52
 8629 02c4 0E46     		mov	r6, r1
 8630 02c6 9044     		add	r8, r8, r2
 8631 02c8 0A46     		mov	r2, r1
 8632 02ca 21E0     		b	.L1043
 8633              	.L1130:
 8634 02cc AFF30080 		.align	3
 8635              	.L1129:
 8636 02d0 39B4C876 		.word	1992864825
 8637 02d4 BE9FE63F 		.word	1072078782
 8638 02d8 00000000 		.word	.LANCHOR18
 8639 02dc 00000000 		.word	.LANCHOR78
 8640 02e0 00000000 		.word	.LANCHOR9
 8641 02e4 00000000 		.word	_ZL15spectra_oscbank
 8642 02e8 00000000 		.word	.LANCHOR26
 8643 02ec 54490000 		.word	_ZL15spectra_oscbank+18772
 8644 02f0 CDCCCC3D 		.word	1036831949
ARM GAS  /var/folders/lg/77ksxqjx0n7gwph6nqpzcmcw0000gn/T//ccn5JkAm.s 			page 151


 8645 02f4 00000000 		.word	.LANCHOR37
 8646 02f8 00000000 		.word	.LANCHOR39
 8647 02fc E4490000 		.word	_ZL15spectra_oscbank+18916
 8648 0300 00000000 		.word	0
 8649 0304 64310000 		.word	_ZL15spectra_oscbank+12644
 8650              	.L1125:
 8651 0308 1CF80720 		ldrb	r2, [ip, r7]	@ zero_extendqisi2
 8652 030c 1EF80710 		ldrb	r1, [lr, r7]	@ zero_extendqisi2
 8653              	.L1043:
 8654 0310 41EA0222 		orr	r2, r1, r2, lsl #8
 8655 0314 1030     		adds	r0, r0, #16
 8656 0316 0436     		adds	r6, r6, #4
 8657 0318 C84F     		ldr	r7, .L1131
 8658 031a 9211     		asrs	r2, r2, #6
 8659 031c 5FFA86FC 		uxtb	ip, r6
 8660 0320 9100     		lsls	r1, r2, #2
 8661 0322 03EB8202 		add	r2, r3, r2, lsl #2
 8662 0326 01F50065 		add	r5, r1, #2048
 8663 032a 01F58064 		add	r4, r1, #1024
 8664 032e D2ED007A 		vldr.32	s15, [r2]
 8665 0332 01F54061 		add	r1, r1, #3072
 8666 0336 1D44     		add	r5, r5, r3
 8667 0338 1C44     		add	r4, r4, r3
 8668 033a 1944     		add	r1, r1, r3
 8669 033c 4FEA162E 		lsr	lr, r6, #8
 8670 0340 95ED007A 		vldr.32	s14, [r5]
 8671 0344 77EEC77A 		vsub.f32	s15, s15, s14
 8672 0348 40ED077A 		vstr.32	s15, [r0, #-28]
 8673 034c 91ED007A 		vldr.32	s14, [r1]
 8674 0350 D4ED007A 		vldr.32	s15, [r4]
 8675 0354 77EEC77A 		vsub.f32	s15, s15, s14
 8676 0358 40ED057A 		vstr.32	s15, [r0, #-20]
 8677 035c D1ED006A 		vldr.32	s13, [r1]
 8678 0360 D2ED007A 		vldr.32	s15, [r2]
 8679 0364 95ED006A 		vldr.32	s12, [r5]
 8680 0368 94ED007A 		vldr.32	s14, [r4]
 8681 036c 77EE867A 		vadd.f32	s15, s15, s12
 8682 0370 37EE267A 		vadd.f32	s14, s14, s13
 8683 0374 77EE876A 		vadd.f32	s13, s15, s14
 8684 0378 77EEC77A 		vsub.f32	s15, s15, s14
 8685 037c 40ED086A 		vstr.32	s13, [r0, #-32]
 8686 0380 40ED067A 		vstr.32	s15, [r0, #-24]
 8687 0384 8045     		cmp	r8, r0
 8688 0386 BFD1     		bne	.L1125
 8689 0388 44F25410 		movw	r0, #16724
 8690 038c DFF8BC82 		ldr	r8, .L1131+16
 8691 0390 AB49     		ldr	r1, .L1131+4
 8692 0392 4246     		mov	r2, r8
 8693 0394 0844     		add	r0, r0, r1
 8694              	.L1044:
 8695 0396 D2ED046A 		vldr.32	s13, [r2, #16]
 8696 039a 2032     		adds	r2, r2, #32
 8697 039c 12ED087A 		vldr.32	s14, [r2, #-32]
 8698 03a0 2033     		adds	r3, r3, #32
 8699 03a2 DFEDA87A 		vldr.32	s15, .L1131+8
 8700 03a6 37EE267A 		vadd.f32	s14, s14, s13
 8701 03aa 03ED087A 		vstr.32	s14, [r3, #-32]
ARM GAS  /var/folders/lg/77ksxqjx0n7gwph6nqpzcmcw0000gn/T//ccn5JkAm.s 			page 152


 8702 03ae 52ED046A 		vldr.32	s13, [r2, #-16]
 8703 03b2 12ED087A 		vldr.32	s14, [r2, #-32]
 8704 03b6 37EE667A 		vsub.f32	s14, s14, s13
 8705 03ba 03ED047A 		vstr.32	s14, [r3, #-16]
 8706 03be 52F8181C 		ldr	r1, [r2, #-24]	@ float
 8707 03c2 43F8181C 		str	r1, [r3, #-24]	@ float
 8708 03c6 52F8081C 		ldr	r1, [r2, #-8]	@ float
 8709 03ca 43F8081C 		str	r1, [r3, #-8]	@ float
 8710 03ce 12ED016A 		vldr.32	s12, [r2, #-4]
 8711 03d2 12ED037A 		vldr.32	s14, [r2, #-12]
 8712 03d6 52ED076A 		vldr.32	s13, [r2, #-28]
 8713 03da 37EE467A 		vsub.f32	s14, s14, s12
 8714 03de E7EE276A 		vfma.f32	s13, s14, s15
 8715 03e2 43ED076A 		vstr.32	s13, [r3, #-28]
 8716 03e6 52ED076A 		vldr.32	s13, [r2, #-28]
 8717 03ea E7EE676A 		vfms.f32	s13, s14, s15
 8718 03ee 43ED056A 		vstr.32	s13, [r3, #-20]
 8719 03f2 12ED037A 		vldr.32	s14, [r2, #-12]
 8720 03f6 12ED016A 		vldr.32	s12, [r2, #-4]
 8721 03fa 52ED056A 		vldr.32	s13, [r2, #-20]
 8722 03fe 37EE067A 		vadd.f32	s14, s14, s12
 8723 0402 E7EE276A 		vfma.f32	s13, s14, s15
 8724 0406 43ED036A 		vstr.32	s13, [r3, #-12]
 8725 040a 52ED056A 		vldr.32	s13, [r2, #-20]
 8726 040e 9042     		cmp	r0, r2
 8727 0410 D7EE276A 		vfnms.f32	s13, s14, s15
 8728 0414 43ED016A 		vstr.32	s13, [r3, #-4]
 8729 0418 BDD1     		bne	.L1044
 8730 041a 8B4B     		ldr	r3, .L1131+12
 8731 041c 0322     		movs	r2, #3
 8732 041e CDF85480 		str	r8, [sp, #84]
 8733 0422 0A93     		str	r3, [sp, #40]
 8734 0424 0433     		adds	r3, r3, #4
 8735 0426 1092     		str	r2, [sp, #64]
 8736 0428 0993     		str	r3, [sp, #36]
 8737 042a 884A     		ldr	r2, .L1131+16
 8738 042c 884B     		ldr	r3, .L1131+20
 8739 042e 0F92     		str	r2, [sp, #60]
 8740 0430 1193     		str	r3, [sp, #68]
 8741              	.L1047:
 8742 0432 119F     		ldr	r7, [sp, #68]
 8743 0434 0422     		movs	r2, #4
 8744 0436 0F9E     		ldr	r6, [sp, #60]
 8745 0438 0123     		movs	r3, #1
 8746 043a 1098     		ldr	r0, [sp, #64]
 8747 043c B918     		adds	r1, r7, r2
 8748 043e 06EB020A 		add	r10, r6, r2
 8749 0442 8340     		lsls	r3, r3, r0
 8750 0444 8240     		lsls	r2, r2, r0
 8751 0446 0020     		movs	r0, #0
 8752 0448 5500     		lsls	r5, r2, #1
 8753 044a 141D     		adds	r4, r2, #4
 8754 044c 0590     		str	r0, [sp, #20]
 8755 044e 5808     		lsrs	r0, r3, #1
 8756 0450 06EB0209 		add	r9, r6, r2
 8757 0454 043D     		subs	r5, r5, #4
 8758 0456 8600     		lsls	r6, r0, #2
ARM GAS  /var/folders/lg/77ksxqjx0n7gwph6nqpzcmcw0000gn/T//ccn5JkAm.s 			page 153


 8759 0458 0B92     		str	r2, [sp, #44]
 8760 045a 0D95     		str	r5, [sp, #52]
 8761 045c 3A19     		adds	r2, r7, r4
 8762 045e 351D     		adds	r5, r6, #4
 8763 0460 04EB8004 		add	r4, r4, r0, lsl #2
 8764 0464 A6F1040C 		sub	ip, r6, #4
 8765 0468 0F9E     		ldr	r6, [sp, #60]
 8766 046a 07EB0408 		add	r8, r7, r4
 8767 046e 3D44     		add	r5, r5, r7
 8768 0470 06EB800B 		add	fp, r6, r0, lsl #2
 8769 0474 CDF838C0 		str	ip, [sp, #56]
 8770 0478 5800     		lsls	r0, r3, #1
 8771 047a DB00     		lsls	r3, r3, #3
 8772 047c 0C90     		str	r0, [sp, #48]
 8773              	.L1046:
 8774 047e 12ED017A 		vldr.32	s14, [r2, #-4]
 8775 0482 4846     		mov	r0, r9
 8776 0484 51ED017A 		vldr.32	s15, [r1, #-4]
 8777 0488 AE46     		mov	lr, r5
 8778 048a 0B9C     		ldr	r4, [sp, #44]
 8779 048c 8C46     		mov	ip, r1
 8780 048e 77EE877A 		vadd.f32	s15, s15, s14
 8781 0492 4746     		mov	r7, r8
 8782 0494 0BEB0406 		add	r6, fp, r4
 8783 0498 0D9C     		ldr	r4, [sp, #52]
 8784 049a CDF81090 		str	r9, [sp, #16]
 8785 049e 4AED017A 		vstr.32	s15, [r10, #-4]
 8786 04a2 5444     		add	r4, r4, r10
 8787 04a4 51ED017A 		vldr.32	s15, [r1, #-4]
 8788 04a8 12ED017A 		vldr.32	s14, [r2, #-4]
 8789 04ac 0394     		str	r4, [sp, #12]
 8790 04ae 77EEC77A 		vsub.f32	s15, s15, s14
 8791 04b2 0E9C     		ldr	r4, [sp, #56]
 8792 04b4 CDF818A0 		str	r10, [sp, #24]
 8793 04b8 1444     		add	r4, r4, r2
 8794 04ba 0893     		str	r3, [sp, #32]
 8795 04bc E0EC017A 		vstmia.32	r0!, {s15}
 8796 04c0 55ED017A 		vldr.32	s15, [r5, #-4]
 8797 04c4 0794     		str	r4, [sp, #28]
 8798 04c6 1446     		mov	r4, r2
 8799 04c8 CBED007A 		vstr.32	s15, [fp]
 8800 04cc 58ED017A 		vldr.32	s15, [r8, #-4]
 8801 04d0 C6ED007A 		vstr.32	s15, [r6]
 8802 04d4 099E     		ldr	r6, [sp, #36]
 8803 04d6 56ED017A 		vldr.32	s15, [r6, #-4]
 8804 04da 5E4E     		ldr	r6, .L1131+24
 8805 04dc C6ED007A 		vstr.32	s15, [r6]
 8806 04e0 46ED027A 		vstr.32	s15, [r6, #-8]
 8807 04e4 0A9E     		ldr	r6, [sp, #40]
 8808 04e6 D6ED016A 		vldr.32	s13, [r6, #4]
 8809 04ea 5B4E     		ldr	r6, .L1131+28
 8810 04ec C6ED006A 		vstr.32	s13, [r6]
 8811 04f0 46ED026A 		vstr.32	s13, [r6, #-8]
 8812 04f4 5646     		mov	r6, r10
 8813              	.L1045:
 8814 04f6 97ED007A 		vldr.32	s14, [r7]
 8815 04fa D4ED005A 		vldr.32	s11, [r4]
ARM GAS  /var/folders/lg/77ksxqjx0n7gwph6nqpzcmcw0000gn/T//ccn5JkAm.s 			page 154


 8816 04fe 26EEC77A 		vnmul.f32	s14, s13, s14
 8817 0502 9CED006A 		vldr.32	s12, [ip]
 8818 0506 049B     		ldr	r3, [sp, #16]
 8819 0508 A5EEA77A 		vfma.f32	s14, s11, s15
 8820 050c 37EE066A 		vadd.f32	s12, s14, s12
 8821 0510 AAEC016A 		vstmia.32	r10!, {s12}
 8822 0514 BCEC016A 		vldmia.32	ip!, {s12}
 8823 0518 36EE477A 		vsub.f32	s14, s12, s14
 8824 051c 23ED017A 		vstmdb.32	r3!, {s14}
 8825 0520 B7EC017A 		vldmia.32	r7!, {s14}
 8826 0524 B4EC016A 		vldmia.32	r4!, {s12}
 8827 0528 67EE877A 		vmul.f32	s15, s15, s14
 8828 052c 9EED007A 		vldr.32	s14, [lr]
 8829 0530 0493     		str	r3, [sp, #16]
 8830 0532 039B     		ldr	r3, [sp, #12]
 8831 0534 E6EE267A 		vfma.f32	s15, s12, s13
 8832 0538 37EE877A 		vadd.f32	s14, s15, s14
 8833 053c A0EC017A 		vstmia.32	r0!, {s14}
 8834 0540 BEEC017A 		vldmia.32	lr!, {s14}
 8835 0544 77EEC77A 		vsub.f32	s15, s15, s14
 8836 0548 63ED017A 		vstmdb.32	r3!, {s15}
 8837 054c 0393     		str	r3, [sp, #12]
 8838 054e 414B     		ldr	r3, .L1131+24
 8839 0550 93ED007A 		vldr.32	s14, [r3]
 8840 0554 0433     		adds	r3, r3, #4
 8841 0556 53ED027A 		vldr.32	s15, [r3, #-8]
 8842 055a D3ED005A 		vldr.32	s11, [r3]
 8843 055e 67EE276A 		vmul.f32	s13, s14, s15
 8844 0562 13ED036A 		vldr.32	s12, [r3, #-12]
 8845 0566 65EEE77A 		vnmul.f32	s15, s11, s15
 8846 056a E6EE256A 		vfma.f32	s13, s12, s11
 8847 056e E6EE077A 		vfma.f32	s15, s12, s14
 8848 0572 43ED026A 		vstr.32	s13, [r3, #-8]
 8849 0576 083B     		subs	r3, r3, #8
 8850 0578 43ED017A 		vstr.32	s15, [r3, #-4]
 8851 057c 079B     		ldr	r3, [sp, #28]
 8852 057e 9C42     		cmp	r4, r3
 8853 0580 B9D1     		bne	.L1045
 8854 0582 0598     		ldr	r0, [sp, #20]
 8855 0584 B246     		mov	r10, r6
 8856 0586 0C9C     		ldr	r4, [sp, #48]
 8857 0588 089B     		ldr	r3, [sp, #32]
 8858 058a 2044     		add	r0, r0, r4
 8859 058c 9944     		add	r9, r9, r3
 8860 058e 9B44     		add	fp, fp, r3
 8861 0590 B0F5806F 		cmp	r0, #1024
 8862 0594 1A44     		add	r2, r2, r3
 8863 0596 9844     		add	r8, r8, r3
 8864 0598 1944     		add	r1, r1, r3
 8865 059a 9A44     		add	r10, r10, r3
 8866 059c 1D44     		add	r5, r5, r3
 8867 059e 0590     		str	r0, [sp, #20]
 8868 05a0 FFF46DAF 		bcc	.L1046
 8869 05a4 0A9A     		ldr	r2, [sp, #40]
 8870 05a6 109B     		ldr	r3, [sp, #64]
 8871 05a8 0832     		adds	r2, r2, #8
 8872 05aa 0133     		adds	r3, r3, #1
ARM GAS  /var/folders/lg/77ksxqjx0n7gwph6nqpzcmcw0000gn/T//ccn5JkAm.s 			page 155


 8873 05ac 0A92     		str	r2, [sp, #40]
 8874 05ae 099A     		ldr	r2, [sp, #36]
 8875 05b0 0A2B     		cmp	r3, #10
 8876 05b2 1093     		str	r3, [sp, #64]
 8877 05b4 02F10802 		add	r2, r2, #8
 8878 05b8 0992     		str	r2, [sp, #36]
 8879 05ba 04D0     		beq	.L1126
 8880 05bc 119B     		ldr	r3, [sp, #68]
 8881 05be 0F9A     		ldr	r2, [sp, #60]
 8882 05c0 0F93     		str	r3, [sp, #60]
 8883 05c2 1192     		str	r2, [sp, #68]
 8884 05c4 35E7     		b	.L1047
 8885              	.L1126:
 8886 05c6 0F99     		ldr	r1, [sp, #60]
 8887 05c8 204A     		ldr	r2, .L1131+16
 8888 05ca DDF85480 		ldr	r8, [sp, #84]
 8889 05ce 9142     		cmp	r1, r2
 8890 05d0 04D0     		beq	.L1048
 8891 05d2 4FF48052 		mov	r2, #4096
 8892 05d6 1D48     		ldr	r0, .L1131+16
 8893 05d8 FFF7FEFF 		bl	memmove
 8894              	.L1048:
 8895 05dc 1F4B     		ldr	r3, .L1131+32
 8896 05de 1A78     		ldrb	r2, [r3]	@ zero_extendqisi2
 8897 05e0 22BB     		cbnz	r2, .L1127
 8898              	.L1049:
 8899 05e2 1F4B     		ldr	r3, .L1131+36
 8900 05e4 1968     		ldr	r1, [r3]
 8901 05e6 0729     		cmp	r1, #7
 8902 05e8 7FF441AD 		bne	.L1032
 8903 05ec 1D4B     		ldr	r3, .L1131+40
 8904 05ee 41F2E440 		movw	r0, #5348
 8905 05f2 1D49     		ldr	r1, .L1131+44
 8906 05f4 1A68     		ldr	r2, [r3]
 8907 05f6 124B     		ldr	r3, .L1131+4
 8908 05f8 00FB0210 		mla	r0, r0, r2, r1
 8909 05fc 03EB8203 		add	r3, r3, r2, lsl #2
 8910 0600 93ED480A 		vldr.32	s0, [r3, #288]
 8911 0604 FFF7FEFF 		bl	_ZN7daisysp11StringVoice7SetFreqEf
 8912 0608 154B     		ldr	r3, .L1131+36
 8913 060a 1968     		ldr	r1, [r3]
 8914 060c 2FE5     		b	.L1032
 8915              	.L1123:
 8916 060e 129B     		ldr	r3, [sp, #72]
 8917 0610 139A     		ldr	r2, [sp, #76]
 8918 0612 1498     		ldr	r0, [sp, #80]
 8919 0614 0093     		str	r3, [sp]
 8920 0616 5368     		ldr	r3, [r2, #4]
 8921 0618 4168     		ldr	r1, [r0, #4]
 8922 061a 1268     		ldr	r2, [r2]
 8923 061c 0068     		ldr	r0, [r0]
 8924 061e FFF7FEFF 		bl	_Z16GetFilterSamplesPfS_S_S_j
 8925 0622 19B0     		add	sp, sp, #100
 8926              		@ sp needed
 8927 0624 BDEC028B 		vldm	sp!, {d8}
 8928 0628 BDE8F08F 		pop	{r4, r5, r6, r7, r8, r9, r10, fp, pc}
 8929              	.L1127:
ARM GAS  /var/folders/lg/77ksxqjx0n7gwph6nqpzcmcw0000gn/T//ccn5JkAm.s 			page 156


 8930 062c 44F6E411 		movw	r1, #18916
 8931 0630 0022     		movs	r2, #0
 8932 0632 0348     		ldr	r0, .L1131+4
 8933 0634 0124     		movs	r4, #1
 8934 0636 1A70     		strb	r2, [r3]
 8935 0638 4158     		ldr	r1, [r0, r1]
 8936 063a 30E0     		b	.L1055
 8937              	.L1132:
 8938              		.align	2
 8939              	.L1131:
 8940 063c 00000000 		.word	_ZN6ShyFFTIfLj1024E14RotationPhasorE16bit_rev_256_lut_E
 8941 0640 00000000 		.word	_ZL15spectra_oscbank
 8942 0644 F304353F 		.word	1060439283
 8943 0648 78490000 		.word	_ZL15spectra_oscbank+18808
 8944 064c 54310000 		.word	_ZL15spectra_oscbank+12628
 8945 0650 54210000 		.word	_ZL15spectra_oscbank+8532
 8946 0654 B8490000 		.word	_ZL15spectra_oscbank+18872
 8947 0658 BC490000 		.word	_ZL15spectra_oscbank+18876
 8948 065c 00000000 		.word	.LANCHOR132
 8949 0660 00000000 		.word	.LANCHOR9
 8950 0664 00000000 		.word	.LANCHOR168
 8951 0668 00000000 		.word	_ZL12string_voice
 8952              	.L1128:
 8953 066c D8ED007A 		vldr.32	s15, [r8]
 8954 0670 67EE877A 		vmul.f32	s15, s15, s14
 8955 0674 C8ED007A 		vstr.32	s15, [r8]
 8956 0678 96ED000A 		vldr.32	s0, [r6]
 8957 067c 20EE000A 		vmul.f32	s0, s0, s0
 8958 0680 A7EEA70A 		vfma.f32	s0, s15, s15
 8959 0684 B5EE400A 		vcmp.f32	s0, #0
 8960 0688 B1EEC08A 		vsqrt.f32	s16, s0
 8961 068c F1EE10FA 		vmrs	APSR_nzcv, FPSCR
 8962 0690 00F13281 		bmi	.L1052
 8963 0694 80ED008A 		vstr.32	s16, [r0]
 8964              	.L1086:
 8965 0698 0134     		adds	r4, r4, #1
 8966 069a 08F10408 		add	r8, r8, #4
 8967              	.L1055:
 8968 069e 2022     		movs	r2, #32
 8969 06a0 631E     		subs	r3, r4, #1
 8970 06a2 B6EE007A 		vmov.f32	s14, #5.0e-1
 8971 06a6 08F50066 		add	r6, r8, #2048
 8972 06aa 08F58050 		add	r0, r8, #4096
 8973 06ae B2FBF1F2 		udiv	r2, r2, r1
 8974 06b2 9A42     		cmp	r2, r3
 8975 06b4 DAD8     		bhi	.L1128
 8976 06b6 96ED000A 		vldr.32	s0, [r6]
 8977 06ba D8ED007A 		vldr.32	s15, [r8]
 8978 06be 20EE000A 		vmul.f32	s0, s0, s0
 8979 06c2 A7EEA70A 		vfma.f32	s0, s15, s15
 8980 06c6 B5EE400A 		vcmp.f32	s0, #0
 8981 06ca B1EEC08A 		vsqrt.f32	s16, s0
 8982 06ce F1EE10FA 		vmrs	APSR_nzcv, FPSCR
 8983 06d2 00F11181 		bmi	.L1052
 8984              	.L1053:
 8985 06d6 08F58053 		add	r3, r8, #4096
 8986 06da B4F5007F 		cmp	r4, #512
ARM GAS  /var/folders/lg/77ksxqjx0n7gwph6nqpzcmcw0000gn/T//ccn5JkAm.s 			page 157


 8987 06de 884A     		ldr	r2, .L1133
 8988 06e0 83ED008A 		vstr.32	s16, [r3]
 8989 06e4 01D0     		beq	.L1054
 8990 06e6 1168     		ldr	r1, [r2]
 8991 06e8 D6E7     		b	.L1086
 8992              	.L1054:
 8993 06ea 864B     		ldr	r3, .L1133+4
 8994 06ec B3EE048A 		vmov.f32	s16, #2.0e+1
 8995 06f0 854F     		ldr	r7, .L1133+8
 8996 06f2 D3ED005A 		vldr.32	s11, [r3]
 8997 06f6 854B     		ldr	r3, .L1133+12
 8998 06f8 854E     		ldr	r6, .L1133+16
 8999 06fa 03F5847B 		add	fp, r3, #264
 9000 06fe DFF83C82 		ldr	r8, .L1133+60
 9001 0702 DFF83C92 		ldr	r9, .L1133+64
 9002 0706 DFF83CA2 		ldr	r10, .L1133+68
 9003              	.L1067:
 9004 070a 824B     		ldr	r3, .L1133+20
 9005 070c 1D1F     		subs	r5, r3, #4
 9006              	.L1056:
 9007 070e 1A46     		mov	r2, r3
 9008 0710 95ED007A 		vldr.32	s14, [r5]
 9009 0714 0433     		adds	r3, r3, #4
 9010 0716 D2ED007A 		vldr.32	s15, [r2]
 9011 071a B4EE677A 		vcmp.f32	s14, s15
 9012 071e F1EE10FA 		vmrs	APSR_nzcv, FPSCR
 9013 0722 48BF     		it	mi
 9014 0724 1546     		movmi	r5, r2
 9015 0726 9E42     		cmp	r6, r3
 9016 0728 F1D1     		bne	.L1056
 9017 072a 7B4B     		ldr	r3, .L1133+24
 9018 072c D8ED007A 		vldr.32	s15, [r8]
 9019 0730 ED1A     		subs	r5, r5, r3
 9020 0732 D9F80030 		ldr	r3, [r9]
 9021 0736 AC10     		asrs	r4, r5, #2
 9022 0738 002B     		cmp	r3, #0
 9023 073a 07EE104A 		vmov	s14, r4	@ int
 9024 073e B8EEC70A 		vcvt.f32.s32	s0, s14
 9025 0742 20EE250A 		vmul.f32	s0, s0, s11
 9026 0746 60EE277A 		vmul.f32	s15, s0, s15
 9027 074a C7ED007A 		vstr.32	s15, [r7]
 9028 074e 1CDD     		ble	.L1060
 9029 0750 FDEEE77A 		vcvt.s32.f32	s15, s15
 9030 0754 714A     		ldr	r2, .L1133+28
 9031 0756 DFF8F0C1 		ldr	ip, .L1133+72
 9032 075a 4FF47A73 		mov	r3, #1000
 9033 075e 1068     		ldr	r0, [r2]
 9034 0760 8022     		movs	r2, #128
 9035 0762 17EE901A 		vmov	r1, s15	@ int
 9036 0766 03FB01F3 		mul	r3, r3, r1
 9037 076a DCF80010 		ldr	r1, [ip]
 9038 076e 0090     		str	r0, [sp]
 9039 0770 6B48     		ldr	r0, .L1133+32
 9040 0772 FFF7FEFF 		bl	_Z11findClosestPiPbiii
 9041 0776 07EE900A 		vmov	s15, r0	@ int
 9042 077a DFED6A6A 		vldr.32	s13, .L1133+36
 9043 077e F8EEE77A 		vcvt.f32.s32	s15, s15
ARM GAS  /var/folders/lg/77ksxqjx0n7gwph6nqpzcmcw0000gn/T//ccn5JkAm.s 			page 158


 9044 0782 87EEA67A 		vdiv.f32	s14, s15, s13
 9045 0786 87ED007A 		vstr.32	s14, [r7]
 9046              	.L1060:
 9047 078a 674A     		ldr	r2, .L1133+40
 9048 078c 41F25403 		movw	r3, #4180
 9049 0790 B6EE006A 		vmov.f32	s12, #5.0e-1
 9050 0794 DAED007A 		vldr.32	s15, [r10]
 9051 0798 92ED007A 		vldr.32	s14, [r2]
 9052 079c 2344     		add	r3, r3, r4
 9053 079e 5B4A     		ldr	r2, .L1133+12
 9054 07a0 F7EE006A 		vmov.f32	s13, #1.0e+0
 9055 07a4 27EE067A 		vmul.f32	s14, s14, s12
 9056 07a8 D7ED005A 		vldr.32	s11, [r7]
 9057 07ac 02EB8302 		add	r2, r2, r3, lsl #2
 9058 07b0 76EEE76A 		vsub.f32	s13, s13, s15
 9059 07b4 92ED016A 		vldr.32	s12, [r2, #4]
 9060 07b8 B4EEC86A 		vcmpe.f32	s12, s16
 9061 07bc F1EE10FA 		vmrs	APSR_nzcv, FPSCR
 9062 07c0 F4EEC75A 		vcmpe.f32	s11, s14
 9063 07c4 58BF     		it	pl
 9064 07c6 B0EE468A 		vmovpl.f32	s16, s12
 9065 07ca F1EE10FA 		vmrs	APSR_nzcv, FPSCR
 9066 07ce 86EE085A 		vdiv.f32	s10, s12, s16
 9067 07d2 E5EE267A 		vfma.f32	s15, s10, s13
 9068 07d6 C7ED067A 		vstr.32	s15, [r7, #24]
 9069 07da 02DD     		ble	.L1062
 9070 07dc 0022     		movs	r2, #0
 9071 07de 3A60     		str	r2, [r7]	@ float
 9072 07e0 BA61     		str	r2, [r7, #24]	@ float
 9073              	.L1062:
 9074 07e2 4A4A     		ldr	r2, .L1133+12
 9075 07e4 DFED518A 		vldr.32	s17, .L1133+44
 9076 07e8 02EB8303 		add	r3, r2, r3, lsl #2
 9077 07ec 0022     		movs	r2, #0
 9078 07ee 80EE280A 		vdiv.f32	s0, s0, s17
 9079 07f2 5A60     		str	r2, [r3, #4]	@ float
 9080 07f4 FFF7FEFF 		bl	log2f
 9081 07f8 9FED4D7A 		vldr.32	s14, .L1133+48
 9082 07fc F0EE407A 		vmov.f32	s15, s0
 9083 0800 B0EE476A 		vmov.f32	s12, s14
 9084 0804 F2EE080A 		vmov.f32	s1, #1.2e+1
 9085 0808 F7EE006A 		vmov.f32	s13, #1.0e+0
 9086 080c B0EE000A 		vmov.f32	s0, #2.0e+0
 9087 0810 A7EEA06A 		vfma.f32	s12, s15, s1
 9088 0814 76EE267A 		vadd.f32	s15, s12, s13
 9089 0818 FDEEE77A 		vcvt.s32.f32	s15, s15
 9090 081c F8EEE77A 		vcvt.f32.s32	s15, s15
 9091 0820 77EEC77A 		vsub.f32	s15, s15, s14
 9092 0824 C7EEA00A 		vdiv.f32	s1, s15, s1
 9093 0828 FFF7FEFF 		bl	powf
 9094 082c 07EE904A 		vmov	s15, r4	@ int
 9095 0830 344B     		ldr	r3, .L1133+4
 9096 0832 404A     		ldr	r2, .L1133+52
 9097 0834 D3ED005A 		vldr.32	s11, [r3]
 9098 0838 631E     		subs	r3, r4, #1
 9099 083a F8EE677A 		vcvt.f32.u32	s15, s15
 9100 083e D2ED004A 		vldr.32	s9, [r2]
ARM GAS  /var/folders/lg/77ksxqjx0n7gwph6nqpzcmcw0000gn/T//ccn5JkAm.s 			page 159


 9101 0842 B3F5FF7F 		cmp	r3, #510
 9102 0846 20EE280A 		vmul.f32	s0, s0, s17
 9103 084a 27EEA57A 		vmul.f32	s14, s15, s11
 9104 084e C7EE247A 		vdiv.f32	s15, s14, s9
 9105 0852 37D8     		bhi	.L1070
 9106 0854 B4EEE70A 		vcmpe.f32	s0, s15
 9107 0858 F1EE10FA 		vmrs	APSR_nzcv, FPSCR
 9108 085c 32DD     		ble	.L1070
 9109 085e 85EEA44A 		vdiv.f32	s8, s11, s9
 9110 0862 44F25412 		movw	r2, #16724
 9111 0866 41F25603 		movw	r3, #4182
 9112 086a 2849     		ldr	r1, .L1133+12
 9113 086c 2A44     		add	r2, r2, r5
 9114 086e 1B1B     		subs	r3, r3, r4
 9115 0870 0A44     		add	r2, r2, r1
 9116 0872 01EB8303 		add	r3, r1, r3, lsl #2
 9117 0876 70EE443A 		vsub.f32	s7, s0, s8
 9118              	.L1068:
 9119 087a 0134     		adds	r4, r4, #1
 9120 087c 77EEC47A 		vsub.f32	s15, s15, s8
 9121 0880 9FED2D5A 		vldr.32	s10, .L1133+56
 9122 0884 07EE104A 		vmov	s14, r4	@ int
 9123 0888 D2ED006A 		vldr.32	s13, [r2]
 9124 088c B8EEC76A 		vcvt.f32.s32	s12, s14
 9125 0890 87EEA37A 		vdiv.f32	s14, s15, s7
 9126 0894 26EE256A 		vmul.f32	s12, s12, s11
 9127 0898 C6EE247A 		vdiv.f32	s15, s12, s9
 9128 089c 37EE057A 		vadd.f32	s14, s14, s10
 9129 08a0 67EE266A 		vmul.f32	s13, s14, s13
 9130 08a4 E2EC016A 		vstmia.32	r2!, {s13}
 9131 08a8 73ED016A 		vldmdb.32	r3!, {s13}
 9132 08ac B4EE670A 		vcmp.f32	s0, s15
 9133 08b0 26EE877A 		vmul.f32	s14, s13, s14
 9134 08b4 F1EE10FA 		vmrs	APSR_nzcv, FPSCR
 9135 08b8 83ED007A 		vstr.32	s14, [r3]
 9136 08bc 02DD     		ble	.L1070
 9137 08be B4F5007F 		cmp	r4, #512
 9138 08c2 DAD3     		bcc	.L1068
 9139              	.L1070:
 9140 08c4 0437     		adds	r7, r7, #4
 9141 08c6 BB45     		cmp	fp, r7
 9142 08c8 7FF41FAF 		bne	.L1067
 9143 08cc 44F65C13 		movw	r3, #18780
 9144 08d0 0E4A     		ldr	r2, .L1133+12
 9145 08d2 D358     		ldr	r3, [r2, r3]
 9146 08d4 052B     		cmp	r3, #5
 9147 08d6 3FF784AE 		bgt	.L1049
 9148 08da 4233     		adds	r3, r3, #66
 9149 08dc 02F59071 		add	r1, r2, #288
 9150 08e0 02EB8303 		add	r3, r2, r3, lsl #2
 9151              	.L1073:
 9152 08e4 0022     		movs	r2, #0
 9153 08e6 43F8042B 		str	r2, [r3], #4	@ float
 9154 08ea 9942     		cmp	r1, r3
 9155 08ec FAD1     		bne	.L1073
 9156 08ee 78E6     		b	.L1049
 9157              	.L1124:
ARM GAS  /var/folders/lg/77ksxqjx0n7gwph6nqpzcmcw0000gn/T//ccn5JkAm.s 			page 160


 9158 08f0 06F5AA73 		add	r3, r6, #340
 9159 08f4 0493     		str	r3, [sp, #16]
 9160 08f6 8AE4     		b	.L1033
 9161              	.L1052:
 9162 08f8 FFF7FEFF 		bl	sqrtf
 9163 08fc EBE6     		b	.L1053
 9164              	.L1134:
 9165 08fe 00BF     		.align	2
 9166              	.L1133:
 9167 0900 E4490000 		.word	_ZL15spectra_oscbank+18916
 9168 0904 54490000 		.word	_ZL15spectra_oscbank+18772
 9169 0908 F0000000 		.word	_ZL15spectra_oscbank+240
 9170 090c 00000000 		.word	_ZL15spectra_oscbank
 9171 0910 54450000 		.word	_ZL15spectra_oscbank+17748
 9172 0914 58410000 		.word	_ZL15spectra_oscbank+16728
 9173 0918 54410000 		.word	_ZL15spectra_oscbank+16724
 9174 091c 00000000 		.word	.LANCHOR137
 9175 0920 00000000 		.word	.LANCHOR183
 9176 0924 00007A44 		.word	1148846080
 9177 0928 00000000 		.word	.LANCHOR26
 9178 092c 0000DC43 		.word	1138491392
 9179 0930 00008A42 		.word	1116340224
 9180 0934 00000000 		.word	.LANCHOR129
 9181 0938 00000000 		.word	0
 9182 093c 00000000 		.word	.LANCHOR0
 9183 0940 00000000 		.word	.LANCHOR138
 9184 0944 00000000 		.word	.LANCHOR130
 9185 0948 00000000 		.word	.LANCHOR139
 9187              		.section	.text.startup._GLOBAL__sub_I_versio,"ax",%progbits
 9188              		.align	1
 9189              		.p2align 2,,3
 9190              		.syntax unified
 9191              		.thumb
 9192              		.thumb_func
 9193              		.fpu fpv5-d16
 9195              	_GLOBAL__sub_I_versio:
 9196              		@ args = 0, pretend = 0, frame = 0
 9197              		@ frame_needed = 0, uses_anonymous_args = 0
 9198 0000 F8B5     		push	{r3, r4, r5, r6, r7, lr}
 9199 0002 A048     		ldr	r0, .L1153
 9200 0004 0024     		movs	r4, #0
 9201 0006 A04A     		ldr	r2, .L1153+4
 9202 0008 A049     		ldr	r1, .L1153+8
 9203 000a 4461     		str	r4, [r0, #20]
 9204 000c 0462     		str	r4, [r0, #32]
 9205 000e FFF7FEFF 		bl	__aeabi_atexit
 9206 0012 9D4A     		ldr	r2, .L1153+4
 9207 0014 9E49     		ldr	r1, .L1153+12
 9208 0016 9F48     		ldr	r0, .L1153+16
 9209 0018 FFF7FEFF 		bl	__aeabi_atexit
 9210 001c 9A4A     		ldr	r2, .L1153+4
 9211 001e 9E49     		ldr	r1, .L1153+20
 9212 0020 9E48     		ldr	r0, .L1153+24
 9213 0022 FFF7FEFF 		bl	__aeabi_atexit
 9214 0026 984A     		ldr	r2, .L1153+4
 9215 0028 9B49     		ldr	r1, .L1153+20
 9216 002a 9D48     		ldr	r0, .L1153+28
ARM GAS  /var/folders/lg/77ksxqjx0n7gwph6nqpzcmcw0000gn/T//ccn5JkAm.s 			page 161


 9217 002c FFF7FEFF 		bl	__aeabi_atexit
 9218 0030 954A     		ldr	r2, .L1153+4
 9219 0032 9C49     		ldr	r1, .L1153+32
 9220 0034 9C48     		ldr	r0, .L1153+36
 9221 0036 FFF7FEFF 		bl	__aeabi_atexit
 9222 003a 934A     		ldr	r2, .L1153+4
 9223 003c 9949     		ldr	r1, .L1153+32
 9224 003e 9B48     		ldr	r0, .L1153+40
 9225 0040 FFF7FEFF 		bl	__aeabi_atexit
 9226 0044 904A     		ldr	r2, .L1153+4
 9227 0046 9A49     		ldr	r1, .L1153+44
 9228 0048 9A48     		ldr	r0, .L1153+48
 9229 004a FFF7FEFF 		bl	__aeabi_atexit
 9230 004e 8E4A     		ldr	r2, .L1153+4
 9231 0050 9749     		ldr	r1, .L1153+44
 9232 0052 9948     		ldr	r0, .L1153+52
 9233 0054 FFF7FEFF 		bl	__aeabi_atexit
 9234 0058 8B4A     		ldr	r2, .L1153+4
 9235 005a 9849     		ldr	r1, .L1153+56
 9236 005c 9848     		ldr	r0, .L1153+60
 9237 005e FFF7FEFF 		bl	__aeabi_atexit
 9238 0062 894A     		ldr	r2, .L1153+4
 9239 0064 9549     		ldr	r1, .L1153+56
 9240 0066 9748     		ldr	r0, .L1153+64
 9241 0068 FFF7FEFF 		bl	__aeabi_atexit
 9242 006c 864A     		ldr	r2, .L1153+4
 9243 006e 9649     		ldr	r1, .L1153+68
 9244 0070 9648     		ldr	r0, .L1153+72
 9245 0072 FFF7FEFF 		bl	__aeabi_atexit
 9246 0076 844A     		ldr	r2, .L1153+4
 9247 0078 9549     		ldr	r1, .L1153+76
 9248 007a 2046     		mov	r0, r4
 9249 007c FFF7FEFF 		bl	__aeabi_atexit
 9250 0080 814A     		ldr	r2, .L1153+4
 9251 0082 9449     		ldr	r1, .L1153+80
 9252 0084 9448     		ldr	r0, .L1153+84
 9253 0086 FFF7FEFF 		bl	__aeabi_atexit
 9254 008a 7F4A     		ldr	r2, .L1153+4
 9255 008c 9149     		ldr	r1, .L1153+80
 9256 008e 9348     		ldr	r0, .L1153+88
 9257 0090 FFF7FEFF 		bl	__aeabi_atexit
 9258 0094 7C4A     		ldr	r2, .L1153+4
 9259 0096 8F49     		ldr	r1, .L1153+80
 9260 0098 9148     		ldr	r0, .L1153+92
 9261 009a FFF7FEFF 		bl	__aeabi_atexit
 9262 009e 7A4A     		ldr	r2, .L1153+4
 9263 00a0 8C49     		ldr	r1, .L1153+80
 9264 00a2 9048     		ldr	r0, .L1153+96
 9265 00a4 FFF7FEFF 		bl	__aeabi_atexit
 9266 00a8 774A     		ldr	r2, .L1153+4
 9267 00aa 8A49     		ldr	r1, .L1153+80
 9268 00ac 8E48     		ldr	r0, .L1153+100
 9269 00ae FFF7FEFF 		bl	__aeabi_atexit
 9270 00b2 754A     		ldr	r2, .L1153+4
 9271 00b4 8749     		ldr	r1, .L1153+80
 9272 00b6 8D48     		ldr	r0, .L1153+104
 9273 00b8 FFF7FEFF 		bl	__aeabi_atexit
ARM GAS  /var/folders/lg/77ksxqjx0n7gwph6nqpzcmcw0000gn/T//ccn5JkAm.s 			page 162


 9274 00bc 724A     		ldr	r2, .L1153+4
 9275 00be 8549     		ldr	r1, .L1153+80
 9276 00c0 8B48     		ldr	r0, .L1153+108
 9277 00c2 FFF7FEFF 		bl	__aeabi_atexit
 9278 00c6 704A     		ldr	r2, .L1153+4
 9279 00c8 8A49     		ldr	r1, .L1153+112
 9280 00ca 8B48     		ldr	r0, .L1153+116
 9281 00cc FFF7FEFF 		bl	__aeabi_atexit
 9282 00d0 6D4A     		ldr	r2, .L1153+4
 9283 00d2 8849     		ldr	r1, .L1153+112
 9284 00d4 8948     		ldr	r0, .L1153+120
 9285 00d6 FFF7FEFF 		bl	__aeabi_atexit
 9286 00da 6B4A     		ldr	r2, .L1153+4
 9287 00dc 8549     		ldr	r1, .L1153+112
 9288 00de 8848     		ldr	r0, .L1153+124
 9289 00e0 FFF7FEFF 		bl	__aeabi_atexit
 9290 00e4 8349     		ldr	r1, .L1153+112
 9291 00e6 684A     		ldr	r2, .L1153+4
 9292 00e8 8648     		ldr	r0, .L1153+128
 9293 00ea FFF7FEFF 		bl	__aeabi_atexit
 9294 00ee 864A     		ldr	r2, .L1153+132
 9295 00f0 864B     		ldr	r3, .L1153+136
 9296 00f2 1268     		ldr	r2, [r2]
 9297 00f4 8648     		ldr	r0, .L1153+140
 9298 00f6 1A60     		str	r2, [r3]
 9299 00f8 FFF7FEFF 		bl	_ZNSt7__cxx1112basic_stringIcSt11char_traitsIcESaIcEEC2EPKcRKS3_.isra.0.constprop.0
 9300 00fc 624A     		ldr	r2, .L1153+4
 9301 00fe 8549     		ldr	r1, .L1153+144
 9302 0100 8348     		ldr	r0, .L1153+140
 9303 0102 FFF7FEFF 		bl	__aeabi_atexit
 9304 0106 8448     		ldr	r0, .L1153+148
 9305 0108 FFF7FEFF 		bl	_ZNSt7__cxx1112basic_stringIcSt11char_traitsIcESaIcEEC2EPKcRKS3_.isra.0.constprop.0
 9306 010c 5E4A     		ldr	r2, .L1153+4
 9307 010e 8149     		ldr	r1, .L1153+144
 9308 0110 8148     		ldr	r0, .L1153+148
 9309 0112 FFF7FEFF 		bl	__aeabi_atexit
 9310 0116 8148     		ldr	r0, .L1153+152
 9311 0118 FFF7FEFF 		bl	_ZNSt7__cxx1112basic_stringIcSt11char_traitsIcESaIcEEC2EPKcRKS3_.isra.0.constprop.0
 9312 011c 5A4A     		ldr	r2, .L1153+4
 9313 011e 7D49     		ldr	r1, .L1153+144
 9314 0120 7E48     		ldr	r0, .L1153+152
 9315 0122 FFF7FEFF 		bl	__aeabi_atexit
 9316 0126 7E48     		ldr	r0, .L1153+156
 9317 0128 FFF7FEFF 		bl	_ZNSt7__cxx1112basic_stringIcSt11char_traitsIcESaIcEEC2EPKcRKS3_.isra.0.constprop.0
 9318 012c 564A     		ldr	r2, .L1153+4
 9319 012e 7949     		ldr	r1, .L1153+144
 9320 0130 7B48     		ldr	r0, .L1153+156
 9321 0132 FFF7FEFF 		bl	__aeabi_atexit
 9322 0136 7B48     		ldr	r0, .L1153+160
 9323 0138 534A     		ldr	r2, .L1153+4
 9324 013a 00F10803 		add	r3, r0, #8
 9325 013e 7549     		ldr	r1, .L1153+144
 9326 0140 4460     		str	r4, [r0, #4]
 9327 0142 0360     		str	r3, [r0]
 9328 0144 0472     		strb	r4, [r0, #8]
 9329 0146 FFF7FEFF 		bl	__aeabi_atexit
 9330 014a 774B     		ldr	r3, .L1153+164
ARM GAS  /var/folders/lg/77ksxqjx0n7gwph6nqpzcmcw0000gn/T//ccn5JkAm.s 			page 163


 9331 014c 1A46     		mov	r2, r3
 9332 014e 03F1C001 		add	r1, r3, #192
 9333              	.L1136:
 9334 0152 0020     		movs	r0, #0
 9335 0154 42F8040B 		str	r0, [r2], #4	@ float
 9336 0158 8A42     		cmp	r2, r1
 9337 015a FAD1     		bne	.L1136
 9338 015c 0024     		movs	r4, #0
 9339 015e 4A4A     		ldr	r2, .L1153+4
 9340 0160 7249     		ldr	r1, .L1153+168
 9341 0162 C3F8C040 		str	r4, [r3, #192]
 9342 0166 7048     		ldr	r0, .L1153+164
 9343 0168 FFF7FEFF 		bl	__aeabi_atexit
 9344 016c 704B     		ldr	r3, .L1153+172
 9345 016e 1A46     		mov	r2, r3
 9346 0170 03F1C001 		add	r1, r3, #192
 9347              	.L1137:
 9348 0174 0020     		movs	r0, #0
 9349 0176 42F8040B 		str	r0, [r2], #4	@ float
 9350 017a 8A42     		cmp	r2, r1
 9351 017c FAD1     		bne	.L1137
 9352 017e 0024     		movs	r4, #0
 9353 0180 414A     		ldr	r2, .L1153+4
 9354 0182 6A49     		ldr	r1, .L1153+168
 9355 0184 C3F8C040 		str	r4, [r3, #192]
 9356 0188 6948     		ldr	r0, .L1153+172
 9357 018a FFF7FEFF 		bl	__aeabi_atexit
 9358 018e 694B     		ldr	r3, .L1153+176
 9359 0190 1A46     		mov	r2, r3
 9360 0192 03F1C001 		add	r1, r3, #192
 9361              	.L1138:
 9362 0196 0020     		movs	r0, #0
 9363 0198 42F8040B 		str	r0, [r2], #4	@ float
 9364 019c 8A42     		cmp	r2, r1
 9365 019e FAD1     		bne	.L1138
 9366 01a0 0024     		movs	r4, #0
 9367 01a2 394A     		ldr	r2, .L1153+4
 9368 01a4 6149     		ldr	r1, .L1153+168
 9369 01a6 C3F8C040 		str	r4, [r3, #192]
 9370 01aa 6248     		ldr	r0, .L1153+176
 9371 01ac FFF7FEFF 		bl	__aeabi_atexit
 9372 01b0 614B     		ldr	r3, .L1153+180
 9373 01b2 1A46     		mov	r2, r3
 9374 01b4 03F1C001 		add	r1, r3, #192
 9375              	.L1139:
 9376 01b8 0024     		movs	r4, #0
 9377 01ba 42F8044B 		str	r4, [r2], #4	@ float
 9378 01be 8A42     		cmp	r2, r1
 9379 01c0 FAD1     		bne	.L1139
 9380 01c2 0025     		movs	r5, #0
 9381 01c4 304A     		ldr	r2, .L1153+4
 9382 01c6 5949     		ldr	r1, .L1153+168
 9383 01c8 4FF07E56 		mov	r6, #1065353216
 9384 01cc C3F8C050 		str	r5, [r3, #192]
 9385 01d0 5948     		ldr	r0, .L1153+180
 9386 01d2 FFF7FEFF 		bl	__aeabi_atexit
 9387 01d6 5949     		ldr	r1, .L1153+184
ARM GAS  /var/folders/lg/77ksxqjx0n7gwph6nqpzcmcw0000gn/T//ccn5JkAm.s 			page 164


 9388 01d8 594B     		ldr	r3, .L1153+188
 9389 01da 44F65C10 		movw	r0, #18780
 9390 01de 0F68     		ldr	r7, [r1]
 9391 01e0 44F6701C 		movw	ip, #18800
 9392 01e4 44F67411 		movw	r1, #18804
 9393 01e8 D3F85021 		ldr	r2, [r3, #336]
 9394 01ec 1F50     		str	r7, [r3, r0]
 9395 01ee 44F6E410 		movw	r0, #18916
 9396 01f2 5D50     		str	r5, [r3, r1]
 9397 01f4 511C     		adds	r1, r2, #1
 9398 01f6 43F80C50 		str	r5, [r3, ip]
 9399 01fa 0825     		movs	r5, #8
 9400 01fc 0B32     		adds	r2, r2, #11
 9401 01fe 1D50     		str	r5, [r3, r0]
 9402 0200 5048     		ldr	r0, .L1153+192
 9403 0202 0660     		str	r6, [r0]	@ float
 9404 0204 40F8144C 		str	r4, [r0, #-20]	@ float
 9405 0208 40F8084C 		str	r4, [r0, #-8]	@ float
 9406              	.L1140:
 9407 020c 0C46     		mov	r4, r1
 9408 020e 0131     		adds	r1, r1, #1
 9409 0210 9142     		cmp	r1, r2
 9410 0212 FBD1     		bne	.L1140
 9411 0214 1C4A     		ldr	r2, .L1153+4
 9412 0216 4C49     		ldr	r1, .L1153+196
 9413 0218 C3F85041 		str	r4, [r3, #336]
 9414 021c 4848     		ldr	r0, .L1153+188
 9415 021e FFF7FEFF 		bl	__aeabi_atexit
 9416 0222 4A4B     		ldr	r3, .L1153+200
 9417 0224 1A46     		mov	r2, r3
 9418 0226 03F1C001 		add	r1, r3, #192
 9419              	.L1141:
 9420 022a 0020     		movs	r0, #0
 9421 022c 42F8040B 		str	r0, [r2], #4	@ float
 9422 0230 8A42     		cmp	r2, r1
 9423 0232 FAD1     		bne	.L1141
 9424 0234 0024     		movs	r4, #0
 9425 0236 144A     		ldr	r2, .L1153+4
 9426 0238 3C49     		ldr	r1, .L1153+168
 9427 023a C3F8C040 		str	r4, [r3, #192]
 9428 023e 4348     		ldr	r0, .L1153+200
 9429 0240 FFF7FEFF 		bl	__aeabi_atexit
 9430 0244 424A     		ldr	r2, .L1153+204
 9431 0246 02F13000 		add	r0, r2, #48
 9432 024a 1346     		mov	r3, r2
 9433              	.L1142:
 9434 024c 0021     		movs	r1, #0
 9435 024e 0C33     		adds	r3, r3, #12
 9436 0250 5963     		str	r1, [r3, #52]	@ float
 9437 0252 9963     		str	r1, [r3, #56]	@ float
 9438 0254 D963     		str	r1, [r3, #60]	@ float
 9439 0256 9842     		cmp	r0, r3
 9440 0258 F8D1     		bne	.L1142
 9441 025a 3E48     		ldr	r0, .L1153+208
 9442 025c A0F11003 		sub	r3, r0, #16
 9443              	.L1143:
 9444 0260 0021     		movs	r1, #0
ARM GAS  /var/folders/lg/77ksxqjx0n7gwph6nqpzcmcw0000gn/T//ccn5JkAm.s 			page 165


 9445 0262 4FF0FF34 		mov	r4, #-1
 9446 0266 0C33     		adds	r3, r3, #12
 9447 0268 5960     		str	r1, [r3, #4]	@ float
 9448 026a 9960     		str	r1, [r3, #8]	@ float
 9449 026c D960     		str	r1, [r3, #12]	@ float
 9450 026e 42F8044B 		str	r4, [r2], #4
 9451 0272 8242     		cmp	r2, r0
 9452 0274 F4D1     		bne	.L1143
 9453 0276 044A     		ldr	r2, .L1153+4
 9454 0278 3749     		ldr	r1, .L1153+212
 9455 027a 3548     		ldr	r0, .L1153+204
 9456 027c BDE8F840 		pop	{r3, r4, r5, r6, r7, lr}
 9457 0280 FFF7FEBF 		b	__aeabi_atexit
 9458              	.L1154:
 9459              		.align	2
 9460              	.L1153:
 9461 0284 00000000 		.word	.LANCHOR78
 9462 0288 00000000 		.word	__dso_handle
 9463 028c 00000000 		.word	_ZN5daisy11DaisyVersioD1Ev
 9464 0290 00000000 		.word	_ZN7daisysp8ReverbScD1Ev
 9465 0294 00000000 		.word	_ZL3rev
 9466 0298 00000000 		.word	_ZN7daisysp9DelayLineIfLj120000EED1Ev
 9467 029c 0C73C602 		.word	_ZL4dell
 9468 02a0 0020BF02 		.word	_ZL4delr
 9469 02a4 00000000 		.word	_ZN7daisysp3SvfD1Ev
 9470 02a8 00000000 		.word	.LANCHOR37
 9471 02ac 00000000 		.word	.LANCHOR39
 9472 02b0 00000000 		.word	_ZN6stmlib3SvfD1Ev
 9473 02b4 00000000 		.word	.LANCHOR47
 9474 02b8 00000000 		.word	.LANCHOR49
 9475 02bc 00000000 		.word	_ZN7daisysp4ToneD1Ev
 9476 02c0 00000000 		.word	.LANCHOR36
 9477 02c4 00000000 		.word	.LANCHOR38
 9478 02c8 00000000 		.word	_ZN7daisysp6BiquadD1Ev
 9479 02cc 00000000 		.word	.LANCHOR79
 9480 02d0 00000000 		.word	__tcf_0
 9481 02d4 00000000 		.word	_ZN5daisy9ParameterD1Ev
 9482 02d8 00000000 		.word	.LANCHOR94
 9483 02dc 00000000 		.word	.LANCHOR95
 9484 02e0 00000000 		.word	.LANCHOR184
 9485 02e4 00000000 		.word	.LANCHOR185
 9486 02e8 00000000 		.word	.LANCHOR84
 9487 02ec 00000000 		.word	.LANCHOR85
 9488 02f0 00000000 		.word	.LANCHOR86
 9489 02f4 00000000 		.word	_ZN7daisysp7DcBlockD1Ev
 9490 02f8 00000000 		.word	.LANCHOR44
 9491 02fc 00000000 		.word	.LANCHOR45
 9492 0300 00000000 		.word	.LANCHOR80
 9493 0304 00000000 		.word	.LANCHOR81
 9494 0308 00000000 		.word	.LANCHOR9
 9495 030c 00000000 		.word	.LANCHOR118
 9496 0310 00000000 		.word	.LANCHOR100
 9497 0314 00000000 		.word	_ZNSt7__cxx1112basic_stringIcSt11char_traitsIcESaIcEED1Ev
 9498 0318 00000000 		.word	.LANCHOR102
 9499 031c 00000000 		.word	.LANCHOR105
 9500 0320 00000000 		.word	.LANCHOR108
 9501 0324 00000000 		.word	.LANCHOR1
ARM GAS  /var/folders/lg/77ksxqjx0n7gwph6nqpzcmcw0000gn/T//ccn5JkAm.s 			page 166


 9502 0328 00000000 		.word	.LANCHOR53
 9503 032c 00000000 		.word	_ZN8AveragerD1Ev
 9504 0330 00000000 		.word	.LANCHOR15
 9505 0334 00000000 		.word	.LANCHOR177
 9506 0338 00000000 		.word	.LANCHOR32
 9507 033c 00000000 		.word	.LANCHOR128
 9508 0340 00000000 		.word	_ZL15spectra_oscbank
 9509 0344 6C490000 		.word	_ZL15spectra_oscbank+18796
 9510 0348 00000000 		.word	_ZN7OscBankD1Ev
 9511 034c 00000000 		.word	.LANCHOR186
 9512 0350 00000000 		.word	.LANCHOR18
 9513 0354 10000000 		.word	.LANCHOR18+16
 9514 0358 00000000 		.word	_ZN11LedsControlD1Ev
 9516              		.section	.init_array,"aw",%init_array
 9517              		.align	2
 9518 0000 00000000 		.word	_GLOBAL__sub_I_versio(target1)
 9519              		.weak	_ZN6ShyFFTIfLj1024E14RotationPhasorE16bit_rev_256_lut_E
 9520              		.section	.rodata._ZN6ShyFFTIfLj1024E14RotationPhasorE16bit_rev_256_lut_E,"aG",%progbits,_ZN6ShyFFT
 9521              		.align	2
 9524              	_ZN6ShyFFTIfLj1024E14RotationPhasorE16bit_rev_256_lut_E:
 9525 0000 008040C0 		.ascii	"\000\200@\300 \240`\340\020\220P\3200\260p\360\010\210"
 9525      20A060E0 
 9525      109050D0 
 9525      30B070F0 
 9525      0888
 9526 0012 48C828A8 		.ascii	"H\310(\250h\350\030\230X\3308\270x\370\004\204D\304"
 9526      68E81898 
 9526      58D838B8 
 9526      78F80484 
 9526      44C4
 9527 0024 24A464E4 		.ascii	"$\244d\344\024\224T\3244\264t\364\014\214L\314,\254"
 9527      149454D4 
 9527      34B474F4 
 9527      0C8C4CCC 
 9527      2CAC
 9528 0036 6CEC1C9C 		.ascii	"l\354\034\234\\\334<\274|\374\002\202B\302\"\242b\342"
 9528      5CDC3CBC 
 9528      7CFC0282 
 9528      42C222A2 
 9528      62E2
 9529 0048 129252D2 		.ascii	"\022\222R\3222\262r\362\012\212J\312*\252j\352\032\232"
 9529      32B272F2 
 9529      0A8A4ACA 
 9529      2AAA6AEA 
 9529      1A9A
 9530 005a 5ADA3ABA 		.ascii	"Z\332:\272z\372\006\206F\306&\246f\346\026\226V\326"
 9530      7AFA0686 
 9530      46C626A6 
 9530      66E61696 
 9530      56D6
 9531 006c 36B676F6 		.ascii	"6\266v\366\016\216N\316.\256n\356\036\236^\336>\276"
 9531      0E8E4ECE 
 9531      2EAE6EEE 
 9531      1E9E5EDE 
 9531      3EBE
 9532 007e 7EFE0181 		.ascii	"~\376\001\201A\301!\241a\341\021\221Q\3211\261q\361"
 9532      41C121A1 
ARM GAS  /var/folders/lg/77ksxqjx0n7gwph6nqpzcmcw0000gn/T//ccn5JkAm.s 			page 167


 9532      61E11191 
 9532      51D131B1 
 9532      71F1
 9533 0090 098949C9 		.ascii	"\011\211I\311)\251i\351\031\231Y\3319\271y\371\005\205"
 9533      29A969E9 
 9533      199959D9 
 9533      39B979F9 
 9533      0585
 9534 00a2 45C525A5 		.ascii	"E\305%\245e\345\025\225U\3255\265u\365\015\215M\315"
 9534      65E51595 
 9534      55D535B5 
 9534      75F50D8D 
 9534      4DCD
 9535 00b4 2DAD6DED 		.ascii	"-\255m\355\035\235]\335=\275}\375\003\203C\303#\243"
 9535      1D9D5DDD 
 9535      3DBD7DFD 
 9535      038343C3 
 9535      23A3
 9536 00c6 63E31393 		.ascii	"c\343\023\223S\3233\263s\363\013\213K\313+\253k\353"
 9536      53D333B3 
 9536      73F30B8B 
 9536      4BCB2BAB 
 9536      6BEB
 9537 00d8 1B9B5BDB 		.ascii	"\033\233[\333;\273{\373\007\207G\307'\247g\347\027\227"
 9537      3BBB7BFB 
 9537      078747C7 
 9537      27A767E7 
 9537      1797
 9538 00ea 57D737B7 		.ascii	"W\3277\267w\367\017\217O\317/\257o\357\037\237_\337"
 9538      77F70F8F 
 9538      4FCF2FAF 
 9538      6FEF1F9F 
 9538      5FDF
 9539 00fc 3FBF7FFF 		.ascii	"?\277\177\377"
 9540              		.global	spectrings_pan_spread
 9541              		.global	spectrings_decay_amount
 9542              		.global	spectrings_accent_amount
 9543              		.global	spectrings_attack_last_step
 9544              		.global	spectrings_attack_step
 9545              		.global	spectrings_drywet
 9546              		.global	spectrings_trigger_next_cycle
 9547              		.global	spectrings_current_voice
 9548              		.global	spectrings_active_voices
 9549              		.global	spectrings_num_models
 9550              		.global	spectra_selected_scale
 9551              		.global	spectra_quantize
 9552              		.global	spectra_transpose
 9553              		.global	spectra_rotate_harmonics
 9554              		.global	spectra_spread
 9555              		.global	spectra_target_RMS
 9556              		.global	spectra_current_RMS
 9557              		.global	spectra_rmsCount
 9558              		.global	spectra_do_analisys
 9559              		.global	spectra_reverb_amount
 9560              		.global	_Z18spectra_oct_stringB5cxx11
 9561              		.global	spectra_oct_mult
 9562              		.global	spectra_lower_harmonics
ARM GAS  /var/folders/lg/77ksxqjx0n7gwph6nqpzcmcw0000gn/T//ccn5JkAm.s 			page 168


 9563              		.global	spectra_drywet
 9564              		.global	spectra_hop
 9565              		.global	spectra_oct
 9566              		.global	spectra_num_active
 9567              		.global	spectra_prev_knob_wave_knob
 9568              		.global	spectra_b
 9569              		.global	spectra_g
 9570              		.global	spectra_r
 9571              		.global	spectra_waveform
 9572              		.global	delay_fast_feedback_RMS
 9573              		.global	delay_feedback_RMS
 9574              		.global	delay_target_RMS
 9575              		.global	delay_rmsCount
 9576              		.global	delay_spike_counter_r
 9577              		.global	delay_spike_counter_l
 9578              		.global	delay_reduce_spikes_r
 9579              		.global	delay_reduce_spikes_l
 9580              		.global	delay_prev_sample_r
 9581              		.global	delay_prev_sample_l
 9582              		.global	delay_frozen
 9583              		.global	delay_drywet
 9584              		.global	delay_cutoff
 9585              		.global	delay_target_cutoff
 9586              		.global	delay_frozen_pos
 9587              		.global	delay_frozen_end
 9588              		.global	delay_frozen_start
 9589              		.global	delay_xfade_target
 9590              		.global	delay_xfade_current
 9591              		.global	delay_inactive
 9592              		.global	delay_active
 9593              		.global	delay_main_counter
 9594              		.global	delay_right_counter_4
 9595              		.global	delay_left_counter_4
 9596              		.global	delay_right_counter
 9597              		.global	delay_left_counter
 9598              		.global	delay_outr
 9599              		.global	delay_outl
 9600              		.global	delay_time
 9601              		.global	delay_pos_r
 9602              		.global	delay_pos_l
 9603              		.global	delay_control_latency_ms
 9604              		.global	delay_time_trig
 9605              		.global	delay_control_counter
 9606              		.global	delay_write_pos
 9607              		.global	delay_time_count
 9608              		.global	delay_feedback
 9609              		.global	delay_mult_r
 9610              		.global	delay_mult_l
 9611              		.global	_Z27mlooper_play_speed_string_2B5cxx11
 9612              		.global	_Z27mlooper_play_speed_string_1B5cxx11
 9613              		.global	mlooper_volume_att_2
 9614              		.global	mlooper_volume_att_1
 9615              		.global	mlooper_play_speed_2
 9616              		.global	mlooper_play_speed_1
 9617              		.global	_Z25mlooper_division_string_2B5cxx11
 9618              		.global	_Z25mlooper_division_string_1B5cxx11
 9619              		.global	mlooper_division_2
ARM GAS  /var/folders/lg/77ksxqjx0n7gwph6nqpzcmcw0000gn/T//ccn5JkAm.s 			page 169


 9620              		.global	mlooper_division_1
 9621              		.global	mlooper_writer_outside_pos
 9622              		.global	mlooper_writer_pos
 9623              		.global	mlooper_frozen
 9624              		.global	mlooper_frozen_len
 9625              		.global	mlooper_frozen_pos_2
 9626              		.global	mlooper_frozen_pos_1
 9627              		.global	mlooper_drywet
 9628              		.global	mlooper_len_count
 9629              		.global	mlooper_len
 9630              		.global	mlooper_frozen_buf_1r
 9631              		.global	mlooper_frozen_buf_1l
 9632              		.global	mlooper_buf_1r
 9633              		.global	mlooper_buf_1l
 9634              		.global	modified_frozen_buffer_length_r
 9635              		.global	modified_frozen_buffer_length_l
 9636              		.global	modified_buffer_length_r
 9637              		.global	modified_buffer_length_l
 9638              		.global	mlooper_pos_2
 9639              		.global	mlooper_pos_1
 9640              		.global	mlooper_play
 9641              		.global	lofi_lpg_decay
 9642              		.global	lofi_lpg_amount
 9643              		.global	lofi_drywet
 9644              		.global	lofi_current_right_saturation
 9645              		.global	lofi_current_left_saturation
 9646              		.global	lofi_previous_right_saturation
 9647              		.global	lofi_previous_left_saturation
 9648              		.global	global_sample_rate
 9649              		.global	lofi_previous_variable_compressor
 9650              		.global	lofi_current_Lofi_LFO_Freq
 9651              		.global	lofi_target_Lofi_LFO_Freq
 9652              		.global	lofi_cutoff
 9653              		.global	lofi_rmsCount
 9654              		.global	lofi_rate_count
 9655              		.global	lofi_mod
 9656              		.global	lofi_depth
 9657              		.global	lofi_damp_speed
 9658              		.global	lofi_target_RMS
 9659              		.global	lofi_current_RMS
 9660              		.global	filter_current_r_freq
 9661              		.global	filter_current_l_freq
 9662              		.global	filter_target_r_freq
 9663              		.global	filter_target_l_freq
 9664              		.global	filter_path
 9665              		.global	filter_mode_r
 9666              		.global	filter_mode_l
 9667              		.global	resonator_glide_mode
 9668              		.global	resonator_glide
 9669              		.global	resonator_octave
 9670              		.global	resonator_drywet
 9671              		.global	resonator_target
 9672              		.global	resonator_feedback
 9673              		.global	resonator_current_delay
 9674              		.global	resonator_feedback_RMS
 9675              		.global	resonator_target_RMS
 9676              		.global	resonator_current_RMS
ARM GAS  /var/folders/lg/77ksxqjx0n7gwph6nqpzcmcw0000gn/T//ccn5JkAm.s 			page 170


 9677              		.global	resonator_previous_r
 9678              		.global	resonator_previous_l
 9679              		.global	resonator_rmsCount
 9680              		.global	target_resonator_feedback
 9681              		.global	resonator_current_regen
 9682              		.global	resonator_feedback_display
 9683              		.global	resonator_tone
 9684              		.global	resonator_note
 9685              		.global	reverb_compression
 9686              		.global	reverb_target_compression
 9687              		.global	reverb_feedback_RMS
 9688              		.global	reverb_target_RMS
 9689              		.global	reverb_current_RMS
 9690              		.global	reverb_rmsCount
 9691              		.global	reverb_feedback_display
 9692              		.global	reverb_current_outr
 9693              		.global	reverb_current_outl
 9694              		.global	reverb_previous_inr
 9695              		.global	reverb_previous_inl
 9696              		.global	reverb_shimmer_buffer_size2
 9697              		.global	reverb_shimmer_buffer_size1r
 9698              		.global	reverb_shimmer_buffer_size1l
 9699              		.global	reverb_shimmer_play_pos2
 9700              		.global	reverb_shimmer_play_pos1r
 9701              		.global	reverb_shimmer_play_pos1l
 9702              		.global	reverb_shimmer_write_pos2
 9703              		.global	reverb_shimmer_write_pos1r
 9704              		.global	reverb_shimmer_write_pos1l
 9705              		.global	reverb_shimmer
 9706              		.global	reverb_lowpass
 9707              		.global	reverb_feedback
 9708              		.global	reverb_drywet
 9709              		.global	attack_lut
 9710              		.global	previous_mode
 9711              		.global	mode
 9712              		.global	scale_1
 9713              		.global	scale_2
 9714              		.global	scale_3
 9715              		.global	scale_4
 9716              		.global	scale_5
 9717              		.global	scale_6
 9718              		.global	scale_7
 9719              		.global	scale_12
 9720              		.global	CHRM_SCALE
 9721              		.global	modes
 9722              		.section	.rodata.str1.4,"aMS",%progbits,1
 9723              		.align	2
 9724              	.LC10:
 9725 0000 52657665 		.ascii	"Reverb\000"
 9725      726200
 9726 0007 00       		.align	2
 9727              	.LC11:
 9728 0008 5265736F 		.ascii	"Resonator\000"
 9728      6E61746F 
 9728      7200
 9729 0012 0000     		.align	2
 9730              	.LC12:
ARM GAS  /var/folders/lg/77ksxqjx0n7gwph6nqpzcmcw0000gn/T//ccn5JkAm.s 			page 171


 9731 0014 46696C74 		.ascii	"Filter\000"
 9731      657200
 9732 001b 00       		.align	2
 9733              	.LC13:
 9734 001c 4C4F2D46 		.ascii	"LO-FI\000"
 9734      4900
 9735 0022 0000     		.align	2
 9736              	.LC14:
 9737 0024 4D696372 		.ascii	"MicroLooper\000"
 9737      6F4C6F6F 
 9737      70657200 
 9738              		.align	2
 9739              	.LC15:
 9740 0030 44656C61 		.ascii	"Delay\000"
 9740      7900
 9741 0036 0000     		.align	2
 9742              	.LC16:
 9743 0038 53706563 		.ascii	"Spectra\000"
 9743      74726100 
 9744              		.align	2
 9745              	.LC17:
 9746 0040 53706563 		.ascii	"Spectrings\000"
 9746      7472696E 
 9746      677300
 9747 004b 00       		.align	2
 9748              	.LC18:
 9749 004c 4E617475 		.ascii	"Natural Gate\000"
 9749      72616C20 
 9749      47617465 
 9749      00
 9750              		.global	versio
 9751              		.section	.bss._Z18spectra_oct_stringB5cxx11,"aw",%nobits
 9752              		.align	2
 9753              		.set	.LANCHOR1,. + 0
 9756              	_Z18spectra_oct_stringB5cxx11:
 9757 0000 00000000 		.space	24
 9757      00000000 
 9757      00000000 
 9757      00000000 
 9757      00000000 
 9758              		.section	.bss._Z25mlooper_division_string_1B5cxx11,"aw",%nobits
 9759              		.align	2
 9760              		.set	.LANCHOR100,. + 0
 9763              	_Z25mlooper_division_string_1B5cxx11:
 9764 0000 00000000 		.space	24
 9764      00000000 
 9764      00000000 
 9764      00000000 
 9764      00000000 
 9765              		.section	.bss._Z25mlooper_division_string_2B5cxx11,"aw",%nobits
 9766              		.align	2
 9767              		.set	.LANCHOR102,. + 0
 9770              	_Z25mlooper_division_string_2B5cxx11:
 9771 0000 00000000 		.space	24
 9771      00000000 
 9771      00000000 
 9771      00000000 
ARM GAS  /var/folders/lg/77ksxqjx0n7gwph6nqpzcmcw0000gn/T//ccn5JkAm.s 			page 172


 9771      00000000 
 9772              		.section	.bss._Z27mlooper_play_speed_string_1B5cxx11,"aw",%nobits
 9773              		.align	2
 9774              		.set	.LANCHOR105,. + 0
 9777              	_Z27mlooper_play_speed_string_1B5cxx11:
 9778 0000 00000000 		.space	24
 9778      00000000 
 9778      00000000 
 9778      00000000 
 9778      00000000 
 9779              		.section	.bss._Z27mlooper_play_speed_string_2B5cxx11,"aw",%nobits
 9780              		.align	2
 9781              		.set	.LANCHOR108,. + 0
 9784              	_Z27mlooper_play_speed_string_2B5cxx11:
 9785 0000 00000000 		.space	24
 9785      00000000 
 9785      00000000 
 9785      00000000 
 9785      00000000 
 9786              		.section	.bss._ZL10dcblock_2l,"aw",%nobits
 9787              		.align	2
 9788              		.set	.LANCHOR80,. + 0
 9791              	_ZL10dcblock_2l:
 9792 0000 00000000 		.space	12
 9792      00000000 
 9792      00000000 
 9793              		.section	.bss._ZL10dcblock_2r,"aw",%nobits
 9794              		.align	2
 9795              		.set	.LANCHOR81,. + 0
 9798              	_ZL10dcblock_2r:
 9799 0000 00000000 		.space	12
 9799      00000000 
 9799      00000000 
 9800              		.section	.bss._ZL12string_voice,"aw",%nobits
 9801              		.align	2
 9804              	_ZL12string_voice:
 9805 0000 00000000 		.space	10696
 9805      00000000 
 9805      00000000 
 9805      00000000 
 9805      00000000 
 9806              		.section	.bss._ZL13lofi_averager,"aw",%nobits
 9807              		.align	2
 9808              		.set	.LANCHOR53,. + 0
 9811              	_ZL13lofi_averager:
 9812 0000 00000000 		.space	196
 9812      00000000 
 9812      00000000 
 9812      00000000 
 9812      00000000 
 9813              		.section	.bss._ZL13lofi_rate_par,"aw",%nobits
 9814              		.align	2
 9815              		.set	.LANCHOR95,. + 0
 9818              	_ZL13lofi_rate_par:
 9819 0000 00000000 		.space	52
 9819      00000000 
 9819      00000000 
ARM GAS  /var/folders/lg/77ksxqjx0n7gwph6nqpzcmcw0000gn/T//ccn5JkAm.s 			page 173


 9819      00000000 
 9819      00000000 
 9820              		.section	.bss._ZL13lofi_tone_par,"aw",%nobits
 9821              		.align	2
 9822              		.set	.LANCHOR94,. + 0
 9825              	_ZL13lofi_tone_par:
 9826 0000 00000000 		.space	52
 9826      00000000 
 9826      00000000 
 9826      00000000 
 9826      00000000 
 9827              		.section	.bss._ZL14delay_averager,"aw",%nobits
 9828              		.align	2
 9829              		.set	.LANCHOR177,. + 0
 9832              	_ZL14delay_averager:
 9833 0000 00000000 		.space	196
 9833      00000000 
 9833      00000000 
 9833      00000000 
 9833      00000000 
 9834              		.section	.bss._ZL15reverb_averager,"aw",%nobits
 9835              		.align	2
 9836              		.set	.LANCHOR15,. + 0
 9839              	_ZL15reverb_averager:
 9840 0000 00000000 		.space	196
 9840      00000000 
 9840      00000000 
 9840      00000000 
 9840      00000000 
 9841              		.section	.bss._ZL15spectra_oscbank,"aw",%nobits
 9842              		.align	2
 9845              	_ZL15spectra_oscbank:
 9846 0000 00000000 		.space	18920
 9846      00000000 
 9846      00000000 
 9846      00000000 
 9846      00000000 
 9847              		.section	.bss._ZL16delay_cutoff_par,"aw",%nobits
 9848              		.align	2
 9849              		.set	.LANCHOR86,. + 0
 9852              	_ZL16delay_cutoff_par:
 9853 0000 00000000 		.space	52
 9853      00000000 
 9853      00000000 
 9853      00000000 
 9853      00000000 
 9854              		.section	.bss._ZL16spectra_averager,"aw",%nobits
 9855              		.align	2
 9856              		.set	.LANCHOR186,. + 0
 9859              	_ZL16spectra_averager:
 9860 0000 00000000 		.space	196
 9860      00000000 
 9860      00000000 
 9860      00000000 
 9860      00000000 
 9861              		.section	.bss._ZL18resonator_averager,"aw",%nobits
 9862              		.align	2
ARM GAS  /var/folders/lg/77ksxqjx0n7gwph6nqpzcmcw0000gn/T//ccn5JkAm.s 			page 174


 9863              		.set	.LANCHOR32,. + 0
 9866              	_ZL18resonator_averager:
 9867 0000 00000000 		.space	196
 9867      00000000 
 9867      00000000 
 9867      00000000 
 9867      00000000 
 9868              		.section	.bss._ZL19filter_cutoff_l_par,"aw",%nobits
 9869              		.align	2
 9870              		.set	.LANCHOR84,. + 0
 9873              	_ZL19filter_cutoff_l_par:
 9874 0000 00000000 		.space	52
 9874      00000000 
 9874      00000000 
 9874      00000000 
 9874      00000000 
 9875              		.section	.bss._ZL19filter_cutoff_r_par,"aw",%nobits
 9876              		.align	2
 9877              		.set	.LANCHOR85,. + 0
 9880              	_ZL19filter_cutoff_r_par:
 9881 0000 00000000 		.space	52
 9881      00000000 
 9881      00000000 
 9881      00000000 
 9881      00000000 
 9882              		.section	.bss._ZL20lofi_reverb_rate_par,"aw",%nobits
 9883              		.align	2
 9884              		.set	.LANCHOR185,. + 0
 9887              	_ZL20lofi_reverb_rate_par:
 9888 0000 00000000 		.space	52
 9888      00000000 
 9888      00000000 
 9888      00000000 
 9888      00000000 
 9889              		.section	.bss._ZL20lofi_reverb_tone_par,"aw",%nobits
 9890              		.align	2
 9891              		.set	.LANCHOR184,. + 0
 9894              	_ZL20lofi_reverb_tone_par:
 9895 0000 00000000 		.space	52
 9895      00000000 
 9895      00000000 
 9895      00000000 
 9895      00000000 
 9896              		.section	.bss._ZL3rev,"aw",%nobits
 9897              		.align	2
 9900              	_ZL3rev:
 9901 0000 00000000 		.space	396100
 9901      00000000 
 9901      00000000 
 9901      00000000 
 9901      00000000 
 9902              		.section	.bss._ZL4leds,"aw",%nobits
 9903              		.align	2
 9904              		.set	.LANCHOR18,. + 0
 9907              	_ZL4leds:
 9908 0000 00000000 		.space	112
 9908      00000000 
ARM GAS  /var/folders/lg/77ksxqjx0n7gwph6nqpzcmcw0000gn/T//ccn5JkAm.s 			page 175


 9908      00000000 
 9908      00000000 
 9908      00000000 
 9909              		.section	.bss._ZL4svfl,"aw",%nobits
 9910              		.align	2
 9911              		.set	.LANCHOR37,. + 0
 9914              	_ZL4svfl:
 9915 0000 00000000 		.space	76
 9915      00000000 
 9915      00000000 
 9915      00000000 
 9915      00000000 
 9916              		.section	.bss._ZL4svfr,"aw",%nobits
 9917              		.align	2
 9918              		.set	.LANCHOR39,. + 0
 9921              	_ZL4svfr:
 9922 0000 00000000 		.space	76
 9922      00000000 
 9922      00000000 
 9922      00000000 
 9922      00000000 
 9923              		.section	.bss._ZL5svf2l,"aw",%nobits
 9924              		.align	2
 9925              		.set	.LANCHOR47,. + 0
 9928              	_ZL5svf2l:
 9929 0000 00000000 		.space	20
 9929      00000000 
 9929      00000000 
 9929      00000000 
 9929      00000000 
 9930              		.section	.bss._ZL5svf2r,"aw",%nobits
 9931              		.align	2
 9932              		.set	.LANCHOR49,. + 0
 9935              	_ZL5svf2r:
 9936 0000 00000000 		.space	20
 9936      00000000 
 9936      00000000 
 9936      00000000 
 9936      00000000 
 9937              		.section	.bss._ZL5tonel,"aw",%nobits
 9938              		.align	2
 9939              		.set	.LANCHOR36,. + 0
 9942              	_ZL5tonel:
 9943 0000 00000000 		.space	28
 9943      00000000 
 9943      00000000 
 9943      00000000 
 9943      00000000 
 9944              		.section	.bss._ZL5toner,"aw",%nobits
 9945              		.align	2
 9946              		.set	.LANCHOR38,. + 0
 9949              	_ZL5toner:
 9950 0000 00000000 		.space	28
 9950      00000000 
 9950      00000000 
 9950      00000000 
 9950      00000000 
ARM GAS  /var/folders/lg/77ksxqjx0n7gwph6nqpzcmcw0000gn/T//ccn5JkAm.s 			page 176


 9951              		.section	.bss._ZL6biquad,"aw",%nobits
 9952              		.align	2
 9953              		.set	.LANCHOR79,. + 0
 9956              	_ZL6biquad:
 9957 0000 00000000 		.space	56
 9957      00000000 
 9957      00000000 
 9957      00000000 
 9957      00000000 
 9958              		.section	.bss._ZL9dcblock_l,"aw",%nobits
 9959              		.align	2
 9960              		.set	.LANCHOR44,. + 0
 9963              	_ZL9dcblock_l:
 9964 0000 00000000 		.space	12
 9964      00000000 
 9964      00000000 
 9965              		.section	.bss._ZL9dcblock_r,"aw",%nobits
 9966              		.align	2
 9967              		.set	.LANCHOR45,. + 0
 9970              	_ZL9dcblock_r:
 9971 0000 00000000 		.space	12
 9971      00000000 
 9971      00000000 
 9972              		.section	.bss.attack_lut,"aw",%nobits
 9973              		.align	2
 9974              		.set	.LANCHOR97,. + 0
 9977              	attack_lut:
 9978 0000 00000000 		.space	1200
 9978      00000000 
 9978      00000000 
 9978      00000000 
 9978      00000000 
 9979              		.section	.bss.delay_active,"aw",%nobits
 9980              		.align	2
 9981              		.set	.LANCHOR115,. + 0
 9984              	delay_active:
 9985 0000 00000000 		.space	4
 9986              		.section	.bss.delay_control_counter,"aw",%nobits
 9987              		.align	2
 9988              		.set	.LANCHOR151,. + 0
 9991              	delay_control_counter:
 9992 0000 00000000 		.space	4
 9993              		.section	.bss.delay_cutoff,"aw",%nobits
 9994              		.align	2
 9995              		.set	.LANCHOR166,. + 0
 9998              	delay_cutoff:
 9999 0000 00000000 		.space	4
 10000              		.section	.bss.delay_drywet,"aw",%nobits
 10001              		.align	2
 10002              		.set	.LANCHOR164,. + 0
 10005              	delay_drywet:
 10006 0000 00000000 		.space	4
 10007              		.section	.bss.delay_fast_feedback_RMS,"aw",%nobits
 10008              		.align	2
 10009              		.set	.LANCHOR179,. + 0
 10012              	delay_fast_feedback_RMS:
 10013 0000 00000000 		.space	4
ARM GAS  /var/folders/lg/77ksxqjx0n7gwph6nqpzcmcw0000gn/T//ccn5JkAm.s 			page 177


 10014              		.section	.bss.delay_feedback,"aw",%nobits
 10015              		.align	2
 10016              		.set	.LANCHOR163,. + 0
 10019              	delay_feedback:
 10020 0000 00000000 		.space	4
 10021              		.section	.bss.delay_feedback_RMS,"aw",%nobits
 10022              		.align	2
 10023              		.set	.LANCHOR178,. + 0
 10026              	delay_feedback_RMS:
 10027 0000 00000000 		.space	4
 10028              		.section	.bss.delay_frozen,"aw",%nobits
 10029              		.set	.LANCHOR158,. + 0
 10032              	delay_frozen:
 10033 0000 00       		.space	1
 10034              		.section	.bss.delay_frozen_end,"aw",%nobits
 10035              		.align	2
 10036              		.set	.LANCHOR159,. + 0
 10039              	delay_frozen_end:
 10040 0000 00000000 		.space	4
 10041              		.section	.bss.delay_frozen_pos,"aw",%nobits
 10042              		.align	2
 10043              		.set	.LANCHOR161,. + 0
 10046              	delay_frozen_pos:
 10047 0000 00000000 		.space	4
 10048              		.section	.bss.delay_frozen_start,"aw",%nobits
 10049              		.align	2
 10050              		.set	.LANCHOR160,. + 0
 10053              	delay_frozen_start:
 10054 0000 00000000 		.space	4
 10055              		.section	.bss.delay_left_counter,"aw",%nobits
 10056              		.align	2
 10057              		.set	.LANCHOR154,. + 0
 10060              	delay_left_counter:
 10061 0000 00000000 		.space	4
 10062              		.section	.bss.delay_left_counter_4,"aw",%nobits
 10063              		.align	2
 10064              		.set	.LANCHOR156,. + 0
 10067              	delay_left_counter_4:
 10068 0000 00000000 		.space	4
 10069              		.section	.bss.delay_main_counter,"aw",%nobits
 10070              		.align	2
 10071              		.set	.LANCHOR152,. + 0
 10074              	delay_main_counter:
 10075 0000 00000000 		.space	4
 10076              		.section	.bss.delay_mult_l,"aw",%nobits
 10077              		.align	2
 10078              		.set	.LANCHOR92,. + 0
 10081              	delay_mult_l:
 10082 0000 00000000 		.space	8
 10082      00000000 
 10083              		.section	.bss.delay_mult_r,"aw",%nobits
 10084              		.align	2
 10085              		.set	.LANCHOR93,. + 0
 10088              	delay_mult_r:
 10089 0000 00000000 		.space	8
 10089      00000000 
 10090              		.section	.bss.delay_outl,"aw",%nobits
ARM GAS  /var/folders/lg/77ksxqjx0n7gwph6nqpzcmcw0000gn/T//ccn5JkAm.s 			page 178


 10091              		.align	2
 10092              		.set	.LANCHOR90,. + 0
 10095              	delay_outl:
 10096 0000 00000000 		.space	8
 10096      00000000 
 10097              		.section	.bss.delay_outr,"aw",%nobits
 10098              		.align	2
 10099              		.set	.LANCHOR91,. + 0
 10102              	delay_outr:
 10103 0000 00000000 		.space	8
 10103      00000000 
 10104              		.section	.bss.delay_pos_l,"aw",%nobits
 10105              		.align	2
 10106              		.set	.LANCHOR87,. + 0
 10109              	delay_pos_l:
 10110 0000 00000000 		.space	8
 10110      00000000 
 10111              		.section	.bss.delay_pos_r,"aw",%nobits
 10112              		.align	2
 10113              		.set	.LANCHOR88,. + 0
 10116              	delay_pos_r:
 10117 0000 00000000 		.space	8
 10117      00000000 
 10118              		.section	.bss.delay_prev_sample_l,"aw",%nobits
 10119              		.align	2
 10120              		.set	.LANCHOR180,. + 0
 10123              	delay_prev_sample_l:
 10124 0000 00000000 		.space	4
 10125              		.section	.bss.delay_prev_sample_r,"aw",%nobits
 10126              		.align	2
 10127              		.set	.LANCHOR181,. + 0
 10130              	delay_prev_sample_r:
 10131 0000 00000000 		.space	4
 10132              		.section	.bss.delay_reduce_spikes_l,"aw",%nobits
 10135              	delay_reduce_spikes_l:
 10136 0000 00       		.space	1
 10137              		.section	.bss.delay_reduce_spikes_r,"aw",%nobits
 10140              	delay_reduce_spikes_r:
 10141 0000 00       		.space	1
 10142              		.section	.bss.delay_right_counter,"aw",%nobits
 10143              		.align	2
 10144              		.set	.LANCHOR155,. + 0
 10147              	delay_right_counter:
 10148 0000 00000000 		.space	4
 10149              		.section	.bss.delay_right_counter_4,"aw",%nobits
 10150              		.align	2
 10151              		.set	.LANCHOR157,. + 0
 10154              	delay_right_counter_4:
 10155 0000 00000000 		.space	4
 10156              		.section	.bss.delay_rmsCount,"aw",%nobits
 10157              		.align	2
 10158              		.set	.LANCHOR175,. + 0
 10161              	delay_rmsCount:
 10162 0000 00000000 		.space	4
 10163              		.section	.bss.delay_spike_counter_l,"aw",%nobits
 10164              		.align	2
 10167              	delay_spike_counter_l:
ARM GAS  /var/folders/lg/77ksxqjx0n7gwph6nqpzcmcw0000gn/T//ccn5JkAm.s 			page 179


 10168 0000 00000000 		.space	4
 10169              		.section	.bss.delay_target_RMS,"aw",%nobits
 10170              		.align	2
 10171              		.set	.LANCHOR176,. + 0
 10174              	delay_target_RMS:
 10175 0000 00000000 		.space	4
 10176              		.section	.bss.delay_target_cutoff,"aw",%nobits
 10177              		.align	2
 10178              		.set	.LANCHOR165,. + 0
 10181              	delay_target_cutoff:
 10182 0000 00000000 		.space	4
 10183              		.section	.bss.delay_time,"aw",%nobits
 10184              		.align	2
 10185              		.set	.LANCHOR89,. + 0
 10188              	delay_time:
 10189 0000 00000000 		.space	8
 10189      00000000 
 10190              		.section	.bss.delay_time_count,"aw",%nobits
 10191              		.align	2
 10192              		.set	.LANCHOR150,. + 0
 10195              	delay_time_count:
 10196 0000 00000000 		.space	4
 10197              		.section	.bss.delay_time_trig,"aw",%nobits
 10198              		.align	2
 10199              		.set	.LANCHOR149,. + 0
 10202              	delay_time_trig:
 10203 0000 00000000 		.space	4
 10204              		.section	.bss.delay_write_pos,"aw",%nobits
 10205              		.align	2
 10206              		.set	.LANCHOR153,. + 0
 10209              	delay_write_pos:
 10210 0000 00000000 		.space	4
 10211              		.section	.bss.delay_xfade_current,"aw",%nobits
 10212              		.align	2
 10213              		.set	.LANCHOR182,. + 0
 10216              	delay_xfade_current:
 10217 0000 00000000 		.space	4
 10218              		.section	.bss.delay_xfade_target,"aw",%nobits
 10219              		.align	2
 10220              		.set	.LANCHOR117,. + 0
 10223              	delay_xfade_target:
 10224 0000 00000000 		.space	4
 10225              		.section	.bss.filter_current_l_freq,"aw",%nobits
 10226              		.align	2
 10227              		.set	.LANCHOR125,. + 0
 10230              	filter_current_l_freq:
 10231 0000 00000000 		.space	4
 10232              		.section	.bss.filter_mode_l,"aw",%nobits
 10233              		.align	2
 10234              		.set	.LANCHOR46,. + 0
 10237              	filter_mode_l:
 10238 0000 00000000 		.space	4
 10239              		.section	.bss.filter_mode_r,"aw",%nobits
 10240              		.align	2
 10241              		.set	.LANCHOR48,. + 0
 10244              	filter_mode_r:
 10245 0000 00000000 		.space	4
ARM GAS  /var/folders/lg/77ksxqjx0n7gwph6nqpzcmcw0000gn/T//ccn5JkAm.s 			page 180


 10246              		.section	.bss.filter_path,"aw",%nobits
 10247              		.align	2
 10248              		.set	.LANCHOR50,. + 0
 10251              	filter_path:
 10252 0000 00000000 		.space	4
 10253              		.section	.bss.filter_target_l_freq,"aw",%nobits
 10254              		.align	2
 10255              		.set	.LANCHOR123,. + 0
 10258              	filter_target_l_freq:
 10259 0000 00000000 		.space	4
 10260              		.section	.bss.filter_target_r_freq,"aw",%nobits
 10261              		.align	2
 10262              		.set	.LANCHOR124,. + 0
 10265              	filter_target_r_freq:
 10266 0000 00000000 		.space	4
 10267              		.section	.bss.global_sample_rate,"aw",%nobits
 10268              		.align	2
 10269              		.set	.LANCHOR26,. + 0
 10272              	global_sample_rate:
 10273 0000 00000000 		.space	4
 10274              		.section	.bss.lofi_current_Lofi_LFO_Freq,"aw",%nobits
 10275              		.align	2
 10276              		.set	.LANCHOR63,. + 0
 10279              	lofi_current_Lofi_LFO_Freq:
 10280 0000 00000000 		.space	4
 10281              		.section	.bss.lofi_current_RMS,"aw",%nobits
 10282              		.align	2
 10283              		.set	.LANCHOR55,. + 0
 10286              	lofi_current_RMS:
 10287 0000 00000000 		.space	4
 10288              		.section	.bss.lofi_current_left_saturation,"aw",%nobits
 10289              		.align	2
 10290              		.set	.LANCHOR83,. + 0
 10293              	lofi_current_left_saturation:
 10294 0000 00000000 		.space	4
 10295              		.section	.bss.lofi_current_right_saturation,"aw",%nobits
 10296              		.align	2
 10297              		.set	.LANCHOR82,. + 0
 10300              	lofi_current_right_saturation:
 10301 0000 00000000 		.space	4
 10302              		.section	.bss.lofi_cutoff,"aw",%nobits
 10303              		.align	2
 10304              		.set	.LANCHOR57,. + 0
 10307              	lofi_cutoff:
 10308 0000 00000000 		.space	4
 10309              		.section	.bss.lofi_damp_speed,"aw",%nobits
 10310              		.align	2
 10311              		.set	.LANCHOR61,. + 0
 10314              	lofi_damp_speed:
 10315 0000 00000000 		.space	4
 10316              		.section	.bss.lofi_depth,"aw",%nobits
 10317              		.align	2
 10318              		.set	.LANCHOR62,. + 0
 10321              	lofi_depth:
 10322 0000 00000000 		.space	4
 10323              		.section	.bss.lofi_drywet,"aw",%nobits
 10324              		.align	2
ARM GAS  /var/folders/lg/77ksxqjx0n7gwph6nqpzcmcw0000gn/T//ccn5JkAm.s 			page 181


 10325              		.set	.LANCHOR64,. + 0
 10328              	lofi_drywet:
 10329 0000 00000000 		.space	4
 10330              		.section	.bss.lofi_mod,"aw",%nobits
 10331              		.align	2
 10332              		.set	.LANCHOR58,. + 0
 10335              	lofi_mod:
 10336 0000 00000000 		.space	4
 10337              		.section	.bss.lofi_previous_left_saturation,"aw",%nobits
 10338              		.align	2
 10339              		.set	.LANCHOR66,. + 0
 10342              	lofi_previous_left_saturation:
 10343 0000 00000000 		.space	4
 10344              		.section	.bss.lofi_previous_right_saturation,"aw",%nobits
 10345              		.align	2
 10346              		.set	.LANCHOR67,. + 0
 10349              	lofi_previous_right_saturation:
 10350 0000 00000000 		.space	4
 10351              		.section	.bss.lofi_previous_variable_compressor,"aw",%nobits
 10352              		.align	2
 10353              		.set	.LANCHOR65,. + 0
 10356              	lofi_previous_variable_compressor:
 10357 0000 00000000 		.space	4
 10358              		.section	.bss.lofi_rate_count,"aw",%nobits
 10359              		.align	2
 10360              		.set	.LANCHOR59,. + 0
 10363              	lofi_rate_count:
 10364 0000 00000000 		.space	4
 10365              		.section	.bss.lofi_rmsCount,"aw",%nobits
 10366              		.align	2
 10367              		.set	.LANCHOR51,. + 0
 10370              	lofi_rmsCount:
 10371 0000 00000000 		.space	4
 10372              		.section	.bss.lofi_target_Lofi_LFO_Freq,"aw",%nobits
 10373              		.align	2
 10374              		.set	.LANCHOR60,. + 0
 10377              	lofi_target_Lofi_LFO_Freq:
 10378 0000 00000000 		.space	4
 10379              		.section	.bss.lofi_target_RMS,"aw",%nobits
 10380              		.align	2
 10381              		.set	.LANCHOR52,. + 0
 10384              	lofi_target_RMS:
 10385 0000 00000000 		.space	4
 10386              		.section	.bss.mlooper_drywet,"aw",%nobits
 10387              		.align	2
 10388              		.set	.LANCHOR113,. + 0
 10391              	mlooper_drywet:
 10392 0000 00000000 		.space	4
 10393              		.section	.bss.mlooper_frozen,"aw",%nobits
 10394              		.set	.LANCHOR98,. + 0
 10397              	mlooper_frozen:
 10398 0000 00       		.space	1
 10399              		.section	.bss.mlooper_frozen_pos_1,"aw",%nobits
 10400              		.align	2
 10401              		.set	.LANCHOR70,. + 0
 10404              	mlooper_frozen_pos_1:
 10405 0000 00000000 		.space	4
ARM GAS  /var/folders/lg/77ksxqjx0n7gwph6nqpzcmcw0000gn/T//ccn5JkAm.s 			page 182


 10406              		.section	.bss.mlooper_frozen_pos_2,"aw",%nobits
 10407              		.align	2
 10408              		.set	.LANCHOR72,. + 0
 10411              	mlooper_frozen_pos_2:
 10412 0000 00000000 		.space	4
 10413              		.section	.bss.mlooper_len_count,"aw",%nobits
 10414              		.align	2
 10415              		.set	.LANCHOR77,. + 0
 10418              	mlooper_len_count:
 10419 0000 00000000 		.space	4
 10420              		.section	.bss.mlooper_play,"aw",%nobits
 10421              		.set	.LANCHOR68,. + 0
 10424              	mlooper_play:
 10425 0000 00       		.space	1
 10426              		.section	.bss.mlooper_pos_1,"aw",%nobits
 10427              		.align	2
 10428              		.set	.LANCHOR69,. + 0
 10431              	mlooper_pos_1:
 10432 0000 00000000 		.space	4
 10433              		.section	.bss.mlooper_pos_2,"aw",%nobits
 10434              		.align	2
 10435              		.set	.LANCHOR71,. + 0
 10438              	mlooper_pos_2:
 10439 0000 00000000 		.space	4
 10440              		.section	.bss.mlooper_writer_outside_pos,"aw",%nobits
 10441              		.align	2
 10442              		.set	.LANCHOR74,. + 0
 10445              	mlooper_writer_outside_pos:
 10446 0000 00000000 		.space	4
 10447              		.section	.bss.mlooper_writer_pos,"aw",%nobits
 10448              		.align	2
 10449              		.set	.LANCHOR73,. + 0
 10452              	mlooper_writer_pos:
 10453 0000 00000000 		.space	4
 10454              		.section	.bss.mode,"aw",%nobits
 10455              		.align	2
 10456              		.set	.LANCHOR9,. + 0
 10459              	mode:
 10460 0000 00000000 		.space	4
 10461              		.section	.bss.modified_buffer_length_l,"aw",%nobits
 10462              		.align	2
 10463              		.set	.LANCHOR109,. + 0
 10466              	modified_buffer_length_l:
 10467 0000 00000000 		.space	4
 10468              		.section	.bss.modified_buffer_length_r,"aw",%nobits
 10469              		.align	2
 10470              		.set	.LANCHOR110,. + 0
 10473              	modified_buffer_length_r:
 10474 0000 00000000 		.space	4
 10475              		.section	.bss.modified_frozen_buffer_length_l,"aw",%nobits
 10476              		.align	2
 10477              		.set	.LANCHOR111,. + 0
 10480              	modified_frozen_buffer_length_l:
 10481 0000 00000000 		.space	4
 10482              		.section	.bss.modified_frozen_buffer_length_r,"aw",%nobits
 10483              		.align	2
 10484              		.set	.LANCHOR112,. + 0
ARM GAS  /var/folders/lg/77ksxqjx0n7gwph6nqpzcmcw0000gn/T//ccn5JkAm.s 			page 183


 10487              	modified_frozen_buffer_length_r:
 10488 0000 00000000 		.space	4
 10489              		.section	.bss.previous_mode,"aw",%nobits
 10490              		.align	2
 10491              		.set	.LANCHOR118,. + 0
 10494              	previous_mode:
 10495 0000 00000000 		.space	4
 10496              		.section	.bss.resonator_current_RMS,"aw",%nobits
 10497              		.align	2
 10498              		.set	.LANCHOR33,. + 0
 10501              	resonator_current_RMS:
 10502 0000 00000000 		.space	4
 10503              		.section	.bss.resonator_current_delay,"aw",%nobits
 10504              		.align	2
 10505              		.set	.LANCHOR29,. + 0
 10508              	resonator_current_delay:
 10509 0000 00000000 		.space	4
 10510              		.section	.bss.resonator_drywet,"aw",%nobits
 10511              		.align	2
 10512              		.set	.LANCHOR41,. + 0
 10515              	resonator_drywet:
 10516 0000 00000000 		.space	4
 10517              		.section	.bss.resonator_feedback,"aw",%nobits
 10518              		.align	2
 10519              		.set	.LANCHOR43,. + 0
 10522              	resonator_feedback:
 10523 0000 00000000 		.space	4
 10524              		.section	.bss.resonator_feedback_RMS,"aw",%nobits
 10525              		.align	2
 10526              		.set	.LANCHOR34,. + 0
 10529              	resonator_feedback_RMS:
 10530 0000 00000000 		.space	4
 10531              		.section	.bss.resonator_feedback_display,"aw",%nobits
 10532              		.align	2
 10535              	resonator_feedback_display:
 10536 0000 00000000 		.space	4
 10537              		.section	.bss.resonator_glide,"aw",%nobits
 10538              		.align	2
 10539              		.set	.LANCHOR28,. + 0
 10542              	resonator_glide:
 10543 0000 00000000 		.space	4
 10544              		.section	.bss.resonator_glide_mode,"aw",%nobits
 10545              		.align	2
 10546              		.set	.LANCHOR35,. + 0
 10549              	resonator_glide_mode:
 10550 0000 00000000 		.space	4
 10551              		.section	.bss.resonator_previous_l,"aw",%nobits
 10552              		.align	2
 10553              		.set	.LANCHOR40,. + 0
 10556              	resonator_previous_l:
 10557 0000 00000000 		.space	4
 10558              		.section	.bss.resonator_previous_r,"aw",%nobits
 10559              		.align	2
 10560              		.set	.LANCHOR42,. + 0
 10563              	resonator_previous_r:
 10564 0000 00000000 		.space	4
 10565              		.section	.bss.resonator_rmsCount,"aw",%nobits
ARM GAS  /var/folders/lg/77ksxqjx0n7gwph6nqpzcmcw0000gn/T//ccn5JkAm.s 			page 184


 10566              		.align	2
 10567              		.set	.LANCHOR30,. + 0
 10570              	resonator_rmsCount:
 10571 0000 00000000 		.space	4
 10572              		.section	.bss.resonator_target,"aw",%nobits
 10573              		.align	2
 10574              		.set	.LANCHOR96,. + 0
 10577              	resonator_target:
 10578 0000 00000000 		.space	4
 10579              		.section	.bss.resonator_target_RMS,"aw",%nobits
 10580              		.align	2
 10581              		.set	.LANCHOR31,. + 0
 10584              	resonator_target_RMS:
 10585 0000 00000000 		.space	4
 10586              		.section	.bss.reverb_current_RMS,"aw",%nobits
 10587              		.align	2
 10588              		.set	.LANCHOR16,. + 0
 10591              	reverb_current_RMS:
 10592 0000 00000000 		.space	4
 10593              		.section	.bss.reverb_current_outl,"aw",%nobits
 10594              		.align	2
 10595              		.set	.LANCHOR23,. + 0
 10598              	reverb_current_outl:
 10599 0000 00000000 		.space	4
 10600              		.section	.bss.reverb_current_outr,"aw",%nobits
 10601              		.align	2
 10602              		.set	.LANCHOR24,. + 0
 10605              	reverb_current_outr:
 10606 0000 00000000 		.space	4
 10607              		.section	.bss.reverb_drywet,"aw",%nobits
 10608              		.align	2
 10609              		.set	.LANCHOR25,. + 0
 10612              	reverb_drywet:
 10613 0000 00000000 		.space	4
 10614              		.section	.bss.reverb_feedback,"aw",%nobits
 10615              		.align	2
 10616              		.set	.LANCHOR19,. + 0
 10619              	reverb_feedback:
 10620 0000 00000000 		.space	4
 10621              		.section	.bss.reverb_feedback_RMS,"aw",%nobits
 10622              		.align	2
 10623              		.set	.LANCHOR17,. + 0
 10626              	reverb_feedback_RMS:
 10627 0000 00000000 		.space	4
 10628              		.section	.bss.reverb_feedback_display,"aw",%nobits
 10629              		.align	2
 10630              		.set	.LANCHOR120,. + 0
 10633              	reverb_feedback_display:
 10634 0000 00000000 		.space	4
 10635              		.section	.bss.reverb_lowpass,"aw",%nobits
 10636              		.align	2
 10637              		.set	.LANCHOR119,. + 0
 10640              	reverb_lowpass:
 10641 0000 00000000 		.space	4
 10642              		.section	.bss.reverb_previous_inl,"aw",%nobits
 10643              		.align	2
 10646              	reverb_previous_inl:
ARM GAS  /var/folders/lg/77ksxqjx0n7gwph6nqpzcmcw0000gn/T//ccn5JkAm.s 			page 185


 10647 0000 00000000 		.space	4
 10648              		.section	.bss.reverb_previous_inr,"aw",%nobits
 10649              		.align	2
 10652              	reverb_previous_inr:
 10653 0000 00000000 		.space	4
 10654              		.section	.bss.reverb_rmsCount,"aw",%nobits
 10655              		.align	2
 10656              		.set	.LANCHOR13,. + 0
 10659              	reverb_rmsCount:
 10660 0000 00000000 		.space	4
 10661              		.section	.bss.reverb_shimmer,"aw",%nobits
 10662              		.align	2
 10663              		.set	.LANCHOR20,. + 0
 10666              	reverb_shimmer:
 10667 0000 00000000 		.space	4
 10668              		.section	.bss.reverb_shimmer_play_pos1l,"aw",%nobits
 10669              		.align	2
 10670              		.set	.LANCHOR10,. + 0
 10673              	reverb_shimmer_play_pos1l:
 10674 0000 00000000 		.space	4
 10675              		.section	.bss.reverb_shimmer_play_pos1r,"aw",%nobits
 10676              		.align	2
 10677              		.set	.LANCHOR11,. + 0
 10680              	reverb_shimmer_play_pos1r:
 10681 0000 00000000 		.space	4
 10682              		.section	.bss.reverb_shimmer_play_pos2,"aw",%nobits
 10683              		.align	2
 10684              		.set	.LANCHOR12,. + 0
 10687              	reverb_shimmer_play_pos2:
 10688 0000 00000000 		.space	4
 10689              		.section	.bss.reverb_shimmer_write_pos1l,"aw",%nobits
 10690              		.align	2
 10691              		.set	.LANCHOR3,. + 0
 10694              	reverb_shimmer_write_pos1l:
 10695 0000 00000000 		.space	4
 10696              		.section	.bss.reverb_shimmer_write_pos1r,"aw",%nobits
 10697              		.align	2
 10698              		.set	.LANCHOR4,. + 0
 10701              	reverb_shimmer_write_pos1r:
 10702 0000 00000000 		.space	4
 10703              		.section	.bss.reverb_shimmer_write_pos2,"aw",%nobits
 10704              		.align	2
 10705              		.set	.LANCHOR7,. + 0
 10708              	reverb_shimmer_write_pos2:
 10709 0000 00000000 		.space	4
 10710              		.section	.bss.reverb_target_RMS,"aw",%nobits
 10711              		.align	2
 10712              		.set	.LANCHOR14,. + 0
 10715              	reverb_target_RMS:
 10716 0000 00000000 		.space	4
 10717              		.section	.bss.reverb_target_compression,"aw",%nobits
 10718              		.align	2
 10719              		.set	.LANCHOR21,. + 0
 10722              	reverb_target_compression:
 10723 0000 00000000 		.space	4
 10724              		.section	.bss.spectra_b,"aw",%nobits
 10725              		.align	2
ARM GAS  /var/folders/lg/77ksxqjx0n7gwph6nqpzcmcw0000gn/T//ccn5JkAm.s 			page 186


 10726              		.set	.LANCHOR135,. + 0
 10729              	spectra_b:
 10730 0000 00000000 		.space	4
 10731              		.section	.bss.spectra_current_RMS,"aw",%nobits
 10732              		.align	2
 10735              	spectra_current_RMS:
 10736 0000 00000000 		.space	4
 10737              		.section	.bss.spectra_do_analisys,"aw",%nobits
 10738              		.set	.LANCHOR132,. + 0
 10741              	spectra_do_analisys:
 10742 0000 00       		.space	1
 10743              		.section	.bss.spectra_drywet,"aw",%nobits
 10744              		.align	2
 10745              		.set	.LANCHOR136,. + 0
 10748              	spectra_drywet:
 10749 0000 00000000 		.space	4
 10750              		.section	.bss.spectra_g,"aw",%nobits
 10751              		.align	2
 10752              		.set	.LANCHOR134,. + 0
 10755              	spectra_g:
 10756 0000 00000000 		.space	4
 10757              		.section	.bss.spectra_lower_harmonics,"aw",%nobits
 10758              		.align	2
 10759              		.set	.LANCHOR130,. + 0
 10762              	spectra_lower_harmonics:
 10763 0000 00000000 		.space	4
 10764              		.section	.bss.spectra_oct,"aw",%nobits
 10765              		.align	2
 10768              	spectra_oct:
 10769 0000 00000000 		.space	4
 10770              		.section	.bss.spectra_oct_mult,"aw",%nobits
 10771              		.align	2
 10772              		.set	.LANCHOR0,. + 0
 10775              	spectra_oct_mult:
 10776 0000 00000000 		.space	4
 10777              		.section	.bss.spectra_prev_knob_wave_knob,"aw",%nobits
 10778              		.align	2
 10779              		.set	.LANCHOR127,. + 0
 10782              	spectra_prev_knob_wave_knob:
 10783 0000 00000000 		.space	4
 10784              		.section	.bss.spectra_quantize,"aw",%nobits
 10785              		.align	2
 10786              		.set	.LANCHOR138,. + 0
 10789              	spectra_quantize:
 10790 0000 00000000 		.space	4
 10791              		.section	.bss.spectra_r,"aw",%nobits
 10792              		.align	2
 10793              		.set	.LANCHOR133,. + 0
 10796              	spectra_r:
 10797 0000 00000000 		.space	4
 10798              		.section	.bss.spectra_reverb_amount,"aw",%nobits
 10799              		.align	2
 10800              		.set	.LANCHOR148,. + 0
 10803              	spectra_reverb_amount:
 10804 0000 00000000 		.space	4
 10805              		.section	.bss.spectra_rmsCount,"aw",%nobits
 10806              		.align	2
ARM GAS  /var/folders/lg/77ksxqjx0n7gwph6nqpzcmcw0000gn/T//ccn5JkAm.s 			page 187


 10809              	spectra_rmsCount:
 10810 0000 00000000 		.space	4
 10811              		.section	.bss.spectra_rotate_harmonics,"aw",%nobits
 10812              		.align	2
 10813              		.set	.LANCHOR131,. + 0
 10816              	spectra_rotate_harmonics:
 10817 0000 00000000 		.space	4
 10818              		.section	.bss.spectra_selected_scale,"aw",%nobits
 10819              		.align	2
 10820              		.set	.LANCHOR139,. + 0
 10823              	spectra_selected_scale:
 10824 0000 00000000 		.space	4
 10825              		.section	.bss.spectra_transpose,"aw",%nobits
 10826              		.align	2
 10827              		.set	.LANCHOR137,. + 0
 10830              	spectra_transpose:
 10831 0000 00000000 		.space	4
 10832              		.section	.bss.spectra_waveform,"aw",%nobits
 10833              		.align	2
 10836              	spectra_waveform:
 10837 0000 00000000 		.space	4
 10838              		.section	.bss.spectrings_accent_amount,"aw",%nobits
 10839              		.align	2
 10840              		.set	.LANCHOR171,. + 0
 10843              	spectrings_accent_amount:
 10844 0000 00000000 		.space	8
 10844      00000000 
 10845              		.section	.bss.spectrings_attack_last_step,"aw",%nobits
 10846              		.align	2
 10849              	spectrings_attack_last_step:
 10850 0000 00000000 		.space	8
 10850      00000000 
 10851              		.section	.bss.spectrings_attack_step,"aw",%nobits
 10852              		.align	2
 10853              		.set	.LANCHOR172,. + 0
 10856              	spectrings_attack_step:
 10857 0000 00000000 		.space	8
 10857      00000000 
 10858              		.section	.bss.spectrings_current_voice,"aw",%nobits
 10859              		.align	2
 10860              		.set	.LANCHOR168,. + 0
 10863              	spectrings_current_voice:
 10864 0000 00000000 		.space	4
 10865              		.section	.bss.spectrings_decay_amount,"aw",%nobits
 10866              		.align	2
 10867              		.set	.LANCHOR169,. + 0
 10870              	spectrings_decay_amount:
 10871 0000 00000000 		.space	8
 10871      00000000 
 10872              		.section	.bss.spectrings_drywet,"aw",%nobits
 10873              		.align	2
 10874              		.set	.LANCHOR173,. + 0
 10877              	spectrings_drywet:
 10878 0000 00000000 		.space	4
 10879              		.section	.bss.spectrings_pan_spread,"aw",%nobits
 10880              		.align	2
 10881              		.set	.LANCHOR174,. + 0
ARM GAS  /var/folders/lg/77ksxqjx0n7gwph6nqpzcmcw0000gn/T//ccn5JkAm.s 			page 188


 10884              	spectrings_pan_spread:
 10885 0000 00000000 		.space	4
 10886              		.section	.bss.spectrings_trigger_next_cycle,"aw",%nobits
 10887              		.set	.LANCHOR167,. + 0
 10890              	spectrings_trigger_next_cycle:
 10891 0000 00       		.space	1
 10892              		.section	.bss.versio,"aw",%nobits
 10893              		.align	2
 10894              		.set	.LANCHOR78,. + 0
 10897              	versio:
 10898 0000 00000000 		.space	632
 10898      00000000 
 10898      00000000 
 10898      00000000 
 10898      00000000 
 10899              		.section	.data.CHRM_SCALE,"aw"
 10900              		.align	2
 10901              		.set	.LANCHOR183,. + 0
 10904              	CHRM_SCALE:
 10905 0000 F01F0000 		.word	8176
 10906 0004 D6210000 		.word	8662
 10907 0008 D9230000 		.word	9177
 10908 000c FB250000 		.word	9723
 10909 0010 3D280000 		.word	10301
 10910 0014 A12A0000 		.word	10913
 10911 0018 2A2D0000 		.word	11562
 10912 001c DA2F0000 		.word	12250
 10913 0020 B2320000 		.word	12978
 10914 0024 B6350000 		.word	13750
 10915 0028 E8380000 		.word	14568
 10916 002c 4A3C0000 		.word	15434
 10917 0030 E03F0000 		.word	16352
 10918 0034 AC430000 		.word	17324
 10919 0038 B2470000 		.word	18354
 10920 003c F54B0000 		.word	19445
 10921 0040 7A500000 		.word	20602
 10922 0044 43550000 		.word	21827
 10923 0048 555A0000 		.word	23125
 10924 004c B45F0000 		.word	24500
 10925 0050 65650000 		.word	25957
 10926 0054 6C6B0000 		.word	27500
 10927 0058 CF710000 		.word	29135
 10928 005c 94780000 		.word	30868
 10929 0060 BF7F0000 		.word	32703
 10930 0064 58870000 		.word	34648
 10931 0068 648F0000 		.word	36708
 10932 006c EB970000 		.word	38891
 10933 0070 F3A00000 		.word	41203
 10934 0074 86AA0000 		.word	43654
 10935 0078 A9B40000 		.word	46249
 10936 007c 67BF0000 		.word	48999
 10937 0080 C9CA0000 		.word	51913
 10938 0084 D8D60000 		.word	55000
 10939 0088 9EE30000 		.word	58270
 10940 008c 27F10000 		.word	61735
 10941 0090 7EFF0000 		.word	65406
 10942 0094 B00E0100 		.word	69296
ARM GAS  /var/folders/lg/77ksxqjx0n7gwph6nqpzcmcw0000gn/T//ccn5JkAm.s 			page 189


 10943 0098 C81E0100 		.word	73416
 10944 009c D62F0100 		.word	77782
 10945 00a0 E7410100 		.word	82407
 10946 00a4 0B550100 		.word	87307
 10947 00a8 53690100 		.word	92499
 10948 00ac CF7E0100 		.word	97999
 10949 00b0 92950100 		.word	103826
 10950 00b4 B0AD0100 		.word	110000
 10951 00b8 3DC70100 		.word	116541
 10952 00bc 4FE20100 		.word	123471
 10953 00c0 FDFE0100 		.word	130813
 10954 00c4 5F1D0200 		.word	138591
 10955 00c8 903D0200 		.word	146832
 10956 00cc AB5F0200 		.word	155563
 10957 00d0 CE830200 		.word	164814
 10958 00d4 16AA0200 		.word	174614
 10959 00d8 A5D20200 		.word	184997
 10960 00dc 9EFD0200 		.word	195998
 10961 00e0 242B0300 		.word	207652
 10962 00e4 605B0300 		.word	220000
 10963 00e8 7A8E0300 		.word	233082
 10964 00ec 9EC40300 		.word	246942
 10965 00f0 FAFD0300 		.word	261626
 10966 00f4 BF3A0400 		.word	277183
 10967 00f8 217B0400 		.word	293665
 10968 00fc 57BF0400 		.word	311127
 10969 0100 9C070500 		.word	329628
 10970 0104 2C540500 		.word	349228
 10971 0108 4AA50500 		.word	369994
 10972 010c 3BFB0500 		.word	391995
 10973 0110 49560600 		.word	415305
 10974 0114 C0B60600 		.word	440000
 10975 0118 F41C0700 		.word	466164
 10976 011c 3B890700 		.word	493883
 10977 0120 F3FB0700 		.word	523251
 10978 0124 7D750800 		.word	554365
 10979 0128 42F60800 		.word	587330
 10980 012c AE7E0900 		.word	622254
 10981 0130 370F0A00 		.word	659255
 10982 0134 58A80A00 		.word	698456
 10983 0138 954A0B00 		.word	739989
 10984 013c 77F60B00 		.word	783991
 10985 0140 91AC0C00 		.word	830609
 10986 0144 806D0D00 		.word	880000
 10987 0148 E8390E00 		.word	932328
 10988 014c 77120F00 		.word	987767
 10989 0150 E6F70F00 		.word	1046502
 10990 0154 FBEA1000 		.word	1108731
 10991 0158 83EC1100 		.word	1174659
 10992 015c 5CFD1200 		.word	1244508
 10993 0160 6E1E1400 		.word	1318510
 10994 0164 B1501500 		.word	1396913
 10995 0168 2A951600 		.word	1479978
 10996 016c EEEC1700 		.word	1567982
 10997 0170 23591900 		.word	1661219
 10998 0174 00DB1A00 		.word	1760000
 10999 0178 CF731C00 		.word	1864655
ARM GAS  /var/folders/lg/77ksxqjx0n7gwph6nqpzcmcw0000gn/T//ccn5JkAm.s 			page 190


 11000 017c ED241E00 		.word	1975533
 11001 0180 CDEF1F00 		.word	2093005
 11002 0184 F5D52100 		.word	2217461
 11003 0188 06D92300 		.word	2349318
 11004 018c B8FA2500 		.word	2489016
 11005 0190 DC3C2800 		.word	2637020
 11006 0194 62A12A00 		.word	2793826
 11007 0198 532A2D00 		.word	2959955
 11008 019c DBD92F00 		.word	3135963
 11009 01a0 46B23200 		.word	3322438
 11010 01a4 00B63500 		.word	3520000
 11011 01a8 9EE73800 		.word	3729310
 11012 01ac DA493C00 		.word	3951066
 11013 01b0 99DF3F00 		.word	4186009
 11014 01b4 EAAB4300 		.word	4434922
 11015 01b8 0CB24700 		.word	4698636
 11016 01bc 70F54B00 		.word	4978032
 11017 01c0 B9795000 		.word	5274041
 11018 01c4 C4425500 		.word	5587652
 11019 01c8 A7545A00 		.word	5919911
 11020 01cc B7B35F00 		.word	6271927
 11021 01d0 8B646500 		.word	6644875
 11022 01d4 006C6B00 		.word	7040000
 11023 01d8 3CCF7100 		.word	7458620
 11024 01dc B5937800 		.word	7902133
 11025 01e0 32BF7F00 		.word	8372018
 11026 01e4 D4578700 		.word	8869844
 11027 01e8 19648F00 		.word	9397273
 11028 01ec DFEA9700 		.word	9956063
 11029 01f0 70F3A000 		.word	10548080
 11030 01f4 8485AA00 		.word	11175300
 11031 01f8 4CA9B400 		.word	11839820
 11032 01fc 6A67BF00 		.word	12543850
 11033              		.section	.data.delay_control_latency_ms,"aw"
 11034              		.align	2
 11035              		.set	.LANCHOR162,. + 0
 11038              	delay_control_latency_ms:
 11039 0000 14000000 		.word	20
 11040              		.section	.data.delay_inactive,"aw"
 11041              		.align	2
 11042              		.set	.LANCHOR116,. + 0
 11045              	delay_inactive:
 11046 0000 01000000 		.word	1
 11047              		.section	.data.delay_spike_counter_r,"aw"
 11048              		.align	2
 11051              	delay_spike_counter_r:
 11052 0000 0000803F 		.word	1065353216
 11053              		.section	.data.filter_current_r_freq,"aw"
 11054              		.align	2
 11055              		.set	.LANCHOR126,. + 0
 11058              	filter_current_r_freq:
 11059 0000 0000003F 		.word	1056964608
 11060              		.section	.data.lofi_lpg_amount,"aw"
 11061              		.align	2
 11062              		.set	.LANCHOR54,. + 0
 11065              	lofi_lpg_amount:
 11066 0000 0000803F 		.word	1065353216
ARM GAS  /var/folders/lg/77ksxqjx0n7gwph6nqpzcmcw0000gn/T//ccn5JkAm.s 			page 191


 11067              		.section	.data.lofi_lpg_decay,"aw"
 11068              		.align	2
 11069              		.set	.LANCHOR56,. + 0
 11072              	lofi_lpg_decay:
 11073 0000 0000803F 		.word	1065353216
 11074              		.section	.data.mlooper_division_1,"aw"
 11075              		.align	2
 11076              		.set	.LANCHOR99,. + 0
 11079              	mlooper_division_1:
 11080 0000 0000803F 		.word	1065353216
 11081              		.section	.data.mlooper_division_2,"aw"
 11082              		.align	2
 11083              		.set	.LANCHOR101,. + 0
 11086              	mlooper_division_2:
 11087 0000 0000803F 		.word	1065353216
 11088              		.section	.data.mlooper_frozen_len,"aw"
 11089              		.align	2
 11090              		.set	.LANCHOR76,. + 0
 11093              	mlooper_frozen_len:
 11094 0000 FFF12B00 		.word	2879999
 11095              		.section	.data.mlooper_len,"aw"
 11096              		.align	2
 11097              		.set	.LANCHOR75,. + 0
 11100              	mlooper_len:
 11101 0000 FFF12B00 		.word	2879999
 11102              		.section	.data.mlooper_play_speed_1,"aw"
 11103              		.align	2
 11104              		.set	.LANCHOR103,. + 0
 11107              	mlooper_play_speed_1:
 11108 0000 0000803F 		.word	1065353216
 11109              		.section	.data.mlooper_play_speed_2,"aw"
 11110              		.align	2
 11111              		.set	.LANCHOR106,. + 0
 11114              	mlooper_play_speed_2:
 11115 0000 0000803F 		.word	1065353216
 11116              		.section	.data.mlooper_volume_att_1,"aw"
 11117              		.align	2
 11118              		.set	.LANCHOR104,. + 0
 11121              	mlooper_volume_att_1:
 11122 0000 0000803F 		.word	1065353216
 11123              		.section	.data.mlooper_volume_att_2,"aw"
 11124              		.align	2
 11125              		.set	.LANCHOR107,. + 0
 11128              	mlooper_volume_att_2:
 11129 0000 0000803F 		.word	1065353216
 11130              		.section	.data.modes,"aw"
 11131              		.align	2
 11134              	modes:
 11135 0000 00000000 		.word	.LC10
 11136 0004 08000000 		.word	.LC11
 11137 0008 14000000 		.word	.LC12
 11138 000c 1C000000 		.word	.LC13
 11139 0010 24000000 		.word	.LC14
 11140 0014 30000000 		.word	.LC15
 11141 0018 38000000 		.word	.LC16
 11142 001c 40000000 		.word	.LC17
 11143 0020 4C000000 		.word	.LC18
ARM GAS  /var/folders/lg/77ksxqjx0n7gwph6nqpzcmcw0000gn/T//ccn5JkAm.s 			page 192


 11144              		.section	.data.resonator_current_regen,"aw"
 11145              		.align	2
 11146              		.set	.LANCHOR122,. + 0
 11149              	resonator_current_regen:
 11150 0000 0000003F 		.word	1056964608
 11151              		.section	.data.resonator_note,"aw"
 11152              		.align	2
 11153              		.set	.LANCHOR27,. + 0
 11156              	resonator_note:
 11157 0000 0000A041 		.word	1101004800
 11158              		.section	.data.resonator_octave,"aw"
 11159              		.align	2
 11160              		.set	.LANCHOR2,. + 0
 11163              	resonator_octave:
 11164 0000 01000000 		.word	1
 11165              		.section	.data.resonator_tone,"aw"
 11166              		.align	2
 11167              		.set	.LANCHOR121,. + 0
 11170              	resonator_tone:
 11171 0000 00803B46 		.word	1178304512
 11172              		.section	.data.reverb_compression,"aw"
 11173              		.align	2
 11174              		.set	.LANCHOR22,. + 0
 11177              	reverb_compression:
 11178 0000 0000803F 		.word	1065353216
 11179              		.section	.data.reverb_shimmer_buffer_size1l,"aw"
 11180              		.align	2
 11181              		.set	.LANCHOR5,. + 0
 11184              	reverb_shimmer_buffer_size1l:
 11185 0000 78480000 		.word	18552
 11186              		.section	.data.reverb_shimmer_buffer_size1r,"aw"
 11187              		.align	2
 11188              		.set	.LANCHOR6,. + 0
 11191              	reverb_shimmer_buffer_size1r:
 11192 0000 304B0000 		.word	19248
 11193              		.section	.data.reverb_shimmer_buffer_size2,"aw"
 11194              		.align	2
 11195              		.set	.LANCHOR8,. + 0
 11198              	reverb_shimmer_buffer_size2:
 11199 0000 601A0100 		.word	72288
 11200              		.section	.data.scale_1,"aw"
 11201              		.align	2
 11202              		.set	.LANCHOR147,. + 0
 11205              	scale_1:
 11206 0000 01       		.byte	1
 11207 0001 00000000 		.space	11
 11207      00000000 
 11207      000000
 11208              		.section	.data.scale_12,"aw"
 11209              		.align	2
 11210              		.set	.LANCHOR140,. + 0
 11213              	scale_12:
 11214 0000 01       		.byte	1
 11215 0001 01       		.byte	1
 11216 0002 01       		.byte	1
 11217 0003 01       		.byte	1
 11218 0004 01       		.byte	1
ARM GAS  /var/folders/lg/77ksxqjx0n7gwph6nqpzcmcw0000gn/T//ccn5JkAm.s 			page 193


 11219 0005 01       		.byte	1
 11220 0006 01       		.byte	1
 11221 0007 01       		.byte	1
 11222 0008 01       		.byte	1
 11223 0009 01       		.byte	1
 11224 000a 01       		.byte	1
 11225 000b 01       		.byte	1
 11226              		.section	.data.scale_2,"aw"
 11227              		.align	2
 11228              		.set	.LANCHOR146,. + 0
 11231              	scale_2:
 11232 0000 01       		.byte	1
 11233 0001 00       		.byte	0
 11234 0002 00       		.byte	0
 11235 0003 00       		.byte	0
 11236 0004 00       		.byte	0
 11237 0005 00       		.byte	0
 11238 0006 00       		.byte	0
 11239 0007 01       		.byte	1
 11240 0008 00000000 		.space	4
 11241              		.section	.data.scale_3,"aw"
 11242              		.align	2
 11243              		.set	.LANCHOR145,. + 0
 11246              	scale_3:
 11247 0000 01       		.byte	1
 11248 0001 00       		.byte	0
 11249 0002 00       		.byte	0
 11250 0003 00       		.byte	0
 11251 0004 00       		.byte	0
 11252 0005 01       		.byte	1
 11253 0006 00       		.byte	0
 11254 0007 01       		.byte	1
 11255 0008 00000000 		.space	4
 11256              		.section	.data.scale_4,"aw"
 11257              		.align	2
 11258              		.set	.LANCHOR144,. + 0
 11261              	scale_4:
 11262 0000 01       		.byte	1
 11263 0001 00       		.byte	0
 11264 0002 01       		.byte	1
 11265 0003 00       		.byte	0
 11266 0004 00       		.byte	0
 11267 0005 01       		.byte	1
 11268 0006 00       		.byte	0
 11269 0007 01       		.byte	1
 11270 0008 00000000 		.space	4
 11271              		.section	.data.scale_5,"aw"
 11272              		.align	2
 11273              		.set	.LANCHOR143,. + 0
 11276              	scale_5:
 11277 0000 01       		.byte	1
 11278 0001 00       		.byte	0
 11279 0002 01       		.byte	1
 11280 0003 00       		.byte	0
 11281 0004 00       		.byte	0
 11282 0005 01       		.byte	1
 11283 0006 00       		.byte	0
ARM GAS  /var/folders/lg/77ksxqjx0n7gwph6nqpzcmcw0000gn/T//ccn5JkAm.s 			page 194


 11284 0007 01       		.byte	1
 11285 0008 00       		.byte	0
 11286 0009 01       		.byte	1
 11287 000a 0000     		.space	2
 11288              		.section	.data.scale_6,"aw"
 11289              		.align	2
 11290              		.set	.LANCHOR142,. + 0
 11293              	scale_6:
 11294 0000 01       		.byte	1
 11295 0001 00       		.byte	0
 11296 0002 01       		.byte	1
 11297 0003 00       		.byte	0
 11298 0004 01       		.byte	1
 11299 0005 01       		.byte	1
 11300 0006 00       		.byte	0
 11301 0007 01       		.byte	1
 11302 0008 00       		.byte	0
 11303 0009 01       		.byte	1
 11304 000a 0000     		.space	2
 11305              		.section	.data.scale_7,"aw"
 11306              		.align	2
 11307              		.set	.LANCHOR141,. + 0
 11310              	scale_7:
 11311 0000 01       		.byte	1
 11312 0001 00       		.byte	0
 11313 0002 01       		.byte	1
 11314 0003 00       		.byte	0
 11315 0004 01       		.byte	1
 11316 0005 01       		.byte	1
 11317 0006 00       		.byte	0
 11318 0007 01       		.byte	1
 11319 0008 00       		.byte	0
 11320 0009 01       		.byte	1
 11321 000a 00       		.byte	0
 11322 000b 01       		.byte	1
 11323              		.section	.data.spectra_hop,"aw"
 11324              		.align	2
 11327              	spectra_hop:
 11328 0000 01000000 		.word	1
 11329              		.section	.data.spectra_num_active,"aw"
 11330              		.align	2
 11331              		.set	.LANCHOR128,. + 0
 11334              	spectra_num_active:
 11335 0000 06000000 		.word	6
 11336              		.section	.data.spectra_spread,"aw"
 11337              		.align	2
 11338              		.set	.LANCHOR129,. + 0
 11341              	spectra_spread:
 11342 0000 0000803F 		.word	1065353216
 11343              		.section	.data.spectra_target_RMS,"aw"
 11344              		.align	2
 11347              	spectra_target_RMS:
 11348 0000 0000803F 		.word	1065353216
 11349              		.section	.data.spectrings_active_voices,"aw"
 11350              		.align	2
 11351              		.set	.LANCHOR170,. + 0
 11354              	spectrings_active_voices:
ARM GAS  /var/folders/lg/77ksxqjx0n7gwph6nqpzcmcw0000gn/T//ccn5JkAm.s 			page 195


 11355 0000 02000000 		.word	2
 11356              		.section	.data.spectrings_num_models,"aw"
 11357              		.align	2
 11360              	spectrings_num_models:
 11361 0000 02000000 		.word	2
 11362              		.section	.data.target_resonator_feedback,"aw"
 11363              		.align	2
 11366              	target_resonator_feedback:
 11367 0000 6F12833A 		.word	981668463
 11368              		.section	.rodata._ZL11delay_times,"a"
 11369              		.align	2
 11370              		.set	.LANCHOR114,. + 0
 11373              	_ZL11delay_times:
 11374 0000 0000003C 		.word	1006632960
 11375 0004 0000803C 		.word	1015021568
 11376 0008 0000003D 		.word	1023410176
 11377 000c ABAA2A3D 		.word	1026206379
 11378 0010 0000403D 		.word	1027604480
 11379 0014 0000803D 		.word	1031798784
 11380 0018 ABAAAA3D 		.word	1034594987
 11381 001c 0000C03D 		.word	1035993088
 11382 0020 0000003E 		.word	1040187392
 11383 0024 ABAA2A3E 		.word	1042983595
 11384 0028 0000403E 		.word	1044381696
 11385 002c 0000803E 		.word	1048576000
 11386 0030 ABAAAA3E 		.word	1051372203
 11387 0034 0000C03E 		.word	1052770304
 11388 0038 0000003F 		.word	1056964608
 11389 003c 0000403F 		.word	1061158912
 11390 0040 0000803F 		.word	1065353216
 11391              		.section	.sdram_bss,"aw"
 11392              		.align	2
 11395              	mlooper_frozen_buf_1r:
 11396 0000 00000000 		.space	11520000
 11396      00000000 
 11396      00000000 
 11396      00000000 
 11396      00000000 
 11399              	mlooper_frozen_buf_1l:
 11400 afc800 00000000 		.space	11520000
 11400      00000000 
 11400      00000000 
 11400      00000000 
 11400      00000000 
 11403              	mlooper_buf_1r:
 11404 15f9000 00000000 		.space	11520000
 11404      00000000 
 11404      00000000 
 11404      00000000 
 11404      00000000 
 11407              	mlooper_buf_1l:
 11408 20f5800 00000000 		.space	11520000
 11408      00000000 
 11408      00000000 
 11408      00000000 
 11408      00000000 
 11411              	_ZL4delr:
ARM GAS  /var/folders/lg/77ksxqjx0n7gwph6nqpzcmcw0000gn/T//ccn5JkAm.s 			page 196


 11412 2bf2000 00000000 		.space	480012
 11412      00000000 
 11412      00000000 
 11412      00000000 
 11412      00000000 
 11415              	_ZL4dell:
 11416 2c6730c 00000000 		.space	480012
 11416      00000000 
 11416      00000000 
 11416      00000000 
 11416      00000000 
 11417              		.hidden	__dso_handle
 11418              		.ident	"GCC: (GNU Arm Embedded Toolchain 9-2020-q2-update) 9.3.1 20200408 (release)"
ARM GAS  /var/folders/lg/77ksxqjx0n7gwph6nqpzcmcw0000gn/T//ccn5JkAm.s 			page 197


DEFINED SYMBOLS
                            *ABS*:0000000000000000 MultiEffect.cpp
/var/folders/lg/77ksxqjx0n7gwph6nqpzcmcw0000gn/T//ccn5JkAm.s:15     .text._ZN7daisysp3SvfD2Ev:0000000000000000 $t
/var/folders/lg/77ksxqjx0n7gwph6nqpzcmcw0000gn/T//ccn5JkAm.s:24     .text._ZN7daisysp3SvfD2Ev:0000000000000000 _ZN7daisysp3SvfD2Ev
/var/folders/lg/77ksxqjx0n7gwph6nqpzcmcw0000gn/T//ccn5JkAm.s:24     .text._ZN7daisysp3SvfD2Ev:0000000000000000 _ZN7daisysp3SvfD1Ev
/var/folders/lg/77ksxqjx0n7gwph6nqpzcmcw0000gn/T//ccn5JkAm.s:33     .text._ZN7daisysp8ReverbScD2Ev:0000000000000000 $t
/var/folders/lg/77ksxqjx0n7gwph6nqpzcmcw0000gn/T//ccn5JkAm.s:41     .text._ZN7daisysp8ReverbScD2Ev:0000000000000000 _ZN7daisysp8ReverbScD2Ev
/var/folders/lg/77ksxqjx0n7gwph6nqpzcmcw0000gn/T//ccn5JkAm.s:41     .text._ZN7daisysp8ReverbScD2Ev:0000000000000000 _ZN7daisysp8ReverbScD1Ev
/var/folders/lg/77ksxqjx0n7gwph6nqpzcmcw0000gn/T//ccn5JkAm.s:50     .text._ZN7daisysp6BiquadD2Ev:0000000000000000 $t
/var/folders/lg/77ksxqjx0n7gwph6nqpzcmcw0000gn/T//ccn5JkAm.s:58     .text._ZN7daisysp6BiquadD2Ev:0000000000000000 _ZN7daisysp6BiquadD2Ev
/var/folders/lg/77ksxqjx0n7gwph6nqpzcmcw0000gn/T//ccn5JkAm.s:58     .text._ZN7daisysp6BiquadD2Ev:0000000000000000 _ZN7daisysp6BiquadD1Ev
/var/folders/lg/77ksxqjx0n7gwph6nqpzcmcw0000gn/T//ccn5JkAm.s:67     .text._ZN7daisysp4ToneD2Ev:0000000000000000 $t
/var/folders/lg/77ksxqjx0n7gwph6nqpzcmcw0000gn/T//ccn5JkAm.s:75     .text._ZN7daisysp4ToneD2Ev:0000000000000000 _ZN7daisysp4ToneD2Ev
/var/folders/lg/77ksxqjx0n7gwph6nqpzcmcw0000gn/T//ccn5JkAm.s:75     .text._ZN7daisysp4ToneD2Ev:0000000000000000 _ZN7daisysp4ToneD1Ev
/var/folders/lg/77ksxqjx0n7gwph6nqpzcmcw0000gn/T//ccn5JkAm.s:84     .text._ZN7daisysp7DcBlockD2Ev:0000000000000000 $t
/var/folders/lg/77ksxqjx0n7gwph6nqpzcmcw0000gn/T//ccn5JkAm.s:92     .text._ZN7daisysp7DcBlockD2Ev:0000000000000000 _ZN7daisysp7DcBlockD2Ev
/var/folders/lg/77ksxqjx0n7gwph6nqpzcmcw0000gn/T//ccn5JkAm.s:92     .text._ZN7daisysp7DcBlockD2Ev:0000000000000000 _ZN7daisysp7DcBlockD1Ev
/var/folders/lg/77ksxqjx0n7gwph6nqpzcmcw0000gn/T//ccn5JkAm.s:101    .text._ZN5daisy9ParameterD2Ev:0000000000000000 $t
/var/folders/lg/77ksxqjx0n7gwph6nqpzcmcw0000gn/T//ccn5JkAm.s:109    .text._ZN5daisy9ParameterD2Ev:0000000000000000 _ZN5daisy9ParameterD2Ev
/var/folders/lg/77ksxqjx0n7gwph6nqpzcmcw0000gn/T//ccn5JkAm.s:109    .text._ZN5daisy9ParameterD2Ev:0000000000000000 _ZN5daisy9ParameterD1Ev
/var/folders/lg/77ksxqjx0n7gwph6nqpzcmcw0000gn/T//ccn5JkAm.s:118    .text._ZN5daisy11DaisyVersioD2Ev:0000000000000000 $t
/var/folders/lg/77ksxqjx0n7gwph6nqpzcmcw0000gn/T//ccn5JkAm.s:126    .text._ZN5daisy11DaisyVersioD2Ev:0000000000000000 _ZN5daisy11DaisyVersioD2Ev
/var/folders/lg/77ksxqjx0n7gwph6nqpzcmcw0000gn/T//ccn5JkAm.s:126    .text._ZN5daisy11DaisyVersioD2Ev:0000000000000000 _ZN5daisy11DaisyVersioD1Ev
/var/folders/lg/77ksxqjx0n7gwph6nqpzcmcw0000gn/T//ccn5JkAm.s:135    .text._ZN6stmlib3SvfD2Ev:0000000000000000 $t
/var/folders/lg/77ksxqjx0n7gwph6nqpzcmcw0000gn/T//ccn5JkAm.s:143    .text._ZN6stmlib3SvfD2Ev:0000000000000000 _ZN6stmlib3SvfD2Ev
/var/folders/lg/77ksxqjx0n7gwph6nqpzcmcw0000gn/T//ccn5JkAm.s:143    .text._ZN6stmlib3SvfD2Ev:0000000000000000 _ZN6stmlib3SvfD1Ev
/var/folders/lg/77ksxqjx0n7gwph6nqpzcmcw0000gn/T//ccn5JkAm.s:152    .text._ZN11LedsControlD2Ev:0000000000000000 $t
/var/folders/lg/77ksxqjx0n7gwph6nqpzcmcw0000gn/T//ccn5JkAm.s:160    .text._ZN11LedsControlD2Ev:0000000000000000 _ZN11LedsControlD2Ev
/var/folders/lg/77ksxqjx0n7gwph6nqpzcmcw0000gn/T//ccn5JkAm.s:160    .text._ZN11LedsControlD2Ev:0000000000000000 _ZN11LedsControlD1Ev
/var/folders/lg/77ksxqjx0n7gwph6nqpzcmcw0000gn/T//ccn5JkAm.s:169    .text._ZN7OscBankD2Ev:0000000000000000 $t
/var/folders/lg/77ksxqjx0n7gwph6nqpzcmcw0000gn/T//ccn5JkAm.s:177    .text._ZN7OscBankD2Ev:0000000000000000 _ZN7OscBankD2Ev
/var/folders/lg/77ksxqjx0n7gwph6nqpzcmcw0000gn/T//ccn5JkAm.s:177    .text._ZN7OscBankD2Ev:0000000000000000 _ZN7OscBankD1Ev
/var/folders/lg/77ksxqjx0n7gwph6nqpzcmcw0000gn/T//ccn5JkAm.s:186    .text._ZN8AveragerD2Ev:0000000000000000 $t
/var/folders/lg/77ksxqjx0n7gwph6nqpzcmcw0000gn/T//ccn5JkAm.s:194    .text._ZN8AveragerD2Ev:0000000000000000 _ZN8AveragerD2Ev
/var/folders/lg/77ksxqjx0n7gwph6nqpzcmcw0000gn/T//ccn5JkAm.s:194    .text._ZN8AveragerD2Ev:0000000000000000 _ZN8AveragerD1Ev
/var/folders/lg/77ksxqjx0n7gwph6nqpzcmcw0000gn/T//ccn5JkAm.s:203    .text.__tcf_0:0000000000000000 $t
/var/folders/lg/77ksxqjx0n7gwph6nqpzcmcw0000gn/T//ccn5JkAm.s:210    .text.__tcf_0:0000000000000000 __tcf_0
/var/folders/lg/77ksxqjx0n7gwph6nqpzcmcw0000gn/T//ccn5JkAm.s:217    .text._ZN7daisysp9DelayLineIfLj120000EED2Ev:0000000000000000 $t
/var/folders/lg/77ksxqjx0n7gwph6nqpzcmcw0000gn/T//ccn5JkAm.s:225    .text._ZN7daisysp9DelayLineIfLj120000EED2Ev:0000000000000000 _ZN7daisysp9DelayLineIfLj120000EED2Ev
/var/folders/lg/77ksxqjx0n7gwph6nqpzcmcw0000gn/T//ccn5JkAm.s:225    .text._ZN7daisysp9DelayLineIfLj120000EED2Ev:0000000000000000 _ZN7daisysp9DelayLineIfLj120000EED1Ev
/var/folders/lg/77ksxqjx0n7gwph6nqpzcmcw0000gn/T//ccn5JkAm.s:234    .text.startup._ZNSt7__cxx1112basic_stringIcSt11char_traitsIcESaIcEEC2EPKcRKS3_.isra.0.constprop.0:0000000000000000 $t
/var/folders/lg/77ksxqjx0n7gwph6nqpzcmcw0000gn/T//ccn5JkAm.s:241    .text.startup._ZNSt7__cxx1112basic_stringIcSt11char_traitsIcESaIcEEC2EPKcRKS3_.isra.0.constprop.0:0000000000000000 _ZNSt7__cxx1112basic_stringIcSt11char_traitsIcESaIcEEC2EPKcRKS3_.isra.0.constprop.0
/var/folders/lg/77ksxqjx0n7gwph6nqpzcmcw0000gn/T//ccn5JkAm.s:253    .text._Z5clampfff:0000000000000000 $t
/var/folders/lg/77ksxqjx0n7gwph6nqpzcmcw0000gn/T//ccn5JkAm.s:261    .text._Z5clampfff:0000000000000000 _Z5clampfff
/var/folders/lg/77ksxqjx0n7gwph6nqpzcmcw0000gn/T//ccn5JkAm.s:277    .text._Z3mapfffff:0000000000000000 $t
/var/folders/lg/77ksxqjx0n7gwph6nqpzcmcw0000gn/T//ccn5JkAm.s:285    .text._Z3mapfffff:0000000000000000 _Z3mapfffff
/var/folders/lg/77ksxqjx0n7gwph6nqpzcmcw0000gn/T//ccn5JkAm.s:298    .text._Z15leftRotatebyOnePfi:0000000000000000 $t
/var/folders/lg/77ksxqjx0n7gwph6nqpzcmcw0000gn/T//ccn5JkAm.s:306    .text._Z15leftRotatebyOnePfi:0000000000000000 _Z15leftRotatebyOnePfi
/var/folders/lg/77ksxqjx0n7gwph6nqpzcmcw0000gn/T//ccn5JkAm.s:329    .text._Z16rightRotatebyOnePfi:0000000000000000 $t
/var/folders/lg/77ksxqjx0n7gwph6nqpzcmcw0000gn/T//ccn5JkAm.s:337    .text._Z16rightRotatebyOnePfi:0000000000000000 _Z16rightRotatebyOnePfi
/var/folders/lg/77ksxqjx0n7gwph6nqpzcmcw0000gn/T//ccn5JkAm.s:359    .text._Z10leftRotatePffi:0000000000000000 $t
/var/folders/lg/77ksxqjx0n7gwph6nqpzcmcw0000gn/T//ccn5JkAm.s:367    .text._Z10leftRotatePffi:0000000000000000 _Z10leftRotatePffi
/var/folders/lg/77ksxqjx0n7gwph6nqpzcmcw0000gn/T//ccn5JkAm.s:407    .text._Z11rightRotatePffi:0000000000000000 $t
/var/folders/lg/77ksxqjx0n7gwph6nqpzcmcw0000gn/T//ccn5JkAm.s:415    .text._Z11rightRotatePffi:0000000000000000 _Z11rightRotatePffi
/var/folders/lg/77ksxqjx0n7gwph6nqpzcmcw0000gn/T//ccn5JkAm.s:454    .text._Z11findClosestPiPbiii:0000000000000000 $t
/var/folders/lg/77ksxqjx0n7gwph6nqpzcmcw0000gn/T//ccn5JkAm.s:462    .text._Z11findClosestPiPbiii:0000000000000000 _Z11findClosestPiPbiii
/var/folders/lg/77ksxqjx0n7gwph6nqpzcmcw0000gn/T//ccn5JkAm.s:526    .text._Z11findClosestPiPbiii:0000000000000094 $d
ARM GAS  /var/folders/lg/77ksxqjx0n7gwph6nqpzcmcw0000gn/T//ccn5JkAm.s 			page 198


/var/folders/lg/77ksxqjx0n7gwph6nqpzcmcw0000gn/T//ccn5JkAm.s:529    .text._Z10getClosestiii:0000000000000000 $t
/var/folders/lg/77ksxqjx0n7gwph6nqpzcmcw0000gn/T//ccn5JkAm.s:537    .text._Z10getClosestiii:0000000000000000 _Z10getClosestiii
/var/folders/lg/77ksxqjx0n7gwph6nqpzcmcw0000gn/T//ccn5JkAm.s:549    .rodata._Z19SelectSpectraOctavef.str1.4:0000000000000000 $d
/var/folders/lg/77ksxqjx0n7gwph6nqpzcmcw0000gn/T//ccn5JkAm.s:565    .text._Z19SelectSpectraOctavef:0000000000000000 $t
/var/folders/lg/77ksxqjx0n7gwph6nqpzcmcw0000gn/T//ccn5JkAm.s:573    .text._Z19SelectSpectraOctavef:0000000000000000 _Z19SelectSpectraOctavef
/var/folders/lg/77ksxqjx0n7gwph6nqpzcmcw0000gn/T//ccn5JkAm.s:664    .text._Z19SelectSpectraOctavef:00000000000000c8 $d
/var/folders/lg/77ksxqjx0n7gwph6nqpzcmcw0000gn/T//ccn5JkAm.s:677    .text._Z4swapPfS_:0000000000000000 $t
/var/folders/lg/77ksxqjx0n7gwph6nqpzcmcw0000gn/T//ccn5JkAm.s:685    .text._Z4swapPfS_:0000000000000000 _Z4swapPfS_
/var/folders/lg/77ksxqjx0n7gwph6nqpzcmcw0000gn/T//ccn5JkAm.s:698    .text._Z10bubbleSortPfS_i:0000000000000000 $t
/var/folders/lg/77ksxqjx0n7gwph6nqpzcmcw0000gn/T//ccn5JkAm.s:706    .text._Z10bubbleSortPfS_i:0000000000000000 _Z10bubbleSortPfS_i
/var/folders/lg/77ksxqjx0n7gwph6nqpzcmcw0000gn/T//ccn5JkAm.s:749    .text._Z11ApplyWindowfjj:0000000000000000 $t
/var/folders/lg/77ksxqjx0n7gwph6nqpzcmcw0000gn/T//ccn5JkAm.s:757    .text._Z11ApplyWindowfjj:0000000000000000 _Z11ApplyWindowfjj
/var/folders/lg/77ksxqjx0n7gwph6nqpzcmcw0000gn/T//ccn5JkAm.s:782    .text._Z11ApplyWindowfjj:0000000000000048 $d
/var/folders/lg/77ksxqjx0n7gwph6nqpzcmcw0000gn/T//ccn5JkAm.s:785    .text._Z21SelectResonatorOctavef:0000000000000000 $t
/var/folders/lg/77ksxqjx0n7gwph6nqpzcmcw0000gn/T//ccn5JkAm.s:793    .text._Z21SelectResonatorOctavef:0000000000000000 _Z21SelectResonatorOctavef
/var/folders/lg/77ksxqjx0n7gwph6nqpzcmcw0000gn/T//ccn5JkAm.s:842    .text._Z21SelectResonatorOctavef:0000000000000064 $d
/var/folders/lg/77ksxqjx0n7gwph6nqpzcmcw0000gn/T//ccn5JkAm.s:849    .text._Z20SelectSpectraQualityf:0000000000000000 $t
/var/folders/lg/77ksxqjx0n7gwph6nqpzcmcw0000gn/T//ccn5JkAm.s:857    .text._Z20SelectSpectraQualityf:0000000000000000 _Z20SelectSpectraQualityf
/var/folders/lg/77ksxqjx0n7gwph6nqpzcmcw0000gn/T//ccn5JkAm.s:901    .text._Z20SelectSpectraQualityf:000000000000005c $d
/var/folders/lg/77ksxqjx0n7gwph6nqpzcmcw0000gn/T//ccn5JkAm.s:9845   .bss._ZL15spectra_oscbank:0000000000000000 _ZL15spectra_oscbank
/var/folders/lg/77ksxqjx0n7gwph6nqpzcmcw0000gn/T//ccn5JkAm.s:904    .text._Z11randomFloatv:0000000000000000 $t
/var/folders/lg/77ksxqjx0n7gwph6nqpzcmcw0000gn/T//ccn5JkAm.s:912    .text._Z11randomFloatv:0000000000000000 _Z11randomFloatv
/var/folders/lg/77ksxqjx0n7gwph6nqpzcmcw0000gn/T//ccn5JkAm.s:931    .text._Z11randomFloatv:000000000000002c $d
/var/folders/lg/77ksxqjx0n7gwph6nqpzcmcw0000gn/T//ccn5JkAm.s:935    .text._Z19WriteShimmerBuffer1ff:0000000000000000 $t
/var/folders/lg/77ksxqjx0n7gwph6nqpzcmcw0000gn/T//ccn5JkAm.s:943    .text._Z19WriteShimmerBuffer1ff:0000000000000000 _Z19WriteShimmerBuffer1ff
/var/folders/lg/77ksxqjx0n7gwph6nqpzcmcw0000gn/T//ccn5JkAm.s:975    .text._Z19WriteShimmerBuffer1ff:0000000000000044 $d
/var/folders/lg/77ksxqjx0n7gwph6nqpzcmcw0000gn/T//ccn5JkAm.s:11407  .sdram_bss:00000000020f5800 mlooper_buf_1l
/var/folders/lg/77ksxqjx0n7gwph6nqpzcmcw0000gn/T//ccn5JkAm.s:11403  .sdram_bss:00000000015f9000 mlooper_buf_1r
/var/folders/lg/77ksxqjx0n7gwph6nqpzcmcw0000gn/T//ccn5JkAm.s:983    .text._Z19WriteShimmerBuffer2ff:0000000000000000 $t
/var/folders/lg/77ksxqjx0n7gwph6nqpzcmcw0000gn/T//ccn5JkAm.s:991    .text._Z19WriteShimmerBuffer2ff:0000000000000000 _Z19WriteShimmerBuffer2ff
/var/folders/lg/77ksxqjx0n7gwph6nqpzcmcw0000gn/T//ccn5JkAm.s:1015   .text._Z19WriteShimmerBuffer2ff:0000000000000030 $d
/var/folders/lg/77ksxqjx0n7gwph6nqpzcmcw0000gn/T//ccn5JkAm.s:11399  .sdram_bss:0000000000afc800 mlooper_frozen_buf_1l
/var/folders/lg/77ksxqjx0n7gwph6nqpzcmcw0000gn/T//ccn5JkAm.s:1020   .text._Z14CompressSamplef:0000000000000000 $t
/var/folders/lg/77ksxqjx0n7gwph6nqpzcmcw0000gn/T//ccn5JkAm.s:1028   .text._Z14CompressSamplef:0000000000000000 _Z14CompressSamplef
/var/folders/lg/77ksxqjx0n7gwph6nqpzcmcw0000gn/T//ccn5JkAm.s:1137   .text._Z14CompressSamplef:0000000000000150 $d
/var/folders/lg/77ksxqjx0n7gwph6nqpzcmcw0000gn/T//ccn5JkAm.s:1156   .text._Z15GetReverbSampleRfS_ff:0000000000000000 $t
/var/folders/lg/77ksxqjx0n7gwph6nqpzcmcw0000gn/T//ccn5JkAm.s:1164   .text._Z15GetReverbSampleRfS_ff:0000000000000000 _Z15GetReverbSampleRfS_ff
/var/folders/lg/77ksxqjx0n7gwph6nqpzcmcw0000gn/T//ccn5JkAm.s:1400   .text._Z15GetReverbSampleRfS_ff:0000000000000318 $d
/var/folders/lg/77ksxqjx0n7gwph6nqpzcmcw0000gn/T//ccn5JkAm.s:9900   .bss._ZL3rev:0000000000000000 _ZL3rev
/var/folders/lg/77ksxqjx0n7gwph6nqpzcmcw0000gn/T//ccn5JkAm.s:1424   .text._Z15GetReverbSampleRfS_ff:0000000000000374 $t
/var/folders/lg/77ksxqjx0n7gwph6nqpzcmcw0000gn/T//ccn5JkAm.s:1669   .text._Z15GetReverbSampleRfS_ff:0000000000000660 $d
/var/folders/lg/77ksxqjx0n7gwph6nqpzcmcw0000gn/T//ccn5JkAm.s:1689   .text._Z18GetResonatorSampleRfS_ff:0000000000000000 $t
/var/folders/lg/77ksxqjx0n7gwph6nqpzcmcw0000gn/T//ccn5JkAm.s:1697   .text._Z18GetResonatorSampleRfS_ff:0000000000000000 _Z18GetResonatorSampleRfS_ff
/var/folders/lg/77ksxqjx0n7gwph6nqpzcmcw0000gn/T//ccn5JkAm.s:1965   .text._Z18GetResonatorSampleRfS_ff:00000000000003a0 $d
/var/folders/lg/77ksxqjx0n7gwph6nqpzcmcw0000gn/T//ccn5JkAm.s:11411  .sdram_bss:0000000002bf2000 _ZL4delr
/var/folders/lg/77ksxqjx0n7gwph6nqpzcmcw0000gn/T//ccn5JkAm.s:11415  .sdram_bss:0000000002c6730c _ZL4dell
/var/folders/lg/77ksxqjx0n7gwph6nqpzcmcw0000gn/T//ccn5JkAm.s:2004   .text._Z18GetResonatorSampleRfS_ff:0000000000000438 $t
/var/folders/lg/77ksxqjx0n7gwph6nqpzcmcw0000gn/T//ccn5JkAm.s:2190   .text._Z18GetResonatorSampleRfS_ff:0000000000000680 $d
/var/folders/lg/77ksxqjx0n7gwph6nqpzcmcw0000gn/T//ccn5JkAm.s:2206   .text._Z16GetFilterSamplesPfS_S_S_j:0000000000000000 $t
/var/folders/lg/77ksxqjx0n7gwph6nqpzcmcw0000gn/T//ccn5JkAm.s:2214   .text._Z16GetFilterSamplesPfS_S_S_j:0000000000000000 _Z16GetFilterSamplesPfS_S_S_j
/var/folders/lg/77ksxqjx0n7gwph6nqpzcmcw0000gn/T//ccn5JkAm.s:2392   .text._Z16GetFilterSamplesPfS_S_S_j:000000000000022c $d
/var/folders/lg/77ksxqjx0n7gwph6nqpzcmcw0000gn/T//ccn5JkAm.s:2401   .text._Z13GetLofiSampleRfS_ff:0000000000000000 $t
/var/folders/lg/77ksxqjx0n7gwph6nqpzcmcw0000gn/T//ccn5JkAm.s:2409   .text._Z13GetLofiSampleRfS_ff:0000000000000000 _Z13GetLofiSampleRfS_ff
/var/folders/lg/77ksxqjx0n7gwph6nqpzcmcw0000gn/T//ccn5JkAm.s:2681   .text._Z13GetLofiSampleRfS_ff:00000000000003a0 $d
/var/folders/lg/77ksxqjx0n7gwph6nqpzcmcw0000gn/T//ccn5JkAm.s:2724   .text._Z13GetLofiSampleRfS_ff:0000000000000448 $t
/var/folders/lg/77ksxqjx0n7gwph6nqpzcmcw0000gn/T//ccn5JkAm.s:3036   .text._Z13GetLofiSampleRfS_ff:0000000000000870 $d
/var/folders/lg/77ksxqjx0n7gwph6nqpzcmcw0000gn/T//ccn5JkAm.s:3063   .text._Z13GetLofiSampleRfS_ff:00000000000008d8 $t
ARM GAS  /var/folders/lg/77ksxqjx0n7gwph6nqpzcmcw0000gn/T//ccn5JkAm.s 			page 199


/var/folders/lg/77ksxqjx0n7gwph6nqpzcmcw0000gn/T//ccn5JkAm.s:3180   .text._Z13GetLofiSampleRfS_ff:0000000000000a28 $d
/var/folders/lg/77ksxqjx0n7gwph6nqpzcmcw0000gn/T//ccn5JkAm.s:3195   .text._Z17ResetLooperBufferv:0000000000000000 $t
/var/folders/lg/77ksxqjx0n7gwph6nqpzcmcw0000gn/T//ccn5JkAm.s:3203   .text._Z17ResetLooperBufferv:0000000000000000 _Z17ResetLooperBufferv
/var/folders/lg/77ksxqjx0n7gwph6nqpzcmcw0000gn/T//ccn5JkAm.s:3248   .text._Z17ResetLooperBufferv:0000000000000054 $d
/var/folders/lg/77ksxqjx0n7gwph6nqpzcmcw0000gn/T//ccn5JkAm.s:11395  .sdram_bss:0000000000000000 mlooper_frozen_buf_1r
/var/folders/lg/77ksxqjx0n7gwph6nqpzcmcw0000gn/T//ccn5JkAm.s:3265   .text.startup.main:0000000000000000 $t
/var/folders/lg/77ksxqjx0n7gwph6nqpzcmcw0000gn/T//ccn5JkAm.s:3273   .text.startup.main:0000000000000000 main
/var/folders/lg/77ksxqjx0n7gwph6nqpzcmcw0000gn/T//ccn5JkAm.s:3533   .text.startup.main:0000000000000328 $d
/var/folders/lg/77ksxqjx0n7gwph6nqpzcmcw0000gn/T//ccn5JkAm.s:3593   .text.startup.main:0000000000000414 $t
/var/folders/lg/77ksxqjx0n7gwph6nqpzcmcw0000gn/T//ccn5JkAm.s:3714   .text.startup.main:0000000000000588 $d
/var/folders/lg/77ksxqjx0n7gwph6nqpzcmcw0000gn/T//ccn5JkAm.s:9804   .bss._ZL12string_voice:0000000000000000 _ZL12string_voice
/var/folders/lg/77ksxqjx0n7gwph6nqpzcmcw0000gn/T//ccn5JkAm.s:8348   .text._ZL13AudioCallbackPPfS0_j:0000000000000000 _ZL13AudioCallbackPPfS0_j
/var/folders/lg/77ksxqjx0n7gwph6nqpzcmcw0000gn/T//ccn5JkAm.s:3731   .text._Z17WriteLooperBufferff:0000000000000000 $t
/var/folders/lg/77ksxqjx0n7gwph6nqpzcmcw0000gn/T//ccn5JkAm.s:3739   .text._Z17WriteLooperBufferff:0000000000000000 _Z17WriteLooperBufferff
/var/folders/lg/77ksxqjx0n7gwph6nqpzcmcw0000gn/T//ccn5JkAm.s:3779   .text._Z17WriteLooperBufferff:0000000000000054 $d
/var/folders/lg/77ksxqjx0n7gwph6nqpzcmcw0000gn/T//ccn5JkAm.s:3789   .text._Z18FreezeLooperBufferv:0000000000000000 $t
/var/folders/lg/77ksxqjx0n7gwph6nqpzcmcw0000gn/T//ccn5JkAm.s:3797   .text._Z18FreezeLooperBufferv:0000000000000000 _Z18FreezeLooperBufferv
/var/folders/lg/77ksxqjx0n7gwph6nqpzcmcw0000gn/T//ccn5JkAm.s:3819   .text._Z18FreezeLooperBufferv:0000000000000020 $d
/var/folders/lg/77ksxqjx0n7gwph6nqpzcmcw0000gn/T//ccn5JkAm.s:3827   .rodata._Z20SelectLooperDivisionff.str1.4:0000000000000000 $d
/var/folders/lg/77ksxqjx0n7gwph6nqpzcmcw0000gn/T//ccn5JkAm.s:3843   .text._Z20SelectLooperDivisionff:0000000000000000 $t
/var/folders/lg/77ksxqjx0n7gwph6nqpzcmcw0000gn/T//ccn5JkAm.s:3851   .text._Z20SelectLooperDivisionff:0000000000000000 _Z20SelectLooperDivisionff
/var/folders/lg/77ksxqjx0n7gwph6nqpzcmcw0000gn/T//ccn5JkAm.s:4028   .text._Z20SelectLooperDivisionff:00000000000001a0 $d
/var/folders/lg/77ksxqjx0n7gwph6nqpzcmcw0000gn/T//ccn5JkAm.s:4043   .text._Z21SelectLooperPlaySpeedff:0000000000000000 $t
/var/folders/lg/77ksxqjx0n7gwph6nqpzcmcw0000gn/T//ccn5JkAm.s:4051   .text._Z21SelectLooperPlaySpeedff:0000000000000000 _Z21SelectLooperPlaySpeedff
/var/folders/lg/77ksxqjx0n7gwph6nqpzcmcw0000gn/T//ccn5JkAm.s:4256   .text._Z21SelectLooperPlaySpeedff:00000000000001e4 $d
/var/folders/lg/77ksxqjx0n7gwph6nqpzcmcw0000gn/T//ccn5JkAm.s:4274   .text._Z19GetSampleFromBufferPff:0000000000000000 $t
/var/folders/lg/77ksxqjx0n7gwph6nqpzcmcw0000gn/T//ccn5JkAm.s:4282   .text._Z19GetSampleFromBufferPff:0000000000000000 _Z19GetSampleFromBufferPff
/var/folders/lg/77ksxqjx0n7gwph6nqpzcmcw0000gn/T//ccn5JkAm.s:4313   .text._Z19GetSampleFromBufferPff:0000000000000050 $d
/var/folders/lg/77ksxqjx0n7gwph6nqpzcmcw0000gn/T//ccn5JkAm.s:4317   .text._Z15GetLooperSampleRfS_ff:0000000000000000 $t
/var/folders/lg/77ksxqjx0n7gwph6nqpzcmcw0000gn/T//ccn5JkAm.s:4325   .text._Z15GetLooperSampleRfS_ff:0000000000000000 _Z15GetLooperSampleRfS_ff
/var/folders/lg/77ksxqjx0n7gwph6nqpzcmcw0000gn/T//ccn5JkAm.s:4562   .text._Z15GetLooperSampleRfS_ff:000000000000031c $d
/var/folders/lg/77ksxqjx0n7gwph6nqpzcmcw0000gn/T//ccn5JkAm.s:4592   .text._Z15GetLooperSampleRfS_ff:0000000000000390 $t
/var/folders/lg/77ksxqjx0n7gwph6nqpzcmcw0000gn/T//ccn5JkAm.s:4915   .text._Z15GetLooperSampleRfS_ff:00000000000007f4 $d
/var/folders/lg/77ksxqjx0n7gwph6nqpzcmcw0000gn/T//ccn5JkAm.s:4933   .text._Z15GetLooperSampleRfS_ff:0000000000000838 $t
/var/folders/lg/77ksxqjx0n7gwph6nqpzcmcw0000gn/T//ccn5JkAm.s:5009   .text._Z15GetLooperSampleRfS_ff:0000000000000934 $d
/var/folders/lg/77ksxqjx0n7gwph6nqpzcmcw0000gn/T//ccn5JkAm.s:5015   .text._Z19SelectDelayDivisionff:0000000000000000 $t
/var/folders/lg/77ksxqjx0n7gwph6nqpzcmcw0000gn/T//ccn5JkAm.s:5023   .text._Z19SelectDelayDivisionff:0000000000000000 _Z19SelectDelayDivisionff
/var/folders/lg/77ksxqjx0n7gwph6nqpzcmcw0000gn/T//ccn5JkAm.s:5070   .text._Z19SelectDelayDivisionff:0000000000000080 $d
/var/folders/lg/77ksxqjx0n7gwph6nqpzcmcw0000gn/T//ccn5JkAm.s:5078   .text._Z11UpdateKnobsv:0000000000000000 $t
/var/folders/lg/77ksxqjx0n7gwph6nqpzcmcw0000gn/T//ccn5JkAm.s:5086   .text._Z11UpdateKnobsv:0000000000000000 _Z11UpdateKnobsv
/var/folders/lg/77ksxqjx0n7gwph6nqpzcmcw0000gn/T//ccn5JkAm.s:5167   .text._Z11UpdateKnobsv:00000000000000c6 $d
/var/folders/lg/77ksxqjx0n7gwph6nqpzcmcw0000gn/T//ccn5JkAm.s:5175   .text._Z11UpdateKnobsv:00000000000000d6 $t
/var/folders/lg/77ksxqjx0n7gwph6nqpzcmcw0000gn/T//ccn5JkAm.s:5356   .text._Z11UpdateKnobsv:00000000000002dc $d
/var/folders/lg/77ksxqjx0n7gwph6nqpzcmcw0000gn/T//ccn5JkAm.s:5393   .text._Z11UpdateKnobsv:000000000000036c $t
/var/folders/lg/77ksxqjx0n7gwph6nqpzcmcw0000gn/T//ccn5JkAm.s:5591   .text._Z11UpdateKnobsv:00000000000005e0 $d
/var/folders/lg/77ksxqjx0n7gwph6nqpzcmcw0000gn/T//ccn5JkAm.s:5638   .text._Z11UpdateKnobsv:0000000000000698 $t
/var/folders/lg/77ksxqjx0n7gwph6nqpzcmcw0000gn/T//ccn5JkAm.s:5797   .text._Z11UpdateKnobsv:0000000000000870 $d
/var/folders/lg/77ksxqjx0n7gwph6nqpzcmcw0000gn/T//ccn5JkAm.s:5842   .text._Z11UpdateKnobsv:0000000000000920 $t
/var/folders/lg/77ksxqjx0n7gwph6nqpzcmcw0000gn/T//ccn5JkAm.s:5996   .text._Z11UpdateKnobsv:0000000000000ac4 $d
/var/folders/lg/77ksxqjx0n7gwph6nqpzcmcw0000gn/T//ccn5JkAm.s:6009   .text._Z11UpdateKnobsv:0000000000000ae8 $d
/var/folders/lg/77ksxqjx0n7gwph6nqpzcmcw0000gn/T//ccn5JkAm.s:6040   .text._Z11UpdateKnobsv:0000000000000b60 $t
/var/folders/lg/77ksxqjx0n7gwph6nqpzcmcw0000gn/T//ccn5JkAm.s:6291   .text._Z11UpdateKnobsv:0000000000000ed8 $d
/var/folders/lg/77ksxqjx0n7gwph6nqpzcmcw0000gn/T//ccn5JkAm.s:6341   .text._Z11UpdateKnobsv:0000000000000f9c $t
/var/folders/lg/77ksxqjx0n7gwph6nqpzcmcw0000gn/T//ccn5JkAm.s:6570   .text._Z11UpdateKnobsv:000000000000121c $d
/var/folders/lg/77ksxqjx0n7gwph6nqpzcmcw0000gn/T//ccn5JkAm.s:6624   .text._Z11UpdateKnobsv:0000000000001280 $d
/var/folders/lg/77ksxqjx0n7gwph6nqpzcmcw0000gn/T//ccn5JkAm.s:6679   .text._Z11UpdateKnobsv:0000000000001358 $t
/var/folders/lg/77ksxqjx0n7gwph6nqpzcmcw0000gn/T//ccn5JkAm.s:6755   .text._Z11UpdateKnobsv:0000000000001406 $d
ARM GAS  /var/folders/lg/77ksxqjx0n7gwph6nqpzcmcw0000gn/T//ccn5JkAm.s 			page 200


/var/folders/lg/77ksxqjx0n7gwph6nqpzcmcw0000gn/T//ccn5JkAm.s:6958   .text._Z11UpdateKnobsv:00000000000015f0 $d
/var/folders/lg/77ksxqjx0n7gwph6nqpzcmcw0000gn/T//ccn5JkAm.s:6990   .text._Z8Controlsv:0000000000000000 $t
/var/folders/lg/77ksxqjx0n7gwph6nqpzcmcw0000gn/T//ccn5JkAm.s:6998   .text._Z8Controlsv:0000000000000000 _Z8Controlsv
/var/folders/lg/77ksxqjx0n7gwph6nqpzcmcw0000gn/T//ccn5JkAm.s:7016   .text._Z8Controlsv:0000000000000020 $d
/var/folders/lg/77ksxqjx0n7gwph6nqpzcmcw0000gn/T//ccn5JkAm.s:7022   .text._Z16WriteDelayBufferff:0000000000000000 $t
/var/folders/lg/77ksxqjx0n7gwph6nqpzcmcw0000gn/T//ccn5JkAm.s:7030   .text._Z16WriteDelayBufferff:0000000000000000 _Z16WriteDelayBufferff
/var/folders/lg/77ksxqjx0n7gwph6nqpzcmcw0000gn/T//ccn5JkAm.s:7057   .text._Z16WriteDelayBufferff:0000000000000034 $d
/var/folders/lg/77ksxqjx0n7gwph6nqpzcmcw0000gn/T//ccn5JkAm.s:7065   .text._Z14GetDelaySampleRfS_ff:0000000000000000 $t
/var/folders/lg/77ksxqjx0n7gwph6nqpzcmcw0000gn/T//ccn5JkAm.s:7073   .text._Z14GetDelaySampleRfS_ff:0000000000000000 _Z14GetDelaySampleRfS_ff
/var/folders/lg/77ksxqjx0n7gwph6nqpzcmcw0000gn/T//ccn5JkAm.s:7331   .text._Z14GetDelaySampleRfS_ff:0000000000000378 $d
/var/folders/lg/77ksxqjx0n7gwph6nqpzcmcw0000gn/T//ccn5JkAm.s:7375   .text._Z14GetDelaySampleRfS_ff:0000000000000424 $t
/var/folders/lg/77ksxqjx0n7gwph6nqpzcmcw0000gn/T//ccn5JkAm.s:7655   .text._Z14GetDelaySampleRfS_ff:00000000000007a8 $d
/var/folders/lg/77ksxqjx0n7gwph6nqpzcmcw0000gn/T//ccn5JkAm.s:7687   .text._Z14GetDelaySampleRfS_ff:0000000000000824 $t
/var/folders/lg/77ksxqjx0n7gwph6nqpzcmcw0000gn/T//ccn5JkAm.s:7902   .text._Z14GetDelaySampleRfS_ff:0000000000000ab0 $d
/var/folders/lg/77ksxqjx0n7gwph6nqpzcmcw0000gn/T//ccn5JkAm.s:7916   .text._Z16GetSpectraSampleRfS_ff:0000000000000000 $t
/var/folders/lg/77ksxqjx0n7gwph6nqpzcmcw0000gn/T//ccn5JkAm.s:7924   .text._Z16GetSpectraSampleRfS_ff:0000000000000000 _Z16GetSpectraSampleRfS_ff
/var/folders/lg/77ksxqjx0n7gwph6nqpzcmcw0000gn/T//ccn5JkAm.s:8095   .text._Z16GetSpectraSampleRfS_ff:0000000000000220 $d
/var/folders/lg/77ksxqjx0n7gwph6nqpzcmcw0000gn/T//ccn5JkAm.s:8112   .text._Z19GetSpectringsSampleRfS_ff:0000000000000000 $t
/var/folders/lg/77ksxqjx0n7gwph6nqpzcmcw0000gn/T//ccn5JkAm.s:8120   .text._Z19GetSpectringsSampleRfS_ff:0000000000000000 _Z19GetSpectringsSampleRfS_ff
/var/folders/lg/77ksxqjx0n7gwph6nqpzcmcw0000gn/T//ccn5JkAm.s:8320   .text._Z19GetSpectringsSampleRfS_ff:0000000000000288 $d
/var/folders/lg/77ksxqjx0n7gwph6nqpzcmcw0000gn/T//ccn5JkAm.s:8341   .text._ZL13AudioCallbackPPfS0_j:0000000000000000 $t
/var/folders/lg/77ksxqjx0n7gwph6nqpzcmcw0000gn/T//ccn5JkAm.s:8411   .text._ZL13AudioCallbackPPfS0_j:00000000000000a0 $d
/var/folders/lg/77ksxqjx0n7gwph6nqpzcmcw0000gn/T//ccn5JkAm.s:8419   .text._ZL13AudioCallbackPPfS0_j:00000000000000a8 $t
/var/folders/lg/77ksxqjx0n7gwph6nqpzcmcw0000gn/T//ccn5JkAm.s:8636   .text._ZL13AudioCallbackPPfS0_j:00000000000002d0 $d
/var/folders/lg/77ksxqjx0n7gwph6nqpzcmcw0000gn/T//ccn5JkAm.s:8651   .text._ZL13AudioCallbackPPfS0_j:0000000000000308 $t
/var/folders/lg/77ksxqjx0n7gwph6nqpzcmcw0000gn/T//ccn5JkAm.s:8940   .text._ZL13AudioCallbackPPfS0_j:000000000000063c $d
/var/folders/lg/77ksxqjx0n7gwph6nqpzcmcw0000gn/T//ccn5JkAm.s:9524   .rodata._ZN6ShyFFTIfLj1024E14RotationPhasorE16bit_rev_256_lut_E:0000000000000000 _ZN6ShyFFTIfLj1024E14RotationPhasorE16bit_rev_256_lut_E
/var/folders/lg/77ksxqjx0n7gwph6nqpzcmcw0000gn/T//ccn5JkAm.s:8953   .text._ZL13AudioCallbackPPfS0_j:000000000000066c $t
/var/folders/lg/77ksxqjx0n7gwph6nqpzcmcw0000gn/T//ccn5JkAm.s:9167   .text._ZL13AudioCallbackPPfS0_j:0000000000000900 $d
/var/folders/lg/77ksxqjx0n7gwph6nqpzcmcw0000gn/T//ccn5JkAm.s:9188   .text.startup._GLOBAL__sub_I_versio:0000000000000000 $t
/var/folders/lg/77ksxqjx0n7gwph6nqpzcmcw0000gn/T//ccn5JkAm.s:9195   .text.startup._GLOBAL__sub_I_versio:0000000000000000 _GLOBAL__sub_I_versio
/var/folders/lg/77ksxqjx0n7gwph6nqpzcmcw0000gn/T//ccn5JkAm.s:9461   .text.startup._GLOBAL__sub_I_versio:0000000000000284 $d
/var/folders/lg/77ksxqjx0n7gwph6nqpzcmcw0000gn/T//ccn5JkAm.s:9517   .init_array:0000000000000000 $d
/var/folders/lg/77ksxqjx0n7gwph6nqpzcmcw0000gn/T//ccn5JkAm.s:9521   .rodata._ZN6ShyFFTIfLj1024E14RotationPhasorE16bit_rev_256_lut_E:0000000000000000 $d
/var/folders/lg/77ksxqjx0n7gwph6nqpzcmcw0000gn/T//ccn5JkAm.s:10884  .bss.spectrings_pan_spread:0000000000000000 spectrings_pan_spread
/var/folders/lg/77ksxqjx0n7gwph6nqpzcmcw0000gn/T//ccn5JkAm.s:10870  .bss.spectrings_decay_amount:0000000000000000 spectrings_decay_amount
/var/folders/lg/77ksxqjx0n7gwph6nqpzcmcw0000gn/T//ccn5JkAm.s:10843  .bss.spectrings_accent_amount:0000000000000000 spectrings_accent_amount
/var/folders/lg/77ksxqjx0n7gwph6nqpzcmcw0000gn/T//ccn5JkAm.s:10849  .bss.spectrings_attack_last_step:0000000000000000 spectrings_attack_last_step
/var/folders/lg/77ksxqjx0n7gwph6nqpzcmcw0000gn/T//ccn5JkAm.s:10856  .bss.spectrings_attack_step:0000000000000000 spectrings_attack_step
/var/folders/lg/77ksxqjx0n7gwph6nqpzcmcw0000gn/T//ccn5JkAm.s:10877  .bss.spectrings_drywet:0000000000000000 spectrings_drywet
/var/folders/lg/77ksxqjx0n7gwph6nqpzcmcw0000gn/T//ccn5JkAm.s:10890  .bss.spectrings_trigger_next_cycle:0000000000000000 spectrings_trigger_next_cycle
/var/folders/lg/77ksxqjx0n7gwph6nqpzcmcw0000gn/T//ccn5JkAm.s:10863  .bss.spectrings_current_voice:0000000000000000 spectrings_current_voice
/var/folders/lg/77ksxqjx0n7gwph6nqpzcmcw0000gn/T//ccn5JkAm.s:11354  .data.spectrings_active_voices:0000000000000000 spectrings_active_voices
/var/folders/lg/77ksxqjx0n7gwph6nqpzcmcw0000gn/T//ccn5JkAm.s:11360  .data.spectrings_num_models:0000000000000000 spectrings_num_models
/var/folders/lg/77ksxqjx0n7gwph6nqpzcmcw0000gn/T//ccn5JkAm.s:10823  .bss.spectra_selected_scale:0000000000000000 spectra_selected_scale
/var/folders/lg/77ksxqjx0n7gwph6nqpzcmcw0000gn/T//ccn5JkAm.s:10789  .bss.spectra_quantize:0000000000000000 spectra_quantize
/var/folders/lg/77ksxqjx0n7gwph6nqpzcmcw0000gn/T//ccn5JkAm.s:10830  .bss.spectra_transpose:0000000000000000 spectra_transpose
/var/folders/lg/77ksxqjx0n7gwph6nqpzcmcw0000gn/T//ccn5JkAm.s:10816  .bss.spectra_rotate_harmonics:0000000000000000 spectra_rotate_harmonics
/var/folders/lg/77ksxqjx0n7gwph6nqpzcmcw0000gn/T//ccn5JkAm.s:11341  .data.spectra_spread:0000000000000000 spectra_spread
/var/folders/lg/77ksxqjx0n7gwph6nqpzcmcw0000gn/T//ccn5JkAm.s:11347  .data.spectra_target_RMS:0000000000000000 spectra_target_RMS
/var/folders/lg/77ksxqjx0n7gwph6nqpzcmcw0000gn/T//ccn5JkAm.s:10735  .bss.spectra_current_RMS:0000000000000000 spectra_current_RMS
/var/folders/lg/77ksxqjx0n7gwph6nqpzcmcw0000gn/T//ccn5JkAm.s:10809  .bss.spectra_rmsCount:0000000000000000 spectra_rmsCount
/var/folders/lg/77ksxqjx0n7gwph6nqpzcmcw0000gn/T//ccn5JkAm.s:10741  .bss.spectra_do_analisys:0000000000000000 spectra_do_analisys
/var/folders/lg/77ksxqjx0n7gwph6nqpzcmcw0000gn/T//ccn5JkAm.s:10803  .bss.spectra_reverb_amount:0000000000000000 spectra_reverb_amount
/var/folders/lg/77ksxqjx0n7gwph6nqpzcmcw0000gn/T//ccn5JkAm.s:9756   .bss._Z18spectra_oct_stringB5cxx11:0000000000000000 _Z18spectra_oct_stringB5cxx11
/var/folders/lg/77ksxqjx0n7gwph6nqpzcmcw0000gn/T//ccn5JkAm.s:10775  .bss.spectra_oct_mult:0000000000000000 spectra_oct_mult
/var/folders/lg/77ksxqjx0n7gwph6nqpzcmcw0000gn/T//ccn5JkAm.s:10762  .bss.spectra_lower_harmonics:0000000000000000 spectra_lower_harmonics
ARM GAS  /var/folders/lg/77ksxqjx0n7gwph6nqpzcmcw0000gn/T//ccn5JkAm.s 			page 201


/var/folders/lg/77ksxqjx0n7gwph6nqpzcmcw0000gn/T//ccn5JkAm.s:10748  .bss.spectra_drywet:0000000000000000 spectra_drywet
/var/folders/lg/77ksxqjx0n7gwph6nqpzcmcw0000gn/T//ccn5JkAm.s:11327  .data.spectra_hop:0000000000000000 spectra_hop
/var/folders/lg/77ksxqjx0n7gwph6nqpzcmcw0000gn/T//ccn5JkAm.s:10768  .bss.spectra_oct:0000000000000000 spectra_oct
/var/folders/lg/77ksxqjx0n7gwph6nqpzcmcw0000gn/T//ccn5JkAm.s:11334  .data.spectra_num_active:0000000000000000 spectra_num_active
/var/folders/lg/77ksxqjx0n7gwph6nqpzcmcw0000gn/T//ccn5JkAm.s:10782  .bss.spectra_prev_knob_wave_knob:0000000000000000 spectra_prev_knob_wave_knob
/var/folders/lg/77ksxqjx0n7gwph6nqpzcmcw0000gn/T//ccn5JkAm.s:10729  .bss.spectra_b:0000000000000000 spectra_b
/var/folders/lg/77ksxqjx0n7gwph6nqpzcmcw0000gn/T//ccn5JkAm.s:10755  .bss.spectra_g:0000000000000000 spectra_g
/var/folders/lg/77ksxqjx0n7gwph6nqpzcmcw0000gn/T//ccn5JkAm.s:10796  .bss.spectra_r:0000000000000000 spectra_r
/var/folders/lg/77ksxqjx0n7gwph6nqpzcmcw0000gn/T//ccn5JkAm.s:10836  .bss.spectra_waveform:0000000000000000 spectra_waveform
/var/folders/lg/77ksxqjx0n7gwph6nqpzcmcw0000gn/T//ccn5JkAm.s:10012  .bss.delay_fast_feedback_RMS:0000000000000000 delay_fast_feedback_RMS
/var/folders/lg/77ksxqjx0n7gwph6nqpzcmcw0000gn/T//ccn5JkAm.s:10026  .bss.delay_feedback_RMS:0000000000000000 delay_feedback_RMS
/var/folders/lg/77ksxqjx0n7gwph6nqpzcmcw0000gn/T//ccn5JkAm.s:10174  .bss.delay_target_RMS:0000000000000000 delay_target_RMS
/var/folders/lg/77ksxqjx0n7gwph6nqpzcmcw0000gn/T//ccn5JkAm.s:10161  .bss.delay_rmsCount:0000000000000000 delay_rmsCount
/var/folders/lg/77ksxqjx0n7gwph6nqpzcmcw0000gn/T//ccn5JkAm.s:11051  .data.delay_spike_counter_r:0000000000000000 delay_spike_counter_r
/var/folders/lg/77ksxqjx0n7gwph6nqpzcmcw0000gn/T//ccn5JkAm.s:10167  .bss.delay_spike_counter_l:0000000000000000 delay_spike_counter_l
/var/folders/lg/77ksxqjx0n7gwph6nqpzcmcw0000gn/T//ccn5JkAm.s:10140  .bss.delay_reduce_spikes_r:0000000000000000 delay_reduce_spikes_r
/var/folders/lg/77ksxqjx0n7gwph6nqpzcmcw0000gn/T//ccn5JkAm.s:10135  .bss.delay_reduce_spikes_l:0000000000000000 delay_reduce_spikes_l
/var/folders/lg/77ksxqjx0n7gwph6nqpzcmcw0000gn/T//ccn5JkAm.s:10130  .bss.delay_prev_sample_r:0000000000000000 delay_prev_sample_r
/var/folders/lg/77ksxqjx0n7gwph6nqpzcmcw0000gn/T//ccn5JkAm.s:10123  .bss.delay_prev_sample_l:0000000000000000 delay_prev_sample_l
/var/folders/lg/77ksxqjx0n7gwph6nqpzcmcw0000gn/T//ccn5JkAm.s:10032  .bss.delay_frozen:0000000000000000 delay_frozen
/var/folders/lg/77ksxqjx0n7gwph6nqpzcmcw0000gn/T//ccn5JkAm.s:10005  .bss.delay_drywet:0000000000000000 delay_drywet
/var/folders/lg/77ksxqjx0n7gwph6nqpzcmcw0000gn/T//ccn5JkAm.s:9998   .bss.delay_cutoff:0000000000000000 delay_cutoff
/var/folders/lg/77ksxqjx0n7gwph6nqpzcmcw0000gn/T//ccn5JkAm.s:10181  .bss.delay_target_cutoff:0000000000000000 delay_target_cutoff
/var/folders/lg/77ksxqjx0n7gwph6nqpzcmcw0000gn/T//ccn5JkAm.s:10046  .bss.delay_frozen_pos:0000000000000000 delay_frozen_pos
/var/folders/lg/77ksxqjx0n7gwph6nqpzcmcw0000gn/T//ccn5JkAm.s:10039  .bss.delay_frozen_end:0000000000000000 delay_frozen_end
/var/folders/lg/77ksxqjx0n7gwph6nqpzcmcw0000gn/T//ccn5JkAm.s:10053  .bss.delay_frozen_start:0000000000000000 delay_frozen_start
/var/folders/lg/77ksxqjx0n7gwph6nqpzcmcw0000gn/T//ccn5JkAm.s:10223  .bss.delay_xfade_target:0000000000000000 delay_xfade_target
/var/folders/lg/77ksxqjx0n7gwph6nqpzcmcw0000gn/T//ccn5JkAm.s:10216  .bss.delay_xfade_current:0000000000000000 delay_xfade_current
/var/folders/lg/77ksxqjx0n7gwph6nqpzcmcw0000gn/T//ccn5JkAm.s:11045  .data.delay_inactive:0000000000000000 delay_inactive
/var/folders/lg/77ksxqjx0n7gwph6nqpzcmcw0000gn/T//ccn5JkAm.s:9984   .bss.delay_active:0000000000000000 delay_active
/var/folders/lg/77ksxqjx0n7gwph6nqpzcmcw0000gn/T//ccn5JkAm.s:10074  .bss.delay_main_counter:0000000000000000 delay_main_counter
/var/folders/lg/77ksxqjx0n7gwph6nqpzcmcw0000gn/T//ccn5JkAm.s:10154  .bss.delay_right_counter_4:0000000000000000 delay_right_counter_4
/var/folders/lg/77ksxqjx0n7gwph6nqpzcmcw0000gn/T//ccn5JkAm.s:10067  .bss.delay_left_counter_4:0000000000000000 delay_left_counter_4
/var/folders/lg/77ksxqjx0n7gwph6nqpzcmcw0000gn/T//ccn5JkAm.s:10147  .bss.delay_right_counter:0000000000000000 delay_right_counter
/var/folders/lg/77ksxqjx0n7gwph6nqpzcmcw0000gn/T//ccn5JkAm.s:10060  .bss.delay_left_counter:0000000000000000 delay_left_counter
/var/folders/lg/77ksxqjx0n7gwph6nqpzcmcw0000gn/T//ccn5JkAm.s:10102  .bss.delay_outr:0000000000000000 delay_outr
/var/folders/lg/77ksxqjx0n7gwph6nqpzcmcw0000gn/T//ccn5JkAm.s:10095  .bss.delay_outl:0000000000000000 delay_outl
/var/folders/lg/77ksxqjx0n7gwph6nqpzcmcw0000gn/T//ccn5JkAm.s:10188  .bss.delay_time:0000000000000000 delay_time
/var/folders/lg/77ksxqjx0n7gwph6nqpzcmcw0000gn/T//ccn5JkAm.s:10116  .bss.delay_pos_r:0000000000000000 delay_pos_r
/var/folders/lg/77ksxqjx0n7gwph6nqpzcmcw0000gn/T//ccn5JkAm.s:10109  .bss.delay_pos_l:0000000000000000 delay_pos_l
/var/folders/lg/77ksxqjx0n7gwph6nqpzcmcw0000gn/T//ccn5JkAm.s:11038  .data.delay_control_latency_ms:0000000000000000 delay_control_latency_ms
/var/folders/lg/77ksxqjx0n7gwph6nqpzcmcw0000gn/T//ccn5JkAm.s:10202  .bss.delay_time_trig:0000000000000000 delay_time_trig
/var/folders/lg/77ksxqjx0n7gwph6nqpzcmcw0000gn/T//ccn5JkAm.s:9991   .bss.delay_control_counter:0000000000000000 delay_control_counter
/var/folders/lg/77ksxqjx0n7gwph6nqpzcmcw0000gn/T//ccn5JkAm.s:10209  .bss.delay_write_pos:0000000000000000 delay_write_pos
/var/folders/lg/77ksxqjx0n7gwph6nqpzcmcw0000gn/T//ccn5JkAm.s:10195  .bss.delay_time_count:0000000000000000 delay_time_count
/var/folders/lg/77ksxqjx0n7gwph6nqpzcmcw0000gn/T//ccn5JkAm.s:10019  .bss.delay_feedback:0000000000000000 delay_feedback
/var/folders/lg/77ksxqjx0n7gwph6nqpzcmcw0000gn/T//ccn5JkAm.s:10088  .bss.delay_mult_r:0000000000000000 delay_mult_r
/var/folders/lg/77ksxqjx0n7gwph6nqpzcmcw0000gn/T//ccn5JkAm.s:10081  .bss.delay_mult_l:0000000000000000 delay_mult_l
/var/folders/lg/77ksxqjx0n7gwph6nqpzcmcw0000gn/T//ccn5JkAm.s:9784   .bss._Z27mlooper_play_speed_string_2B5cxx11:0000000000000000 _Z27mlooper_play_speed_string_2B5cxx11
/var/folders/lg/77ksxqjx0n7gwph6nqpzcmcw0000gn/T//ccn5JkAm.s:9777   .bss._Z27mlooper_play_speed_string_1B5cxx11:0000000000000000 _Z27mlooper_play_speed_string_1B5cxx11
/var/folders/lg/77ksxqjx0n7gwph6nqpzcmcw0000gn/T//ccn5JkAm.s:11128  .data.mlooper_volume_att_2:0000000000000000 mlooper_volume_att_2
/var/folders/lg/77ksxqjx0n7gwph6nqpzcmcw0000gn/T//ccn5JkAm.s:11121  .data.mlooper_volume_att_1:0000000000000000 mlooper_volume_att_1
/var/folders/lg/77ksxqjx0n7gwph6nqpzcmcw0000gn/T//ccn5JkAm.s:11114  .data.mlooper_play_speed_2:0000000000000000 mlooper_play_speed_2
/var/folders/lg/77ksxqjx0n7gwph6nqpzcmcw0000gn/T//ccn5JkAm.s:11107  .data.mlooper_play_speed_1:0000000000000000 mlooper_play_speed_1
/var/folders/lg/77ksxqjx0n7gwph6nqpzcmcw0000gn/T//ccn5JkAm.s:9770   .bss._Z25mlooper_division_string_2B5cxx11:0000000000000000 _Z25mlooper_division_string_2B5cxx11
/var/folders/lg/77ksxqjx0n7gwph6nqpzcmcw0000gn/T//ccn5JkAm.s:9763   .bss._Z25mlooper_division_string_1B5cxx11:0000000000000000 _Z25mlooper_division_string_1B5cxx11
/var/folders/lg/77ksxqjx0n7gwph6nqpzcmcw0000gn/T//ccn5JkAm.s:11086  .data.mlooper_division_2:0000000000000000 mlooper_division_2
ARM GAS  /var/folders/lg/77ksxqjx0n7gwph6nqpzcmcw0000gn/T//ccn5JkAm.s 			page 202


/var/folders/lg/77ksxqjx0n7gwph6nqpzcmcw0000gn/T//ccn5JkAm.s:11079  .data.mlooper_division_1:0000000000000000 mlooper_division_1
/var/folders/lg/77ksxqjx0n7gwph6nqpzcmcw0000gn/T//ccn5JkAm.s:10445  .bss.mlooper_writer_outside_pos:0000000000000000 mlooper_writer_outside_pos
/var/folders/lg/77ksxqjx0n7gwph6nqpzcmcw0000gn/T//ccn5JkAm.s:10452  .bss.mlooper_writer_pos:0000000000000000 mlooper_writer_pos
/var/folders/lg/77ksxqjx0n7gwph6nqpzcmcw0000gn/T//ccn5JkAm.s:10397  .bss.mlooper_frozen:0000000000000000 mlooper_frozen
/var/folders/lg/77ksxqjx0n7gwph6nqpzcmcw0000gn/T//ccn5JkAm.s:11093  .data.mlooper_frozen_len:0000000000000000 mlooper_frozen_len
/var/folders/lg/77ksxqjx0n7gwph6nqpzcmcw0000gn/T//ccn5JkAm.s:10411  .bss.mlooper_frozen_pos_2:0000000000000000 mlooper_frozen_pos_2
/var/folders/lg/77ksxqjx0n7gwph6nqpzcmcw0000gn/T//ccn5JkAm.s:10404  .bss.mlooper_frozen_pos_1:0000000000000000 mlooper_frozen_pos_1
/var/folders/lg/77ksxqjx0n7gwph6nqpzcmcw0000gn/T//ccn5JkAm.s:10391  .bss.mlooper_drywet:0000000000000000 mlooper_drywet
/var/folders/lg/77ksxqjx0n7gwph6nqpzcmcw0000gn/T//ccn5JkAm.s:10418  .bss.mlooper_len_count:0000000000000000 mlooper_len_count
/var/folders/lg/77ksxqjx0n7gwph6nqpzcmcw0000gn/T//ccn5JkAm.s:11100  .data.mlooper_len:0000000000000000 mlooper_len
/var/folders/lg/77ksxqjx0n7gwph6nqpzcmcw0000gn/T//ccn5JkAm.s:10487  .bss.modified_frozen_buffer_length_r:0000000000000000 modified_frozen_buffer_length_r
/var/folders/lg/77ksxqjx0n7gwph6nqpzcmcw0000gn/T//ccn5JkAm.s:10480  .bss.modified_frozen_buffer_length_l:0000000000000000 modified_frozen_buffer_length_l
/var/folders/lg/77ksxqjx0n7gwph6nqpzcmcw0000gn/T//ccn5JkAm.s:10473  .bss.modified_buffer_length_r:0000000000000000 modified_buffer_length_r
/var/folders/lg/77ksxqjx0n7gwph6nqpzcmcw0000gn/T//ccn5JkAm.s:10466  .bss.modified_buffer_length_l:0000000000000000 modified_buffer_length_l
/var/folders/lg/77ksxqjx0n7gwph6nqpzcmcw0000gn/T//ccn5JkAm.s:10438  .bss.mlooper_pos_2:0000000000000000 mlooper_pos_2
/var/folders/lg/77ksxqjx0n7gwph6nqpzcmcw0000gn/T//ccn5JkAm.s:10431  .bss.mlooper_pos_1:0000000000000000 mlooper_pos_1
/var/folders/lg/77ksxqjx0n7gwph6nqpzcmcw0000gn/T//ccn5JkAm.s:10424  .bss.mlooper_play:0000000000000000 mlooper_play
/var/folders/lg/77ksxqjx0n7gwph6nqpzcmcw0000gn/T//ccn5JkAm.s:11072  .data.lofi_lpg_decay:0000000000000000 lofi_lpg_decay
/var/folders/lg/77ksxqjx0n7gwph6nqpzcmcw0000gn/T//ccn5JkAm.s:11065  .data.lofi_lpg_amount:0000000000000000 lofi_lpg_amount
/var/folders/lg/77ksxqjx0n7gwph6nqpzcmcw0000gn/T//ccn5JkAm.s:10328  .bss.lofi_drywet:0000000000000000 lofi_drywet
/var/folders/lg/77ksxqjx0n7gwph6nqpzcmcw0000gn/T//ccn5JkAm.s:10300  .bss.lofi_current_right_saturation:0000000000000000 lofi_current_right_saturation
/var/folders/lg/77ksxqjx0n7gwph6nqpzcmcw0000gn/T//ccn5JkAm.s:10293  .bss.lofi_current_left_saturation:0000000000000000 lofi_current_left_saturation
/var/folders/lg/77ksxqjx0n7gwph6nqpzcmcw0000gn/T//ccn5JkAm.s:10349  .bss.lofi_previous_right_saturation:0000000000000000 lofi_previous_right_saturation
/var/folders/lg/77ksxqjx0n7gwph6nqpzcmcw0000gn/T//ccn5JkAm.s:10342  .bss.lofi_previous_left_saturation:0000000000000000 lofi_previous_left_saturation
/var/folders/lg/77ksxqjx0n7gwph6nqpzcmcw0000gn/T//ccn5JkAm.s:10272  .bss.global_sample_rate:0000000000000000 global_sample_rate
/var/folders/lg/77ksxqjx0n7gwph6nqpzcmcw0000gn/T//ccn5JkAm.s:10356  .bss.lofi_previous_variable_compressor:0000000000000000 lofi_previous_variable_compressor
/var/folders/lg/77ksxqjx0n7gwph6nqpzcmcw0000gn/T//ccn5JkAm.s:10279  .bss.lofi_current_Lofi_LFO_Freq:0000000000000000 lofi_current_Lofi_LFO_Freq
/var/folders/lg/77ksxqjx0n7gwph6nqpzcmcw0000gn/T//ccn5JkAm.s:10377  .bss.lofi_target_Lofi_LFO_Freq:0000000000000000 lofi_target_Lofi_LFO_Freq
/var/folders/lg/77ksxqjx0n7gwph6nqpzcmcw0000gn/T//ccn5JkAm.s:10307  .bss.lofi_cutoff:0000000000000000 lofi_cutoff
/var/folders/lg/77ksxqjx0n7gwph6nqpzcmcw0000gn/T//ccn5JkAm.s:10370  .bss.lofi_rmsCount:0000000000000000 lofi_rmsCount
/var/folders/lg/77ksxqjx0n7gwph6nqpzcmcw0000gn/T//ccn5JkAm.s:10363  .bss.lofi_rate_count:0000000000000000 lofi_rate_count
/var/folders/lg/77ksxqjx0n7gwph6nqpzcmcw0000gn/T//ccn5JkAm.s:10335  .bss.lofi_mod:0000000000000000 lofi_mod
/var/folders/lg/77ksxqjx0n7gwph6nqpzcmcw0000gn/T//ccn5JkAm.s:10321  .bss.lofi_depth:0000000000000000 lofi_depth
/var/folders/lg/77ksxqjx0n7gwph6nqpzcmcw0000gn/T//ccn5JkAm.s:10314  .bss.lofi_damp_speed:0000000000000000 lofi_damp_speed
/var/folders/lg/77ksxqjx0n7gwph6nqpzcmcw0000gn/T//ccn5JkAm.s:10384  .bss.lofi_target_RMS:0000000000000000 lofi_target_RMS
/var/folders/lg/77ksxqjx0n7gwph6nqpzcmcw0000gn/T//ccn5JkAm.s:10286  .bss.lofi_current_RMS:0000000000000000 lofi_current_RMS
/var/folders/lg/77ksxqjx0n7gwph6nqpzcmcw0000gn/T//ccn5JkAm.s:11058  .data.filter_current_r_freq:0000000000000000 filter_current_r_freq
/var/folders/lg/77ksxqjx0n7gwph6nqpzcmcw0000gn/T//ccn5JkAm.s:10230  .bss.filter_current_l_freq:0000000000000000 filter_current_l_freq
/var/folders/lg/77ksxqjx0n7gwph6nqpzcmcw0000gn/T//ccn5JkAm.s:10265  .bss.filter_target_r_freq:0000000000000000 filter_target_r_freq
/var/folders/lg/77ksxqjx0n7gwph6nqpzcmcw0000gn/T//ccn5JkAm.s:10258  .bss.filter_target_l_freq:0000000000000000 filter_target_l_freq
/var/folders/lg/77ksxqjx0n7gwph6nqpzcmcw0000gn/T//ccn5JkAm.s:10251  .bss.filter_path:0000000000000000 filter_path
/var/folders/lg/77ksxqjx0n7gwph6nqpzcmcw0000gn/T//ccn5JkAm.s:10244  .bss.filter_mode_r:0000000000000000 filter_mode_r
/var/folders/lg/77ksxqjx0n7gwph6nqpzcmcw0000gn/T//ccn5JkAm.s:10237  .bss.filter_mode_l:0000000000000000 filter_mode_l
/var/folders/lg/77ksxqjx0n7gwph6nqpzcmcw0000gn/T//ccn5JkAm.s:10549  .bss.resonator_glide_mode:0000000000000000 resonator_glide_mode
/var/folders/lg/77ksxqjx0n7gwph6nqpzcmcw0000gn/T//ccn5JkAm.s:10542  .bss.resonator_glide:0000000000000000 resonator_glide
/var/folders/lg/77ksxqjx0n7gwph6nqpzcmcw0000gn/T//ccn5JkAm.s:11163  .data.resonator_octave:0000000000000000 resonator_octave
/var/folders/lg/77ksxqjx0n7gwph6nqpzcmcw0000gn/T//ccn5JkAm.s:10515  .bss.resonator_drywet:0000000000000000 resonator_drywet
/var/folders/lg/77ksxqjx0n7gwph6nqpzcmcw0000gn/T//ccn5JkAm.s:10577  .bss.resonator_target:0000000000000000 resonator_target
/var/folders/lg/77ksxqjx0n7gwph6nqpzcmcw0000gn/T//ccn5JkAm.s:10522  .bss.resonator_feedback:0000000000000000 resonator_feedback
/var/folders/lg/77ksxqjx0n7gwph6nqpzcmcw0000gn/T//ccn5JkAm.s:10508  .bss.resonator_current_delay:0000000000000000 resonator_current_delay
/var/folders/lg/77ksxqjx0n7gwph6nqpzcmcw0000gn/T//ccn5JkAm.s:10529  .bss.resonator_feedback_RMS:0000000000000000 resonator_feedback_RMS
/var/folders/lg/77ksxqjx0n7gwph6nqpzcmcw0000gn/T//ccn5JkAm.s:10584  .bss.resonator_target_RMS:0000000000000000 resonator_target_RMS
/var/folders/lg/77ksxqjx0n7gwph6nqpzcmcw0000gn/T//ccn5JkAm.s:10501  .bss.resonator_current_RMS:0000000000000000 resonator_current_RMS
/var/folders/lg/77ksxqjx0n7gwph6nqpzcmcw0000gn/T//ccn5JkAm.s:10563  .bss.resonator_previous_r:0000000000000000 resonator_previous_r
/var/folders/lg/77ksxqjx0n7gwph6nqpzcmcw0000gn/T//ccn5JkAm.s:10556  .bss.resonator_previous_l:0000000000000000 resonator_previous_l
/var/folders/lg/77ksxqjx0n7gwph6nqpzcmcw0000gn/T//ccn5JkAm.s:10570  .bss.resonator_rmsCount:0000000000000000 resonator_rmsCount
/var/folders/lg/77ksxqjx0n7gwph6nqpzcmcw0000gn/T//ccn5JkAm.s:11366  .data.target_resonator_feedback:0000000000000000 target_resonator_feedback
ARM GAS  /var/folders/lg/77ksxqjx0n7gwph6nqpzcmcw0000gn/T//ccn5JkAm.s 			page 203


/var/folders/lg/77ksxqjx0n7gwph6nqpzcmcw0000gn/T//ccn5JkAm.s:11149  .data.resonator_current_regen:0000000000000000 resonator_current_regen
/var/folders/lg/77ksxqjx0n7gwph6nqpzcmcw0000gn/T//ccn5JkAm.s:10535  .bss.resonator_feedback_display:0000000000000000 resonator_feedback_display
/var/folders/lg/77ksxqjx0n7gwph6nqpzcmcw0000gn/T//ccn5JkAm.s:11170  .data.resonator_tone:0000000000000000 resonator_tone
/var/folders/lg/77ksxqjx0n7gwph6nqpzcmcw0000gn/T//ccn5JkAm.s:11156  .data.resonator_note:0000000000000000 resonator_note
/var/folders/lg/77ksxqjx0n7gwph6nqpzcmcw0000gn/T//ccn5JkAm.s:11177  .data.reverb_compression:0000000000000000 reverb_compression
/var/folders/lg/77ksxqjx0n7gwph6nqpzcmcw0000gn/T//ccn5JkAm.s:10722  .bss.reverb_target_compression:0000000000000000 reverb_target_compression
/var/folders/lg/77ksxqjx0n7gwph6nqpzcmcw0000gn/T//ccn5JkAm.s:10626  .bss.reverb_feedback_RMS:0000000000000000 reverb_feedback_RMS
/var/folders/lg/77ksxqjx0n7gwph6nqpzcmcw0000gn/T//ccn5JkAm.s:10715  .bss.reverb_target_RMS:0000000000000000 reverb_target_RMS
/var/folders/lg/77ksxqjx0n7gwph6nqpzcmcw0000gn/T//ccn5JkAm.s:10591  .bss.reverb_current_RMS:0000000000000000 reverb_current_RMS
/var/folders/lg/77ksxqjx0n7gwph6nqpzcmcw0000gn/T//ccn5JkAm.s:10659  .bss.reverb_rmsCount:0000000000000000 reverb_rmsCount
/var/folders/lg/77ksxqjx0n7gwph6nqpzcmcw0000gn/T//ccn5JkAm.s:10633  .bss.reverb_feedback_display:0000000000000000 reverb_feedback_display
/var/folders/lg/77ksxqjx0n7gwph6nqpzcmcw0000gn/T//ccn5JkAm.s:10605  .bss.reverb_current_outr:0000000000000000 reverb_current_outr
/var/folders/lg/77ksxqjx0n7gwph6nqpzcmcw0000gn/T//ccn5JkAm.s:10598  .bss.reverb_current_outl:0000000000000000 reverb_current_outl
/var/folders/lg/77ksxqjx0n7gwph6nqpzcmcw0000gn/T//ccn5JkAm.s:10652  .bss.reverb_previous_inr:0000000000000000 reverb_previous_inr
/var/folders/lg/77ksxqjx0n7gwph6nqpzcmcw0000gn/T//ccn5JkAm.s:10646  .bss.reverb_previous_inl:0000000000000000 reverb_previous_inl
/var/folders/lg/77ksxqjx0n7gwph6nqpzcmcw0000gn/T//ccn5JkAm.s:11198  .data.reverb_shimmer_buffer_size2:0000000000000000 reverb_shimmer_buffer_size2
/var/folders/lg/77ksxqjx0n7gwph6nqpzcmcw0000gn/T//ccn5JkAm.s:11191  .data.reverb_shimmer_buffer_size1r:0000000000000000 reverb_shimmer_buffer_size1r
/var/folders/lg/77ksxqjx0n7gwph6nqpzcmcw0000gn/T//ccn5JkAm.s:11184  .data.reverb_shimmer_buffer_size1l:0000000000000000 reverb_shimmer_buffer_size1l
/var/folders/lg/77ksxqjx0n7gwph6nqpzcmcw0000gn/T//ccn5JkAm.s:10687  .bss.reverb_shimmer_play_pos2:0000000000000000 reverb_shimmer_play_pos2
/var/folders/lg/77ksxqjx0n7gwph6nqpzcmcw0000gn/T//ccn5JkAm.s:10680  .bss.reverb_shimmer_play_pos1r:0000000000000000 reverb_shimmer_play_pos1r
/var/folders/lg/77ksxqjx0n7gwph6nqpzcmcw0000gn/T//ccn5JkAm.s:10673  .bss.reverb_shimmer_play_pos1l:0000000000000000 reverb_shimmer_play_pos1l
/var/folders/lg/77ksxqjx0n7gwph6nqpzcmcw0000gn/T//ccn5JkAm.s:10708  .bss.reverb_shimmer_write_pos2:0000000000000000 reverb_shimmer_write_pos2
/var/folders/lg/77ksxqjx0n7gwph6nqpzcmcw0000gn/T//ccn5JkAm.s:10701  .bss.reverb_shimmer_write_pos1r:0000000000000000 reverb_shimmer_write_pos1r
/var/folders/lg/77ksxqjx0n7gwph6nqpzcmcw0000gn/T//ccn5JkAm.s:10694  .bss.reverb_shimmer_write_pos1l:0000000000000000 reverb_shimmer_write_pos1l
/var/folders/lg/77ksxqjx0n7gwph6nqpzcmcw0000gn/T//ccn5JkAm.s:10666  .bss.reverb_shimmer:0000000000000000 reverb_shimmer
/var/folders/lg/77ksxqjx0n7gwph6nqpzcmcw0000gn/T//ccn5JkAm.s:10640  .bss.reverb_lowpass:0000000000000000 reverb_lowpass
/var/folders/lg/77ksxqjx0n7gwph6nqpzcmcw0000gn/T//ccn5JkAm.s:10619  .bss.reverb_feedback:0000000000000000 reverb_feedback
/var/folders/lg/77ksxqjx0n7gwph6nqpzcmcw0000gn/T//ccn5JkAm.s:10612  .bss.reverb_drywet:0000000000000000 reverb_drywet
/var/folders/lg/77ksxqjx0n7gwph6nqpzcmcw0000gn/T//ccn5JkAm.s:9977   .bss.attack_lut:0000000000000000 attack_lut
/var/folders/lg/77ksxqjx0n7gwph6nqpzcmcw0000gn/T//ccn5JkAm.s:10494  .bss.previous_mode:0000000000000000 previous_mode
/var/folders/lg/77ksxqjx0n7gwph6nqpzcmcw0000gn/T//ccn5JkAm.s:10459  .bss.mode:0000000000000000 mode
/var/folders/lg/77ksxqjx0n7gwph6nqpzcmcw0000gn/T//ccn5JkAm.s:11205  .data.scale_1:0000000000000000 scale_1
/var/folders/lg/77ksxqjx0n7gwph6nqpzcmcw0000gn/T//ccn5JkAm.s:11231  .data.scale_2:0000000000000000 scale_2
/var/folders/lg/77ksxqjx0n7gwph6nqpzcmcw0000gn/T//ccn5JkAm.s:11246  .data.scale_3:0000000000000000 scale_3
/var/folders/lg/77ksxqjx0n7gwph6nqpzcmcw0000gn/T//ccn5JkAm.s:11261  .data.scale_4:0000000000000000 scale_4
/var/folders/lg/77ksxqjx0n7gwph6nqpzcmcw0000gn/T//ccn5JkAm.s:11276  .data.scale_5:0000000000000000 scale_5
/var/folders/lg/77ksxqjx0n7gwph6nqpzcmcw0000gn/T//ccn5JkAm.s:11293  .data.scale_6:0000000000000000 scale_6
/var/folders/lg/77ksxqjx0n7gwph6nqpzcmcw0000gn/T//ccn5JkAm.s:11310  .data.scale_7:0000000000000000 scale_7
/var/folders/lg/77ksxqjx0n7gwph6nqpzcmcw0000gn/T//ccn5JkAm.s:11213  .data.scale_12:0000000000000000 scale_12
/var/folders/lg/77ksxqjx0n7gwph6nqpzcmcw0000gn/T//ccn5JkAm.s:10904  .data.CHRM_SCALE:0000000000000000 CHRM_SCALE
/var/folders/lg/77ksxqjx0n7gwph6nqpzcmcw0000gn/T//ccn5JkAm.s:11134  .data.modes:0000000000000000 modes
/var/folders/lg/77ksxqjx0n7gwph6nqpzcmcw0000gn/T//ccn5JkAm.s:9723   .rodata.str1.4:0000000000000000 $d
/var/folders/lg/77ksxqjx0n7gwph6nqpzcmcw0000gn/T//ccn5JkAm.s:10897  .bss.versio:0000000000000000 versio
/var/folders/lg/77ksxqjx0n7gwph6nqpzcmcw0000gn/T//ccn5JkAm.s:9752   .bss._Z18spectra_oct_stringB5cxx11:0000000000000000 $d
/var/folders/lg/77ksxqjx0n7gwph6nqpzcmcw0000gn/T//ccn5JkAm.s:9759   .bss._Z25mlooper_division_string_1B5cxx11:0000000000000000 $d
/var/folders/lg/77ksxqjx0n7gwph6nqpzcmcw0000gn/T//ccn5JkAm.s:9766   .bss._Z25mlooper_division_string_2B5cxx11:0000000000000000 $d
/var/folders/lg/77ksxqjx0n7gwph6nqpzcmcw0000gn/T//ccn5JkAm.s:9773   .bss._Z27mlooper_play_speed_string_1B5cxx11:0000000000000000 $d
/var/folders/lg/77ksxqjx0n7gwph6nqpzcmcw0000gn/T//ccn5JkAm.s:9780   .bss._Z27mlooper_play_speed_string_2B5cxx11:0000000000000000 $d
/var/folders/lg/77ksxqjx0n7gwph6nqpzcmcw0000gn/T//ccn5JkAm.s:9787   .bss._ZL10dcblock_2l:0000000000000000 $d
/var/folders/lg/77ksxqjx0n7gwph6nqpzcmcw0000gn/T//ccn5JkAm.s:9791   .bss._ZL10dcblock_2l:0000000000000000 _ZL10dcblock_2l
/var/folders/lg/77ksxqjx0n7gwph6nqpzcmcw0000gn/T//ccn5JkAm.s:9794   .bss._ZL10dcblock_2r:0000000000000000 $d
/var/folders/lg/77ksxqjx0n7gwph6nqpzcmcw0000gn/T//ccn5JkAm.s:9798   .bss._ZL10dcblock_2r:0000000000000000 _ZL10dcblock_2r
/var/folders/lg/77ksxqjx0n7gwph6nqpzcmcw0000gn/T//ccn5JkAm.s:9801   .bss._ZL12string_voice:0000000000000000 $d
/var/folders/lg/77ksxqjx0n7gwph6nqpzcmcw0000gn/T//ccn5JkAm.s:9807   .bss._ZL13lofi_averager:0000000000000000 $d
/var/folders/lg/77ksxqjx0n7gwph6nqpzcmcw0000gn/T//ccn5JkAm.s:9811   .bss._ZL13lofi_averager:0000000000000000 _ZL13lofi_averager
/var/folders/lg/77ksxqjx0n7gwph6nqpzcmcw0000gn/T//ccn5JkAm.s:9814   .bss._ZL13lofi_rate_par:0000000000000000 $d
/var/folders/lg/77ksxqjx0n7gwph6nqpzcmcw0000gn/T//ccn5JkAm.s:9818   .bss._ZL13lofi_rate_par:0000000000000000 _ZL13lofi_rate_par
ARM GAS  /var/folders/lg/77ksxqjx0n7gwph6nqpzcmcw0000gn/T//ccn5JkAm.s 			page 204


/var/folders/lg/77ksxqjx0n7gwph6nqpzcmcw0000gn/T//ccn5JkAm.s:9821   .bss._ZL13lofi_tone_par:0000000000000000 $d
/var/folders/lg/77ksxqjx0n7gwph6nqpzcmcw0000gn/T//ccn5JkAm.s:9825   .bss._ZL13lofi_tone_par:0000000000000000 _ZL13lofi_tone_par
/var/folders/lg/77ksxqjx0n7gwph6nqpzcmcw0000gn/T//ccn5JkAm.s:9828   .bss._ZL14delay_averager:0000000000000000 $d
/var/folders/lg/77ksxqjx0n7gwph6nqpzcmcw0000gn/T//ccn5JkAm.s:9832   .bss._ZL14delay_averager:0000000000000000 _ZL14delay_averager
/var/folders/lg/77ksxqjx0n7gwph6nqpzcmcw0000gn/T//ccn5JkAm.s:9835   .bss._ZL15reverb_averager:0000000000000000 $d
/var/folders/lg/77ksxqjx0n7gwph6nqpzcmcw0000gn/T//ccn5JkAm.s:9839   .bss._ZL15reverb_averager:0000000000000000 _ZL15reverb_averager
/var/folders/lg/77ksxqjx0n7gwph6nqpzcmcw0000gn/T//ccn5JkAm.s:9842   .bss._ZL15spectra_oscbank:0000000000000000 $d
/var/folders/lg/77ksxqjx0n7gwph6nqpzcmcw0000gn/T//ccn5JkAm.s:9848   .bss._ZL16delay_cutoff_par:0000000000000000 $d
/var/folders/lg/77ksxqjx0n7gwph6nqpzcmcw0000gn/T//ccn5JkAm.s:9852   .bss._ZL16delay_cutoff_par:0000000000000000 _ZL16delay_cutoff_par
/var/folders/lg/77ksxqjx0n7gwph6nqpzcmcw0000gn/T//ccn5JkAm.s:9855   .bss._ZL16spectra_averager:0000000000000000 $d
/var/folders/lg/77ksxqjx0n7gwph6nqpzcmcw0000gn/T//ccn5JkAm.s:9859   .bss._ZL16spectra_averager:0000000000000000 _ZL16spectra_averager
/var/folders/lg/77ksxqjx0n7gwph6nqpzcmcw0000gn/T//ccn5JkAm.s:9862   .bss._ZL18resonator_averager:0000000000000000 $d
/var/folders/lg/77ksxqjx0n7gwph6nqpzcmcw0000gn/T//ccn5JkAm.s:9866   .bss._ZL18resonator_averager:0000000000000000 _ZL18resonator_averager
/var/folders/lg/77ksxqjx0n7gwph6nqpzcmcw0000gn/T//ccn5JkAm.s:9869   .bss._ZL19filter_cutoff_l_par:0000000000000000 $d
/var/folders/lg/77ksxqjx0n7gwph6nqpzcmcw0000gn/T//ccn5JkAm.s:9873   .bss._ZL19filter_cutoff_l_par:0000000000000000 _ZL19filter_cutoff_l_par
/var/folders/lg/77ksxqjx0n7gwph6nqpzcmcw0000gn/T//ccn5JkAm.s:9876   .bss._ZL19filter_cutoff_r_par:0000000000000000 $d
/var/folders/lg/77ksxqjx0n7gwph6nqpzcmcw0000gn/T//ccn5JkAm.s:9880   .bss._ZL19filter_cutoff_r_par:0000000000000000 _ZL19filter_cutoff_r_par
/var/folders/lg/77ksxqjx0n7gwph6nqpzcmcw0000gn/T//ccn5JkAm.s:9883   .bss._ZL20lofi_reverb_rate_par:0000000000000000 $d
/var/folders/lg/77ksxqjx0n7gwph6nqpzcmcw0000gn/T//ccn5JkAm.s:9887   .bss._ZL20lofi_reverb_rate_par:0000000000000000 _ZL20lofi_reverb_rate_par
/var/folders/lg/77ksxqjx0n7gwph6nqpzcmcw0000gn/T//ccn5JkAm.s:9890   .bss._ZL20lofi_reverb_tone_par:0000000000000000 $d
/var/folders/lg/77ksxqjx0n7gwph6nqpzcmcw0000gn/T//ccn5JkAm.s:9894   .bss._ZL20lofi_reverb_tone_par:0000000000000000 _ZL20lofi_reverb_tone_par
/var/folders/lg/77ksxqjx0n7gwph6nqpzcmcw0000gn/T//ccn5JkAm.s:9897   .bss._ZL3rev:0000000000000000 $d
/var/folders/lg/77ksxqjx0n7gwph6nqpzcmcw0000gn/T//ccn5JkAm.s:9903   .bss._ZL4leds:0000000000000000 $d
/var/folders/lg/77ksxqjx0n7gwph6nqpzcmcw0000gn/T//ccn5JkAm.s:9907   .bss._ZL4leds:0000000000000000 _ZL4leds
/var/folders/lg/77ksxqjx0n7gwph6nqpzcmcw0000gn/T//ccn5JkAm.s:9910   .bss._ZL4svfl:0000000000000000 $d
/var/folders/lg/77ksxqjx0n7gwph6nqpzcmcw0000gn/T//ccn5JkAm.s:9914   .bss._ZL4svfl:0000000000000000 _ZL4svfl
/var/folders/lg/77ksxqjx0n7gwph6nqpzcmcw0000gn/T//ccn5JkAm.s:9917   .bss._ZL4svfr:0000000000000000 $d
/var/folders/lg/77ksxqjx0n7gwph6nqpzcmcw0000gn/T//ccn5JkAm.s:9921   .bss._ZL4svfr:0000000000000000 _ZL4svfr
/var/folders/lg/77ksxqjx0n7gwph6nqpzcmcw0000gn/T//ccn5JkAm.s:9924   .bss._ZL5svf2l:0000000000000000 $d
/var/folders/lg/77ksxqjx0n7gwph6nqpzcmcw0000gn/T//ccn5JkAm.s:9928   .bss._ZL5svf2l:0000000000000000 _ZL5svf2l
/var/folders/lg/77ksxqjx0n7gwph6nqpzcmcw0000gn/T//ccn5JkAm.s:9931   .bss._ZL5svf2r:0000000000000000 $d
/var/folders/lg/77ksxqjx0n7gwph6nqpzcmcw0000gn/T//ccn5JkAm.s:9935   .bss._ZL5svf2r:0000000000000000 _ZL5svf2r
/var/folders/lg/77ksxqjx0n7gwph6nqpzcmcw0000gn/T//ccn5JkAm.s:9938   .bss._ZL5tonel:0000000000000000 $d
/var/folders/lg/77ksxqjx0n7gwph6nqpzcmcw0000gn/T//ccn5JkAm.s:9942   .bss._ZL5tonel:0000000000000000 _ZL5tonel
/var/folders/lg/77ksxqjx0n7gwph6nqpzcmcw0000gn/T//ccn5JkAm.s:9945   .bss._ZL5toner:0000000000000000 $d
/var/folders/lg/77ksxqjx0n7gwph6nqpzcmcw0000gn/T//ccn5JkAm.s:9949   .bss._ZL5toner:0000000000000000 _ZL5toner
/var/folders/lg/77ksxqjx0n7gwph6nqpzcmcw0000gn/T//ccn5JkAm.s:9952   .bss._ZL6biquad:0000000000000000 $d
/var/folders/lg/77ksxqjx0n7gwph6nqpzcmcw0000gn/T//ccn5JkAm.s:9956   .bss._ZL6biquad:0000000000000000 _ZL6biquad
/var/folders/lg/77ksxqjx0n7gwph6nqpzcmcw0000gn/T//ccn5JkAm.s:9959   .bss._ZL9dcblock_l:0000000000000000 $d
/var/folders/lg/77ksxqjx0n7gwph6nqpzcmcw0000gn/T//ccn5JkAm.s:9963   .bss._ZL9dcblock_l:0000000000000000 _ZL9dcblock_l
/var/folders/lg/77ksxqjx0n7gwph6nqpzcmcw0000gn/T//ccn5JkAm.s:9966   .bss._ZL9dcblock_r:0000000000000000 $d
/var/folders/lg/77ksxqjx0n7gwph6nqpzcmcw0000gn/T//ccn5JkAm.s:9970   .bss._ZL9dcblock_r:0000000000000000 _ZL9dcblock_r
/var/folders/lg/77ksxqjx0n7gwph6nqpzcmcw0000gn/T//ccn5JkAm.s:9973   .bss.attack_lut:0000000000000000 $d
/var/folders/lg/77ksxqjx0n7gwph6nqpzcmcw0000gn/T//ccn5JkAm.s:9980   .bss.delay_active:0000000000000000 $d
/var/folders/lg/77ksxqjx0n7gwph6nqpzcmcw0000gn/T//ccn5JkAm.s:9987   .bss.delay_control_counter:0000000000000000 $d
/var/folders/lg/77ksxqjx0n7gwph6nqpzcmcw0000gn/T//ccn5JkAm.s:9994   .bss.delay_cutoff:0000000000000000 $d
/var/folders/lg/77ksxqjx0n7gwph6nqpzcmcw0000gn/T//ccn5JkAm.s:10001  .bss.delay_drywet:0000000000000000 $d
/var/folders/lg/77ksxqjx0n7gwph6nqpzcmcw0000gn/T//ccn5JkAm.s:10008  .bss.delay_fast_feedback_RMS:0000000000000000 $d
/var/folders/lg/77ksxqjx0n7gwph6nqpzcmcw0000gn/T//ccn5JkAm.s:10015  .bss.delay_feedback:0000000000000000 $d
/var/folders/lg/77ksxqjx0n7gwph6nqpzcmcw0000gn/T//ccn5JkAm.s:10022  .bss.delay_feedback_RMS:0000000000000000 $d
/var/folders/lg/77ksxqjx0n7gwph6nqpzcmcw0000gn/T//ccn5JkAm.s:10033  .bss.delay_frozen:0000000000000000 $d
/var/folders/lg/77ksxqjx0n7gwph6nqpzcmcw0000gn/T//ccn5JkAm.s:10035  .bss.delay_frozen_end:0000000000000000 $d
/var/folders/lg/77ksxqjx0n7gwph6nqpzcmcw0000gn/T//ccn5JkAm.s:10042  .bss.delay_frozen_pos:0000000000000000 $d
/var/folders/lg/77ksxqjx0n7gwph6nqpzcmcw0000gn/T//ccn5JkAm.s:10049  .bss.delay_frozen_start:0000000000000000 $d
/var/folders/lg/77ksxqjx0n7gwph6nqpzcmcw0000gn/T//ccn5JkAm.s:10056  .bss.delay_left_counter:0000000000000000 $d
/var/folders/lg/77ksxqjx0n7gwph6nqpzcmcw0000gn/T//ccn5JkAm.s:10063  .bss.delay_left_counter_4:0000000000000000 $d
/var/folders/lg/77ksxqjx0n7gwph6nqpzcmcw0000gn/T//ccn5JkAm.s:10070  .bss.delay_main_counter:0000000000000000 $d
ARM GAS  /var/folders/lg/77ksxqjx0n7gwph6nqpzcmcw0000gn/T//ccn5JkAm.s 			page 205


/var/folders/lg/77ksxqjx0n7gwph6nqpzcmcw0000gn/T//ccn5JkAm.s:10077  .bss.delay_mult_l:0000000000000000 $d
/var/folders/lg/77ksxqjx0n7gwph6nqpzcmcw0000gn/T//ccn5JkAm.s:10084  .bss.delay_mult_r:0000000000000000 $d
/var/folders/lg/77ksxqjx0n7gwph6nqpzcmcw0000gn/T//ccn5JkAm.s:10091  .bss.delay_outl:0000000000000000 $d
/var/folders/lg/77ksxqjx0n7gwph6nqpzcmcw0000gn/T//ccn5JkAm.s:10098  .bss.delay_outr:0000000000000000 $d
/var/folders/lg/77ksxqjx0n7gwph6nqpzcmcw0000gn/T//ccn5JkAm.s:10105  .bss.delay_pos_l:0000000000000000 $d
/var/folders/lg/77ksxqjx0n7gwph6nqpzcmcw0000gn/T//ccn5JkAm.s:10112  .bss.delay_pos_r:0000000000000000 $d
/var/folders/lg/77ksxqjx0n7gwph6nqpzcmcw0000gn/T//ccn5JkAm.s:10119  .bss.delay_prev_sample_l:0000000000000000 $d
/var/folders/lg/77ksxqjx0n7gwph6nqpzcmcw0000gn/T//ccn5JkAm.s:10126  .bss.delay_prev_sample_r:0000000000000000 $d
/var/folders/lg/77ksxqjx0n7gwph6nqpzcmcw0000gn/T//ccn5JkAm.s:10136  .bss.delay_reduce_spikes_l:0000000000000000 $d
/var/folders/lg/77ksxqjx0n7gwph6nqpzcmcw0000gn/T//ccn5JkAm.s:10141  .bss.delay_reduce_spikes_r:0000000000000000 $d
/var/folders/lg/77ksxqjx0n7gwph6nqpzcmcw0000gn/T//ccn5JkAm.s:10143  .bss.delay_right_counter:0000000000000000 $d
/var/folders/lg/77ksxqjx0n7gwph6nqpzcmcw0000gn/T//ccn5JkAm.s:10150  .bss.delay_right_counter_4:0000000000000000 $d
/var/folders/lg/77ksxqjx0n7gwph6nqpzcmcw0000gn/T//ccn5JkAm.s:10157  .bss.delay_rmsCount:0000000000000000 $d
/var/folders/lg/77ksxqjx0n7gwph6nqpzcmcw0000gn/T//ccn5JkAm.s:10164  .bss.delay_spike_counter_l:0000000000000000 $d
/var/folders/lg/77ksxqjx0n7gwph6nqpzcmcw0000gn/T//ccn5JkAm.s:10170  .bss.delay_target_RMS:0000000000000000 $d
/var/folders/lg/77ksxqjx0n7gwph6nqpzcmcw0000gn/T//ccn5JkAm.s:10177  .bss.delay_target_cutoff:0000000000000000 $d
/var/folders/lg/77ksxqjx0n7gwph6nqpzcmcw0000gn/T//ccn5JkAm.s:10184  .bss.delay_time:0000000000000000 $d
/var/folders/lg/77ksxqjx0n7gwph6nqpzcmcw0000gn/T//ccn5JkAm.s:10191  .bss.delay_time_count:0000000000000000 $d
/var/folders/lg/77ksxqjx0n7gwph6nqpzcmcw0000gn/T//ccn5JkAm.s:10198  .bss.delay_time_trig:0000000000000000 $d
/var/folders/lg/77ksxqjx0n7gwph6nqpzcmcw0000gn/T//ccn5JkAm.s:10205  .bss.delay_write_pos:0000000000000000 $d
/var/folders/lg/77ksxqjx0n7gwph6nqpzcmcw0000gn/T//ccn5JkAm.s:10212  .bss.delay_xfade_current:0000000000000000 $d
/var/folders/lg/77ksxqjx0n7gwph6nqpzcmcw0000gn/T//ccn5JkAm.s:10219  .bss.delay_xfade_target:0000000000000000 $d
/var/folders/lg/77ksxqjx0n7gwph6nqpzcmcw0000gn/T//ccn5JkAm.s:10226  .bss.filter_current_l_freq:0000000000000000 $d
/var/folders/lg/77ksxqjx0n7gwph6nqpzcmcw0000gn/T//ccn5JkAm.s:10233  .bss.filter_mode_l:0000000000000000 $d
/var/folders/lg/77ksxqjx0n7gwph6nqpzcmcw0000gn/T//ccn5JkAm.s:10240  .bss.filter_mode_r:0000000000000000 $d
/var/folders/lg/77ksxqjx0n7gwph6nqpzcmcw0000gn/T//ccn5JkAm.s:10247  .bss.filter_path:0000000000000000 $d
/var/folders/lg/77ksxqjx0n7gwph6nqpzcmcw0000gn/T//ccn5JkAm.s:10254  .bss.filter_target_l_freq:0000000000000000 $d
/var/folders/lg/77ksxqjx0n7gwph6nqpzcmcw0000gn/T//ccn5JkAm.s:10261  .bss.filter_target_r_freq:0000000000000000 $d
/var/folders/lg/77ksxqjx0n7gwph6nqpzcmcw0000gn/T//ccn5JkAm.s:10268  .bss.global_sample_rate:0000000000000000 $d
/var/folders/lg/77ksxqjx0n7gwph6nqpzcmcw0000gn/T//ccn5JkAm.s:10275  .bss.lofi_current_Lofi_LFO_Freq:0000000000000000 $d
/var/folders/lg/77ksxqjx0n7gwph6nqpzcmcw0000gn/T//ccn5JkAm.s:10282  .bss.lofi_current_RMS:0000000000000000 $d
/var/folders/lg/77ksxqjx0n7gwph6nqpzcmcw0000gn/T//ccn5JkAm.s:10289  .bss.lofi_current_left_saturation:0000000000000000 $d
/var/folders/lg/77ksxqjx0n7gwph6nqpzcmcw0000gn/T//ccn5JkAm.s:10296  .bss.lofi_current_right_saturation:0000000000000000 $d
/var/folders/lg/77ksxqjx0n7gwph6nqpzcmcw0000gn/T//ccn5JkAm.s:10303  .bss.lofi_cutoff:0000000000000000 $d
/var/folders/lg/77ksxqjx0n7gwph6nqpzcmcw0000gn/T//ccn5JkAm.s:10310  .bss.lofi_damp_speed:0000000000000000 $d
/var/folders/lg/77ksxqjx0n7gwph6nqpzcmcw0000gn/T//ccn5JkAm.s:10317  .bss.lofi_depth:0000000000000000 $d
/var/folders/lg/77ksxqjx0n7gwph6nqpzcmcw0000gn/T//ccn5JkAm.s:10324  .bss.lofi_drywet:0000000000000000 $d
/var/folders/lg/77ksxqjx0n7gwph6nqpzcmcw0000gn/T//ccn5JkAm.s:10331  .bss.lofi_mod:0000000000000000 $d
/var/folders/lg/77ksxqjx0n7gwph6nqpzcmcw0000gn/T//ccn5JkAm.s:10338  .bss.lofi_previous_left_saturation:0000000000000000 $d
/var/folders/lg/77ksxqjx0n7gwph6nqpzcmcw0000gn/T//ccn5JkAm.s:10345  .bss.lofi_previous_right_saturation:0000000000000000 $d
/var/folders/lg/77ksxqjx0n7gwph6nqpzcmcw0000gn/T//ccn5JkAm.s:10352  .bss.lofi_previous_variable_compressor:0000000000000000 $d
/var/folders/lg/77ksxqjx0n7gwph6nqpzcmcw0000gn/T//ccn5JkAm.s:10359  .bss.lofi_rate_count:0000000000000000 $d
/var/folders/lg/77ksxqjx0n7gwph6nqpzcmcw0000gn/T//ccn5JkAm.s:10366  .bss.lofi_rmsCount:0000000000000000 $d
/var/folders/lg/77ksxqjx0n7gwph6nqpzcmcw0000gn/T//ccn5JkAm.s:10373  .bss.lofi_target_Lofi_LFO_Freq:0000000000000000 $d
/var/folders/lg/77ksxqjx0n7gwph6nqpzcmcw0000gn/T//ccn5JkAm.s:10380  .bss.lofi_target_RMS:0000000000000000 $d
/var/folders/lg/77ksxqjx0n7gwph6nqpzcmcw0000gn/T//ccn5JkAm.s:10387  .bss.mlooper_drywet:0000000000000000 $d
/var/folders/lg/77ksxqjx0n7gwph6nqpzcmcw0000gn/T//ccn5JkAm.s:10398  .bss.mlooper_frozen:0000000000000000 $d
/var/folders/lg/77ksxqjx0n7gwph6nqpzcmcw0000gn/T//ccn5JkAm.s:10400  .bss.mlooper_frozen_pos_1:0000000000000000 $d
/var/folders/lg/77ksxqjx0n7gwph6nqpzcmcw0000gn/T//ccn5JkAm.s:10407  .bss.mlooper_frozen_pos_2:0000000000000000 $d
/var/folders/lg/77ksxqjx0n7gwph6nqpzcmcw0000gn/T//ccn5JkAm.s:10414  .bss.mlooper_len_count:0000000000000000 $d
/var/folders/lg/77ksxqjx0n7gwph6nqpzcmcw0000gn/T//ccn5JkAm.s:10425  .bss.mlooper_play:0000000000000000 $d
/var/folders/lg/77ksxqjx0n7gwph6nqpzcmcw0000gn/T//ccn5JkAm.s:10427  .bss.mlooper_pos_1:0000000000000000 $d
/var/folders/lg/77ksxqjx0n7gwph6nqpzcmcw0000gn/T//ccn5JkAm.s:10434  .bss.mlooper_pos_2:0000000000000000 $d
/var/folders/lg/77ksxqjx0n7gwph6nqpzcmcw0000gn/T//ccn5JkAm.s:10441  .bss.mlooper_writer_outside_pos:0000000000000000 $d
/var/folders/lg/77ksxqjx0n7gwph6nqpzcmcw0000gn/T//ccn5JkAm.s:10448  .bss.mlooper_writer_pos:0000000000000000 $d
/var/folders/lg/77ksxqjx0n7gwph6nqpzcmcw0000gn/T//ccn5JkAm.s:10455  .bss.mode:0000000000000000 $d
/var/folders/lg/77ksxqjx0n7gwph6nqpzcmcw0000gn/T//ccn5JkAm.s:10462  .bss.modified_buffer_length_l:0000000000000000 $d
ARM GAS  /var/folders/lg/77ksxqjx0n7gwph6nqpzcmcw0000gn/T//ccn5JkAm.s 			page 206


/var/folders/lg/77ksxqjx0n7gwph6nqpzcmcw0000gn/T//ccn5JkAm.s:10469  .bss.modified_buffer_length_r:0000000000000000 $d
/var/folders/lg/77ksxqjx0n7gwph6nqpzcmcw0000gn/T//ccn5JkAm.s:10476  .bss.modified_frozen_buffer_length_l:0000000000000000 $d
/var/folders/lg/77ksxqjx0n7gwph6nqpzcmcw0000gn/T//ccn5JkAm.s:10483  .bss.modified_frozen_buffer_length_r:0000000000000000 $d
/var/folders/lg/77ksxqjx0n7gwph6nqpzcmcw0000gn/T//ccn5JkAm.s:10490  .bss.previous_mode:0000000000000000 $d
/var/folders/lg/77ksxqjx0n7gwph6nqpzcmcw0000gn/T//ccn5JkAm.s:10497  .bss.resonator_current_RMS:0000000000000000 $d
/var/folders/lg/77ksxqjx0n7gwph6nqpzcmcw0000gn/T//ccn5JkAm.s:10504  .bss.resonator_current_delay:0000000000000000 $d
/var/folders/lg/77ksxqjx0n7gwph6nqpzcmcw0000gn/T//ccn5JkAm.s:10511  .bss.resonator_drywet:0000000000000000 $d
/var/folders/lg/77ksxqjx0n7gwph6nqpzcmcw0000gn/T//ccn5JkAm.s:10518  .bss.resonator_feedback:0000000000000000 $d
/var/folders/lg/77ksxqjx0n7gwph6nqpzcmcw0000gn/T//ccn5JkAm.s:10525  .bss.resonator_feedback_RMS:0000000000000000 $d
/var/folders/lg/77ksxqjx0n7gwph6nqpzcmcw0000gn/T//ccn5JkAm.s:10532  .bss.resonator_feedback_display:0000000000000000 $d
/var/folders/lg/77ksxqjx0n7gwph6nqpzcmcw0000gn/T//ccn5JkAm.s:10538  .bss.resonator_glide:0000000000000000 $d
/var/folders/lg/77ksxqjx0n7gwph6nqpzcmcw0000gn/T//ccn5JkAm.s:10545  .bss.resonator_glide_mode:0000000000000000 $d
/var/folders/lg/77ksxqjx0n7gwph6nqpzcmcw0000gn/T//ccn5JkAm.s:10552  .bss.resonator_previous_l:0000000000000000 $d
/var/folders/lg/77ksxqjx0n7gwph6nqpzcmcw0000gn/T//ccn5JkAm.s:10559  .bss.resonator_previous_r:0000000000000000 $d
/var/folders/lg/77ksxqjx0n7gwph6nqpzcmcw0000gn/T//ccn5JkAm.s:10566  .bss.resonator_rmsCount:0000000000000000 $d
/var/folders/lg/77ksxqjx0n7gwph6nqpzcmcw0000gn/T//ccn5JkAm.s:10573  .bss.resonator_target:0000000000000000 $d
/var/folders/lg/77ksxqjx0n7gwph6nqpzcmcw0000gn/T//ccn5JkAm.s:10580  .bss.resonator_target_RMS:0000000000000000 $d
/var/folders/lg/77ksxqjx0n7gwph6nqpzcmcw0000gn/T//ccn5JkAm.s:10587  .bss.reverb_current_RMS:0000000000000000 $d
/var/folders/lg/77ksxqjx0n7gwph6nqpzcmcw0000gn/T//ccn5JkAm.s:10594  .bss.reverb_current_outl:0000000000000000 $d
/var/folders/lg/77ksxqjx0n7gwph6nqpzcmcw0000gn/T//ccn5JkAm.s:10601  .bss.reverb_current_outr:0000000000000000 $d
/var/folders/lg/77ksxqjx0n7gwph6nqpzcmcw0000gn/T//ccn5JkAm.s:10608  .bss.reverb_drywet:0000000000000000 $d
/var/folders/lg/77ksxqjx0n7gwph6nqpzcmcw0000gn/T//ccn5JkAm.s:10615  .bss.reverb_feedback:0000000000000000 $d
/var/folders/lg/77ksxqjx0n7gwph6nqpzcmcw0000gn/T//ccn5JkAm.s:10622  .bss.reverb_feedback_RMS:0000000000000000 $d
/var/folders/lg/77ksxqjx0n7gwph6nqpzcmcw0000gn/T//ccn5JkAm.s:10629  .bss.reverb_feedback_display:0000000000000000 $d
/var/folders/lg/77ksxqjx0n7gwph6nqpzcmcw0000gn/T//ccn5JkAm.s:10636  .bss.reverb_lowpass:0000000000000000 $d
/var/folders/lg/77ksxqjx0n7gwph6nqpzcmcw0000gn/T//ccn5JkAm.s:10643  .bss.reverb_previous_inl:0000000000000000 $d
/var/folders/lg/77ksxqjx0n7gwph6nqpzcmcw0000gn/T//ccn5JkAm.s:10649  .bss.reverb_previous_inr:0000000000000000 $d
/var/folders/lg/77ksxqjx0n7gwph6nqpzcmcw0000gn/T//ccn5JkAm.s:10655  .bss.reverb_rmsCount:0000000000000000 $d
/var/folders/lg/77ksxqjx0n7gwph6nqpzcmcw0000gn/T//ccn5JkAm.s:10662  .bss.reverb_shimmer:0000000000000000 $d
/var/folders/lg/77ksxqjx0n7gwph6nqpzcmcw0000gn/T//ccn5JkAm.s:10669  .bss.reverb_shimmer_play_pos1l:0000000000000000 $d
/var/folders/lg/77ksxqjx0n7gwph6nqpzcmcw0000gn/T//ccn5JkAm.s:10676  .bss.reverb_shimmer_play_pos1r:0000000000000000 $d
/var/folders/lg/77ksxqjx0n7gwph6nqpzcmcw0000gn/T//ccn5JkAm.s:10683  .bss.reverb_shimmer_play_pos2:0000000000000000 $d
/var/folders/lg/77ksxqjx0n7gwph6nqpzcmcw0000gn/T//ccn5JkAm.s:10690  .bss.reverb_shimmer_write_pos1l:0000000000000000 $d
/var/folders/lg/77ksxqjx0n7gwph6nqpzcmcw0000gn/T//ccn5JkAm.s:10697  .bss.reverb_shimmer_write_pos1r:0000000000000000 $d
/var/folders/lg/77ksxqjx0n7gwph6nqpzcmcw0000gn/T//ccn5JkAm.s:10704  .bss.reverb_shimmer_write_pos2:0000000000000000 $d
/var/folders/lg/77ksxqjx0n7gwph6nqpzcmcw0000gn/T//ccn5JkAm.s:10711  .bss.reverb_target_RMS:0000000000000000 $d
/var/folders/lg/77ksxqjx0n7gwph6nqpzcmcw0000gn/T//ccn5JkAm.s:10718  .bss.reverb_target_compression:0000000000000000 $d
/var/folders/lg/77ksxqjx0n7gwph6nqpzcmcw0000gn/T//ccn5JkAm.s:10725  .bss.spectra_b:0000000000000000 $d
/var/folders/lg/77ksxqjx0n7gwph6nqpzcmcw0000gn/T//ccn5JkAm.s:10732  .bss.spectra_current_RMS:0000000000000000 $d
/var/folders/lg/77ksxqjx0n7gwph6nqpzcmcw0000gn/T//ccn5JkAm.s:10742  .bss.spectra_do_analisys:0000000000000000 $d
/var/folders/lg/77ksxqjx0n7gwph6nqpzcmcw0000gn/T//ccn5JkAm.s:10744  .bss.spectra_drywet:0000000000000000 $d
/var/folders/lg/77ksxqjx0n7gwph6nqpzcmcw0000gn/T//ccn5JkAm.s:10751  .bss.spectra_g:0000000000000000 $d
/var/folders/lg/77ksxqjx0n7gwph6nqpzcmcw0000gn/T//ccn5JkAm.s:10758  .bss.spectra_lower_harmonics:0000000000000000 $d
/var/folders/lg/77ksxqjx0n7gwph6nqpzcmcw0000gn/T//ccn5JkAm.s:10765  .bss.spectra_oct:0000000000000000 $d
/var/folders/lg/77ksxqjx0n7gwph6nqpzcmcw0000gn/T//ccn5JkAm.s:10771  .bss.spectra_oct_mult:0000000000000000 $d
/var/folders/lg/77ksxqjx0n7gwph6nqpzcmcw0000gn/T//ccn5JkAm.s:10778  .bss.spectra_prev_knob_wave_knob:0000000000000000 $d
/var/folders/lg/77ksxqjx0n7gwph6nqpzcmcw0000gn/T//ccn5JkAm.s:10785  .bss.spectra_quantize:0000000000000000 $d
/var/folders/lg/77ksxqjx0n7gwph6nqpzcmcw0000gn/T//ccn5JkAm.s:10792  .bss.spectra_r:0000000000000000 $d
/var/folders/lg/77ksxqjx0n7gwph6nqpzcmcw0000gn/T//ccn5JkAm.s:10799  .bss.spectra_reverb_amount:0000000000000000 $d
/var/folders/lg/77ksxqjx0n7gwph6nqpzcmcw0000gn/T//ccn5JkAm.s:10806  .bss.spectra_rmsCount:0000000000000000 $d
/var/folders/lg/77ksxqjx0n7gwph6nqpzcmcw0000gn/T//ccn5JkAm.s:10812  .bss.spectra_rotate_harmonics:0000000000000000 $d
/var/folders/lg/77ksxqjx0n7gwph6nqpzcmcw0000gn/T//ccn5JkAm.s:10819  .bss.spectra_selected_scale:0000000000000000 $d
/var/folders/lg/77ksxqjx0n7gwph6nqpzcmcw0000gn/T//ccn5JkAm.s:10826  .bss.spectra_transpose:0000000000000000 $d
/var/folders/lg/77ksxqjx0n7gwph6nqpzcmcw0000gn/T//ccn5JkAm.s:10833  .bss.spectra_waveform:0000000000000000 $d
/var/folders/lg/77ksxqjx0n7gwph6nqpzcmcw0000gn/T//ccn5JkAm.s:10839  .bss.spectrings_accent_amount:0000000000000000 $d
/var/folders/lg/77ksxqjx0n7gwph6nqpzcmcw0000gn/T//ccn5JkAm.s:10846  .bss.spectrings_attack_last_step:0000000000000000 $d
/var/folders/lg/77ksxqjx0n7gwph6nqpzcmcw0000gn/T//ccn5JkAm.s:10852  .bss.spectrings_attack_step:0000000000000000 $d
ARM GAS  /var/folders/lg/77ksxqjx0n7gwph6nqpzcmcw0000gn/T//ccn5JkAm.s 			page 207


/var/folders/lg/77ksxqjx0n7gwph6nqpzcmcw0000gn/T//ccn5JkAm.s:10859  .bss.spectrings_current_voice:0000000000000000 $d
/var/folders/lg/77ksxqjx0n7gwph6nqpzcmcw0000gn/T//ccn5JkAm.s:10866  .bss.spectrings_decay_amount:0000000000000000 $d
/var/folders/lg/77ksxqjx0n7gwph6nqpzcmcw0000gn/T//ccn5JkAm.s:10873  .bss.spectrings_drywet:0000000000000000 $d
/var/folders/lg/77ksxqjx0n7gwph6nqpzcmcw0000gn/T//ccn5JkAm.s:10880  .bss.spectrings_pan_spread:0000000000000000 $d
/var/folders/lg/77ksxqjx0n7gwph6nqpzcmcw0000gn/T//ccn5JkAm.s:10891  .bss.spectrings_trigger_next_cycle:0000000000000000 $d
/var/folders/lg/77ksxqjx0n7gwph6nqpzcmcw0000gn/T//ccn5JkAm.s:10893  .bss.versio:0000000000000000 $d
/var/folders/lg/77ksxqjx0n7gwph6nqpzcmcw0000gn/T//ccn5JkAm.s:10900  .data.CHRM_SCALE:0000000000000000 $d
/var/folders/lg/77ksxqjx0n7gwph6nqpzcmcw0000gn/T//ccn5JkAm.s:11034  .data.delay_control_latency_ms:0000000000000000 $d
/var/folders/lg/77ksxqjx0n7gwph6nqpzcmcw0000gn/T//ccn5JkAm.s:11041  .data.delay_inactive:0000000000000000 $d
/var/folders/lg/77ksxqjx0n7gwph6nqpzcmcw0000gn/T//ccn5JkAm.s:11048  .data.delay_spike_counter_r:0000000000000000 $d
/var/folders/lg/77ksxqjx0n7gwph6nqpzcmcw0000gn/T//ccn5JkAm.s:11054  .data.filter_current_r_freq:0000000000000000 $d
/var/folders/lg/77ksxqjx0n7gwph6nqpzcmcw0000gn/T//ccn5JkAm.s:11061  .data.lofi_lpg_amount:0000000000000000 $d
/var/folders/lg/77ksxqjx0n7gwph6nqpzcmcw0000gn/T//ccn5JkAm.s:11068  .data.lofi_lpg_decay:0000000000000000 $d
/var/folders/lg/77ksxqjx0n7gwph6nqpzcmcw0000gn/T//ccn5JkAm.s:11075  .data.mlooper_division_1:0000000000000000 $d
/var/folders/lg/77ksxqjx0n7gwph6nqpzcmcw0000gn/T//ccn5JkAm.s:11082  .data.mlooper_division_2:0000000000000000 $d
/var/folders/lg/77ksxqjx0n7gwph6nqpzcmcw0000gn/T//ccn5JkAm.s:11089  .data.mlooper_frozen_len:0000000000000000 $d
/var/folders/lg/77ksxqjx0n7gwph6nqpzcmcw0000gn/T//ccn5JkAm.s:11096  .data.mlooper_len:0000000000000000 $d
/var/folders/lg/77ksxqjx0n7gwph6nqpzcmcw0000gn/T//ccn5JkAm.s:11103  .data.mlooper_play_speed_1:0000000000000000 $d
/var/folders/lg/77ksxqjx0n7gwph6nqpzcmcw0000gn/T//ccn5JkAm.s:11110  .data.mlooper_play_speed_2:0000000000000000 $d
/var/folders/lg/77ksxqjx0n7gwph6nqpzcmcw0000gn/T//ccn5JkAm.s:11117  .data.mlooper_volume_att_1:0000000000000000 $d
/var/folders/lg/77ksxqjx0n7gwph6nqpzcmcw0000gn/T//ccn5JkAm.s:11124  .data.mlooper_volume_att_2:0000000000000000 $d
/var/folders/lg/77ksxqjx0n7gwph6nqpzcmcw0000gn/T//ccn5JkAm.s:11131  .data.modes:0000000000000000 $d
/var/folders/lg/77ksxqjx0n7gwph6nqpzcmcw0000gn/T//ccn5JkAm.s:11145  .data.resonator_current_regen:0000000000000000 $d
/var/folders/lg/77ksxqjx0n7gwph6nqpzcmcw0000gn/T//ccn5JkAm.s:11152  .data.resonator_note:0000000000000000 $d
/var/folders/lg/77ksxqjx0n7gwph6nqpzcmcw0000gn/T//ccn5JkAm.s:11159  .data.resonator_octave:0000000000000000 $d
/var/folders/lg/77ksxqjx0n7gwph6nqpzcmcw0000gn/T//ccn5JkAm.s:11166  .data.resonator_tone:0000000000000000 $d
/var/folders/lg/77ksxqjx0n7gwph6nqpzcmcw0000gn/T//ccn5JkAm.s:11173  .data.reverb_compression:0000000000000000 $d
/var/folders/lg/77ksxqjx0n7gwph6nqpzcmcw0000gn/T//ccn5JkAm.s:11180  .data.reverb_shimmer_buffer_size1l:0000000000000000 $d
/var/folders/lg/77ksxqjx0n7gwph6nqpzcmcw0000gn/T//ccn5JkAm.s:11187  .data.reverb_shimmer_buffer_size1r:0000000000000000 $d
/var/folders/lg/77ksxqjx0n7gwph6nqpzcmcw0000gn/T//ccn5JkAm.s:11194  .data.reverb_shimmer_buffer_size2:0000000000000000 $d
/var/folders/lg/77ksxqjx0n7gwph6nqpzcmcw0000gn/T//ccn5JkAm.s:11201  .data.scale_1:0000000000000000 $d
/var/folders/lg/77ksxqjx0n7gwph6nqpzcmcw0000gn/T//ccn5JkAm.s:11209  .data.scale_12:0000000000000000 $d
/var/folders/lg/77ksxqjx0n7gwph6nqpzcmcw0000gn/T//ccn5JkAm.s:11227  .data.scale_2:0000000000000000 $d
/var/folders/lg/77ksxqjx0n7gwph6nqpzcmcw0000gn/T//ccn5JkAm.s:11242  .data.scale_3:0000000000000000 $d
/var/folders/lg/77ksxqjx0n7gwph6nqpzcmcw0000gn/T//ccn5JkAm.s:11257  .data.scale_4:0000000000000000 $d
/var/folders/lg/77ksxqjx0n7gwph6nqpzcmcw0000gn/T//ccn5JkAm.s:11272  .data.scale_5:0000000000000000 $d
/var/folders/lg/77ksxqjx0n7gwph6nqpzcmcw0000gn/T//ccn5JkAm.s:11289  .data.scale_6:0000000000000000 $d
/var/folders/lg/77ksxqjx0n7gwph6nqpzcmcw0000gn/T//ccn5JkAm.s:11306  .data.scale_7:0000000000000000 $d
/var/folders/lg/77ksxqjx0n7gwph6nqpzcmcw0000gn/T//ccn5JkAm.s:11324  .data.spectra_hop:0000000000000000 $d
/var/folders/lg/77ksxqjx0n7gwph6nqpzcmcw0000gn/T//ccn5JkAm.s:11330  .data.spectra_num_active:0000000000000000 $d
/var/folders/lg/77ksxqjx0n7gwph6nqpzcmcw0000gn/T//ccn5JkAm.s:11337  .data.spectra_spread:0000000000000000 $d
/var/folders/lg/77ksxqjx0n7gwph6nqpzcmcw0000gn/T//ccn5JkAm.s:11344  .data.spectra_target_RMS:0000000000000000 $d
/var/folders/lg/77ksxqjx0n7gwph6nqpzcmcw0000gn/T//ccn5JkAm.s:11350  .data.spectrings_active_voices:0000000000000000 $d
/var/folders/lg/77ksxqjx0n7gwph6nqpzcmcw0000gn/T//ccn5JkAm.s:11357  .data.spectrings_num_models:0000000000000000 $d
/var/folders/lg/77ksxqjx0n7gwph6nqpzcmcw0000gn/T//ccn5JkAm.s:11363  .data.target_resonator_feedback:0000000000000000 $d
/var/folders/lg/77ksxqjx0n7gwph6nqpzcmcw0000gn/T//ccn5JkAm.s:11369  .rodata._ZL11delay_times:0000000000000000 $d
/var/folders/lg/77ksxqjx0n7gwph6nqpzcmcw0000gn/T//ccn5JkAm.s:11373  .rodata._ZL11delay_times:0000000000000000 _ZL11delay_times
/var/folders/lg/77ksxqjx0n7gwph6nqpzcmcw0000gn/T//ccn5JkAm.s:11392  .sdram_bss:0000000000000000 $d
/var/folders/lg/77ksxqjx0n7gwph6nqpzcmcw0000gn/T//ccn5JkAm.s:6577   .text._Z11UpdateKnobsv:0000000000001223 $d
/var/folders/lg/77ksxqjx0n7gwph6nqpzcmcw0000gn/T//ccn5JkAm.s:6577   .text._Z11UpdateKnobsv:0000000000001224 $t
/var/folders/lg/77ksxqjx0n7gwph6nqpzcmcw0000gn/T//ccn5JkAm.s:6762   .text._Z11UpdateKnobsv:000000000000140d $d
/var/folders/lg/77ksxqjx0n7gwph6nqpzcmcw0000gn/T//ccn5JkAm.s:6762   .text._Z11UpdateKnobsv:000000000000140e $t
                           .group:0000000000000000 _ZN7daisysp3SvfD5Ev
                           .group:0000000000000000 _ZN7daisysp8ReverbScD5Ev
                           .group:0000000000000000 _ZN7daisysp6BiquadD5Ev
                           .group:0000000000000000 _ZN7daisysp4ToneD5Ev
                           .group:0000000000000000 _ZN7daisysp7DcBlockD5Ev
ARM GAS  /var/folders/lg/77ksxqjx0n7gwph6nqpzcmcw0000gn/T//ccn5JkAm.s 			page 208


                           .group:0000000000000000 _ZN5daisy9ParameterD5Ev
                           .group:0000000000000000 _ZN5daisy11DaisyVersioD5Ev
                           .group:0000000000000000 _ZN6stmlib3SvfD5Ev
                           .group:0000000000000000 _ZN11LedsControlD5Ev
                           .group:0000000000000000 _ZN7OscBankD5Ev
                           .group:0000000000000000 _ZN8AveragerD5Ev
                           .group:0000000000000000 _ZN7daisysp9DelayLineIfLj120000EED5Ev

UNDEFINED SYMBOLS
_ZNSt7__cxx1112basic_stringIcSt11char_traitsIcESaIcEE10_M_replaceEjjPKcj
cosf
rand
_ZN7daisysp8ReverbSc7ProcessERKfS2_PfS3_
sqrtf
powf
_ZN7daisysp4Tone7ProcessERf
_ZN7daisysp3Svf7ProcessEf
_ZN7daisysp7DcBlock7ProcessEf
_ZN7daisysp4Tone21CalculateCoefficientsEv
_ZN7daisysp3Svf7SetFreqEf
_ZN5daisy11DaisyVersio4InitEb
_ZN5daisy11DaisyVersio15AudioSampleRateEv
_ZN7daisysp8ReverbSc4InitEf
_ZN7daisysp4Tone4InitEf
_ZN7daisysp3Svf4InitEf
_ZN7daisysp3Svf6SetResEf
_ZN7daisysp6Biquad4InitEf
_ZN7daisysp6Biquad5ResetEv
_ZN7daisysp7DcBlock4InitEf
_ZN5daisy9Parameter4InitENS_13AnalogControlEffNS0_5CurveE
_ZN7daisysp10Oscillator12CalcPhaseIncEf
sinf
_ZN7daisysp11StringVoice4InitEf
_ZN5daisy11DaisyVersio8StartAdcEv
_ZN5daisy11DaisyVersio10StartAudioEPFvPPfS2_jE
_ZN5daisy11DaisyVersio12GetKnobValueEi
dsy_gpio_read
_ZN5daisy6GateIn4TrigEv
log10f
_ZN5daisy6Switch8DebounceEv
_ZN7daisysp11StringVoice13SetBrightnessEf
_ZN7daisysp11StringVoice9SetAccentEf
_ZN7daisysp11StringVoice12SetStructureEf
_ZN5daisy9Parameter7ProcessEv
_ZN7daisysp11StringVoice10SetDampingEf
_ZN7daisysp11StringVoice4TrigEv
_ZN5daisy11DaisyVersio21ProcessAnalogControlsEv
_ZN7daisysp10Oscillator7ProcessEv
_ZN7daisysp11StringVoice7ProcessEb
_ZN5daisy11DaisyVersio6SetLedEjfff
_ZN5daisy11DaisyVersio10UpdateLedsEv
memmove
_ZN7daisysp11StringVoice7SetFreqEf
log2f
__aeabi_atexit
__dso_handle
_ZNSt7__cxx1112basic_stringIcSt11char_traitsIcESaIcEED1Ev
ARM GAS  /var/folders/lg/77ksxqjx0n7gwph6nqpzcmcw0000gn/T//ccn5JkAm.s 			page 209


