ARM GAS  /var/folders/lg/77ksxqjx0n7gwph6nqpzcmcw0000gn/T//ccIVAxXK.s 			page 1


   1              		.cpu cortex-m7
   2              		.eabi_attribute 28, 1
   3              		.eabi_attribute 20, 1
   4              		.eabi_attribute 21, 1
   5              		.eabi_attribute 23, 3
   6              		.eabi_attribute 24, 1
   7              		.eabi_attribute 25, 1
   8              		.eabi_attribute 26, 1
   9              		.eabi_attribute 30, 2
  10              		.eabi_attribute 34, 1
  11              		.eabi_attribute 18, 4
  12              		.file	"startup_stm32h750xx.c"
  13              		.text
  14              		.section	.text.Default_Handler,"ax",%progbits
  15              		.align	1
  16              		.p2align 2,,3
  17              		.global	Default_Handler
  18              		.arch armv7e-m
  19              		.syntax unified
  20              		.thumb
  21              		.thumb_func
  22              		.fpu fpv5-d16
  24              	Default_Handler:
  25              		@ Naked Function: prologue and epilogue provided by programmer.
  26              		@ Volatile: function does not return.
  27              		@ args = 0, pretend = 0, frame = 0
  28              		@ frame_needed = 0, uses_anonymous_args = 0
  29              	.L2:
  30 0000 FEE7     		b	.L2
  32              		.weak	WAKEUP_PIN_IRQHandler
  33              		.thumb_set WAKEUP_PIN_IRQHandler,Default_Handler
  34              		.weak	SAI4_IRQHandler
  35              		.thumb_set SAI4_IRQHandler,Default_Handler
  36              		.weak	ECC_IRQHandler
  37              		.thumb_set ECC_IRQHandler,Default_Handler
  38              		.weak	CRS_IRQHandler
  39              		.thumb_set CRS_IRQHandler,Default_Handler
  40              		.weak	LPUART1_IRQHandler
  41              		.thumb_set LPUART1_IRQHandler,Default_Handler
  42              		.weak	LPTIM5_IRQHandler
  43              		.thumb_set LPTIM5_IRQHandler,Default_Handler
  44              		.weak	LPTIM4_IRQHandler
  45              		.thumb_set LPTIM4_IRQHandler,Default_Handler
  46              		.weak	LPTIM3_IRQHandler
  47              		.thumb_set LPTIM3_IRQHandler,Default_Handler
  48              		.weak	LPTIM2_IRQHandler
  49              		.thumb_set LPTIM2_IRQHandler,Default_Handler
  50              		.weak	COMP1_IRQHandler
  51              		.thumb_set COMP1_IRQHandler,Default_Handler
  52              		.weak	BDMA_Channel7_IRQHandler
  53              		.thumb_set BDMA_Channel7_IRQHandler,Default_Handler
  54              		.weak	BDMA_Channel6_IRQHandler
  55              		.thumb_set BDMA_Channel6_IRQHandler,Default_Handler
  56              		.weak	BDMA_Channel5_IRQHandler
  57              		.thumb_set BDMA_Channel5_IRQHandler,Default_Handler
  58              		.weak	BDMA_Channel4_IRQHandler
  59              		.thumb_set BDMA_Channel4_IRQHandler,Default_Handler
ARM GAS  /var/folders/lg/77ksxqjx0n7gwph6nqpzcmcw0000gn/T//ccIVAxXK.s 			page 2


  60              		.weak	BDMA_Channel3_IRQHandler
  61              		.thumb_set BDMA_Channel3_IRQHandler,Default_Handler
  62              		.weak	BDMA_Channel2_IRQHandler
  63              		.thumb_set BDMA_Channel2_IRQHandler,Default_Handler
  64              		.weak	BDMA_Channel1_IRQHandler
  65              		.thumb_set BDMA_Channel1_IRQHandler,Default_Handler
  66              		.weak	BDMA_Channel0_IRQHandler
  67              		.thumb_set BDMA_Channel0_IRQHandler,Default_Handler
  68              		.weak	DMAMUX2_OVR_IRQHandler
  69              		.thumb_set DMAMUX2_OVR_IRQHandler,Default_Handler
  70              		.weak	ADC3_IRQHandler
  71              		.thumb_set ADC3_IRQHandler,Default_Handler
  72              		.weak	HSEM1_IRQHandler
  73              		.thumb_set HSEM1_IRQHandler,Default_Handler
  74              		.weak	SDMMC2_IRQHandler
  75              		.thumb_set SDMMC2_IRQHandler,Default_Handler
  76              		.weak	MDMA_IRQHandler
  77              		.thumb_set MDMA_IRQHandler,Default_Handler
  78              		.weak	JPEG_IRQHandler
  79              		.thumb_set JPEG_IRQHandler,Default_Handler
  80              		.weak	MDIOS_IRQHandler
  81              		.thumb_set MDIOS_IRQHandler,Default_Handler
  82              		.weak	MDIOS_WKUP_IRQHandler
  83              		.thumb_set MDIOS_WKUP_IRQHandler,Default_Handler
  84              		.weak	TIM17_IRQHandler
  85              		.thumb_set TIM17_IRQHandler,Default_Handler
  86              		.weak	TIM16_IRQHandler
  87              		.thumb_set TIM16_IRQHandler,Default_Handler
  88              		.weak	TIM15_IRQHandler
  89              		.thumb_set TIM15_IRQHandler,Default_Handler
  90              		.weak	SWPMI1_IRQHandler
  91              		.thumb_set SWPMI1_IRQHandler,Default_Handler
  92              		.weak	SAI3_IRQHandler
  93              		.thumb_set SAI3_IRQHandler,Default_Handler
  94              		.weak	DFSDM1_FLT3_IRQHandler
  95              		.thumb_set DFSDM1_FLT3_IRQHandler,Default_Handler
  96              		.weak	DFSDM1_FLT2_IRQHandler
  97              		.thumb_set DFSDM1_FLT2_IRQHandler,Default_Handler
  98              		.weak	DFSDM1_FLT1_IRQHandler
  99              		.thumb_set DFSDM1_FLT1_IRQHandler,Default_Handler
 100              		.weak	DFSDM1_FLT0_IRQHandler
 101              		.thumb_set DFSDM1_FLT0_IRQHandler,Default_Handler
 102              		.weak	HRTIM1_FLT_IRQHandler
 103              		.thumb_set HRTIM1_FLT_IRQHandler,Default_Handler
 104              		.weak	HRTIM1_TIME_IRQHandler
 105              		.thumb_set HRTIM1_TIME_IRQHandler,Default_Handler
 106              		.weak	HRTIM1_TIMD_IRQHandler
 107              		.thumb_set HRTIM1_TIMD_IRQHandler,Default_Handler
 108              		.weak	HRTIM1_TIMC_IRQHandler
 109              		.thumb_set HRTIM1_TIMC_IRQHandler,Default_Handler
 110              		.weak	HRTIM1_TIMB_IRQHandler
 111              		.thumb_set HRTIM1_TIMB_IRQHandler,Default_Handler
 112              		.weak	HRTIM1_TIMA_IRQHandler
 113              		.thumb_set HRTIM1_TIMA_IRQHandler,Default_Handler
 114              		.weak	HRTIM1_Master_IRQHandler
 115              		.thumb_set HRTIM1_Master_IRQHandler,Default_Handler
 116              		.weak	DMAMUX1_OVR_IRQHandler
ARM GAS  /var/folders/lg/77ksxqjx0n7gwph6nqpzcmcw0000gn/T//ccIVAxXK.s 			page 3


 117              		.thumb_set DMAMUX1_OVR_IRQHandler,Default_Handler
 118              		.weak	OTG_FS_IRQHandler
 119              		.thumb_set OTG_FS_IRQHandler,Default_Handler
 120              		.weak	OTG_FS_WKUP_IRQHandler
 121              		.thumb_set OTG_FS_WKUP_IRQHandler,Default_Handler
 122              		.weak	OTG_FS_EP1_IN_IRQHandler
 123              		.thumb_set OTG_FS_EP1_IN_IRQHandler,Default_Handler
 124              		.weak	OTG_FS_EP1_OUT_IRQHandler
 125              		.thumb_set OTG_FS_EP1_OUT_IRQHandler,Default_Handler
 126              		.weak	SPDIF_RX_IRQHandler
 127              		.thumb_set SPDIF_RX_IRQHandler,Default_Handler
 128              		.weak	I2C4_ER_IRQHandler
 129              		.thumb_set I2C4_ER_IRQHandler,Default_Handler
 130              		.weak	I2C4_EV_IRQHandler
 131              		.thumb_set I2C4_EV_IRQHandler,Default_Handler
 132              		.weak	CEC_IRQHandler
 133              		.thumb_set CEC_IRQHandler,Default_Handler
 134              		.weak	LPTIM1_IRQHandler
 135              		.thumb_set LPTIM1_IRQHandler,Default_Handler
 136              		.weak	QUADSPI_IRQHandler
 137              		.thumb_set QUADSPI_IRQHandler,Default_Handler
 138              		.weak	SAI2_IRQHandler
 139              		.thumb_set SAI2_IRQHandler,Default_Handler
 140              		.weak	DMA2D_IRQHandler
 141              		.thumb_set DMA2D_IRQHandler,Default_Handler
 142              		.weak	LTDC_ER_IRQHandler
 143              		.thumb_set LTDC_ER_IRQHandler,Default_Handler
 144              		.weak	LTDC_IRQHandler
 145              		.thumb_set LTDC_IRQHandler,Default_Handler
 146              		.weak	SAI1_IRQHandler
 147              		.thumb_set SAI1_IRQHandler,Default_Handler
 148              		.weak	SPI6_IRQHandler
 149              		.thumb_set SPI6_IRQHandler,Default_Handler
 150              		.weak	SPI5_IRQHandler
 151              		.thumb_set SPI5_IRQHandler,Default_Handler
 152              		.weak	SPI4_IRQHandler
 153              		.thumb_set SPI4_IRQHandler,Default_Handler
 154              		.weak	UART8_IRQHandler
 155              		.thumb_set UART8_IRQHandler,Default_Handler
 156              		.weak	UART7_IRQHandler
 157              		.thumb_set UART7_IRQHandler,Default_Handler
 158              		.weak	FPU_IRQHandler
 159              		.thumb_set FPU_IRQHandler,Default_Handler
 160              		.weak	HASH_RNG_IRQHandler
 161              		.thumb_set HASH_RNG_IRQHandler,Default_Handler
 162              		.weak	CRYP_IRQHandler
 163              		.thumb_set CRYP_IRQHandler,Default_Handler
 164              		.weak	DCMI_IRQHandler
 165              		.thumb_set DCMI_IRQHandler,Default_Handler
 166              		.weak	OTG_HS_IRQHandler
 167              		.thumb_set OTG_HS_IRQHandler,Default_Handler
 168              		.weak	OTG_HS_WKUP_IRQHandler
 169              		.thumb_set OTG_HS_WKUP_IRQHandler,Default_Handler
 170              		.weak	OTG_HS_EP1_IN_IRQHandler
 171              		.thumb_set OTG_HS_EP1_IN_IRQHandler,Default_Handler
 172              		.weak	OTG_HS_EP1_OUT_IRQHandler
 173              		.thumb_set OTG_HS_EP1_OUT_IRQHandler,Default_Handler
ARM GAS  /var/folders/lg/77ksxqjx0n7gwph6nqpzcmcw0000gn/T//ccIVAxXK.s 			page 4


 174              		.weak	I2C3_ER_IRQHandler
 175              		.thumb_set I2C3_ER_IRQHandler,Default_Handler
 176              		.weak	I2C3_EV_IRQHandler
 177              		.thumb_set I2C3_EV_IRQHandler,Default_Handler
 178              		.weak	USART6_IRQHandler
 179              		.thumb_set USART6_IRQHandler,Default_Handler
 180              		.weak	DMA2_Stream7_IRQHandler
 181              		.thumb_set DMA2_Stream7_IRQHandler,Default_Handler
 182              		.weak	DMA2_Stream6_IRQHandler
 183              		.thumb_set DMA2_Stream6_IRQHandler,Default_Handler
 184              		.weak	DMA2_Stream5_IRQHandler
 185              		.thumb_set DMA2_Stream5_IRQHandler,Default_Handler
 186              		.weak	FDCAN_CAL_IRQHandler
 187              		.thumb_set FDCAN_CAL_IRQHandler,Default_Handler
 188              		.weak	ETH_WKUP_IRQHandler
 189              		.thumb_set ETH_WKUP_IRQHandler,Default_Handler
 190              		.weak	ETH_IRQHandler
 191              		.thumb_set ETH_IRQHandler,Default_Handler
 192              		.weak	DMA2_Stream4_IRQHandler
 193              		.thumb_set DMA2_Stream4_IRQHandler,Default_Handler
 194              		.weak	DMA2_Stream3_IRQHandler
 195              		.thumb_set DMA2_Stream3_IRQHandler,Default_Handler
 196              		.weak	DMA2_Stream2_IRQHandler
 197              		.thumb_set DMA2_Stream2_IRQHandler,Default_Handler
 198              		.weak	DMA2_Stream1_IRQHandler
 199              		.thumb_set DMA2_Stream1_IRQHandler,Default_Handler
 200              		.weak	DMA2_Stream0_IRQHandler
 201              		.thumb_set DMA2_Stream0_IRQHandler,Default_Handler
 202              		.weak	TIM7_IRQHandler
 203              		.thumb_set TIM7_IRQHandler,Default_Handler
 204              		.weak	TIM6_DAC_IRQHandler
 205              		.thumb_set TIM6_DAC_IRQHandler,Default_Handler
 206              		.weak	UART5_IRQHandler
 207              		.thumb_set UART5_IRQHandler,Default_Handler
 208              		.weak	UART4_IRQHandler
 209              		.thumb_set UART4_IRQHandler,Default_Handler
 210              		.weak	SPI3_IRQHandler
 211              		.thumb_set SPI3_IRQHandler,Default_Handler
 212              		.weak	TIM5_IRQHandler
 213              		.thumb_set TIM5_IRQHandler,Default_Handler
 214              		.weak	SDMMC1_IRQHandler
 215              		.thumb_set SDMMC1_IRQHandler,Default_Handler
 216              		.weak	FMC_IRQHandler
 217              		.thumb_set FMC_IRQHandler,Default_Handler
 218              		.weak	DMA1_Stream7_IRQHandler
 219              		.thumb_set DMA1_Stream7_IRQHandler,Default_Handler
 220              		.weak	TIM8_CC_IRQHandler
 221              		.thumb_set TIM8_CC_IRQHandler,Default_Handler
 222              		.weak	TIM8_TRG_COM_TIM14_IRQHandler
 223              		.thumb_set TIM8_TRG_COM_TIM14_IRQHandler,Default_Handler
 224              		.weak	TIM8_UP_TIM13_IRQHandler
 225              		.thumb_set TIM8_UP_TIM13_IRQHandler,Default_Handler
 226              		.weak	TIM8_BRK_TIM12_IRQHandler
 227              		.thumb_set TIM8_BRK_TIM12_IRQHandler,Default_Handler
 228              		.weak	RTC_Alarm_IRQHandler
 229              		.thumb_set RTC_Alarm_IRQHandler,Default_Handler
 230              		.weak	EXTI15_10_IRQHandler
ARM GAS  /var/folders/lg/77ksxqjx0n7gwph6nqpzcmcw0000gn/T//ccIVAxXK.s 			page 5


 231              		.thumb_set EXTI15_10_IRQHandler,Default_Handler
 232              		.weak	USART3_IRQHandler
 233              		.thumb_set USART3_IRQHandler,Default_Handler
 234              		.weak	USART2_IRQHandler
 235              		.thumb_set USART2_IRQHandler,Default_Handler
 236              		.weak	USART1_IRQHandler
 237              		.thumb_set USART1_IRQHandler,Default_Handler
 238              		.weak	SPI2_IRQHandler
 239              		.thumb_set SPI2_IRQHandler,Default_Handler
 240              		.weak	SPI1_IRQHandler
 241              		.thumb_set SPI1_IRQHandler,Default_Handler
 242              		.weak	I2C2_ER_IRQHandler
 243              		.thumb_set I2C2_ER_IRQHandler,Default_Handler
 244              		.weak	I2C2_EV_IRQHandler
 245              		.thumb_set I2C2_EV_IRQHandler,Default_Handler
 246              		.weak	I2C1_ER_IRQHandler
 247              		.thumb_set I2C1_ER_IRQHandler,Default_Handler
 248              		.weak	I2C1_EV_IRQHandler
 249              		.thumb_set I2C1_EV_IRQHandler,Default_Handler
 250              		.weak	TIM4_IRQHandler
 251              		.thumb_set TIM4_IRQHandler,Default_Handler
 252              		.weak	TIM3_IRQHandler
 253              		.thumb_set TIM3_IRQHandler,Default_Handler
 254              		.weak	TIM2_IRQHandler
 255              		.thumb_set TIM2_IRQHandler,Default_Handler
 256              		.weak	TIM1_CC_IRQHandler
 257              		.thumb_set TIM1_CC_IRQHandler,Default_Handler
 258              		.weak	TIM1_TRG_COM_IRQHandler
 259              		.thumb_set TIM1_TRG_COM_IRQHandler,Default_Handler
 260              		.weak	TIM1_UP_IRQHandler
 261              		.thumb_set TIM1_UP_IRQHandler,Default_Handler
 262              		.weak	TIM1_BRK_IRQHandler
 263              		.thumb_set TIM1_BRK_IRQHandler,Default_Handler
 264              		.weak	EXTI9_5_IRQHandler
 265              		.thumb_set EXTI9_5_IRQHandler,Default_Handler
 266              		.weak	FDCAN2_IT1_IRQHandler
 267              		.thumb_set FDCAN2_IT1_IRQHandler,Default_Handler
 268              		.weak	FDCAN1_IT1_IRQHandler
 269              		.thumb_set FDCAN1_IT1_IRQHandler,Default_Handler
 270              		.weak	FDCAN2_IT0_IRQHandler
 271              		.thumb_set FDCAN2_IT0_IRQHandler,Default_Handler
 272              		.weak	FDCAN1_IT0_IRQHandler
 273              		.thumb_set FDCAN1_IT0_IRQHandler,Default_Handler
 274              		.weak	ADC_IRQHandler
 275              		.thumb_set ADC_IRQHandler,Default_Handler
 276              		.weak	DMA1_Stream6_IRQHandler
 277              		.thumb_set DMA1_Stream6_IRQHandler,Default_Handler
 278              		.weak	DMA1_Stream5_IRQHandler
 279              		.thumb_set DMA1_Stream5_IRQHandler,Default_Handler
 280              		.weak	DMA1_Stream4_IRQHandler
 281              		.thumb_set DMA1_Stream4_IRQHandler,Default_Handler
 282              		.weak	DMA1_Stream3_IRQHandler
 283              		.thumb_set DMA1_Stream3_IRQHandler,Default_Handler
 284              		.weak	DMA1_Stream2_IRQHandler
 285              		.thumb_set DMA1_Stream2_IRQHandler,Default_Handler
 286              		.weak	DMA1_Stream1_IRQHandler
 287              		.thumb_set DMA1_Stream1_IRQHandler,Default_Handler
ARM GAS  /var/folders/lg/77ksxqjx0n7gwph6nqpzcmcw0000gn/T//ccIVAxXK.s 			page 6


 288              		.weak	DMA1_Stream0_IRQHandler
 289              		.thumb_set DMA1_Stream0_IRQHandler,Default_Handler
 290              		.weak	EXTI4_IRQHandler
 291              		.thumb_set EXTI4_IRQHandler,Default_Handler
 292              		.weak	EXTI3_IRQHandler
 293              		.thumb_set EXTI3_IRQHandler,Default_Handler
 294              		.weak	EXTI2_IRQHandler
 295              		.thumb_set EXTI2_IRQHandler,Default_Handler
 296              		.weak	EXTI1_IRQHandler
 297              		.thumb_set EXTI1_IRQHandler,Default_Handler
 298              		.weak	EXTI0_IRQHandler
 299              		.thumb_set EXTI0_IRQHandler,Default_Handler
 300              		.weak	RCC_IRQHandler
 301              		.thumb_set RCC_IRQHandler,Default_Handler
 302              		.weak	FLASH_IRQHandler
 303              		.thumb_set FLASH_IRQHandler,Default_Handler
 304              		.weak	RTC_WKUP_IRQHandler
 305              		.thumb_set RTC_WKUP_IRQHandler,Default_Handler
 306              		.weak	TAMP_STAMP_IRQHandler
 307              		.thumb_set TAMP_STAMP_IRQHandler,Default_Handler
 308              		.weak	PVD_AVD_IRQHandler
 309              		.thumb_set PVD_AVD_IRQHandler,Default_Handler
 310              		.weak	WWDG_IRQHandler
 311              		.thumb_set WWDG_IRQHandler,Default_Handler
 312              		.weak	SysTick_Handler
 313              		.thumb_set SysTick_Handler,Default_Handler
 314              		.weak	PendSV_Handler
 315              		.thumb_set PendSV_Handler,Default_Handler
 316              		.weak	DebugMon_Handler
 317              		.thumb_set DebugMon_Handler,Default_Handler
 318              		.weak	SVC_Handler
 319              		.thumb_set SVC_Handler,Default_Handler
 320              		.weak	UsageFault_Handler
 321              		.thumb_set UsageFault_Handler,Default_Handler
 322              		.weak	BusFault_Handler
 323              		.thumb_set BusFault_Handler,Default_Handler
 324              		.weak	MemManage_Handler
 325              		.thumb_set MemManage_Handler,Default_Handler
 326              		.weak	HardFault_Handler
 327              		.thumb_set HardFault_Handler,Default_Handler
 328              		.weak	NMI_Handler
 329              		.thumb_set NMI_Handler,Default_Handler
 330 0002 00BF     		.section	.text.Reset_Handler,"ax",%progbits
 331              		.align	1
 332              		.p2align 2,,3
 333              		.global	Reset_Handler
 334              		.syntax unified
 335              		.thumb
 336              		.thumb_func
 337              		.fpu fpv5-d16
 339              	Reset_Handler:
 340              		@ Naked Function: prologue and epilogue provided by programmer.
 341              		@ Volatile: function does not return.
 342              		@ args = 0, pretend = 0, frame = 0
 343              		@ frame_needed = 0, uses_anonymous_args = 0
 344 0000 0D4B     		ldr	r3, .L12
 345 0002 0E4A     		ldr	r2, .L12+4
ARM GAS  /var/folders/lg/77ksxqjx0n7gwph6nqpzcmcw0000gn/T//ccIVAxXK.s 			page 7


 346 0004 9342     		cmp	r3, r2
 347 0006 06D0     		beq	.L5
 348 0008 0D49     		ldr	r1, .L12+8
 349              	.L6:
 350 000a 51F8040B 		ldr	r0, [r1], #4
 351 000e 43F8040B 		str	r0, [r3], #4
 352 0012 9342     		cmp	r3, r2
 353 0014 F9D1     		bne	.L6
 354              	.L5:
 355 0016 0B4B     		ldr	r3, .L12+12
 356 0018 0B4A     		ldr	r2, .L12+16
 357 001a 9342     		cmp	r3, r2
 358 001c 04D0     		beq	.L7
 359 001e 0021     		movs	r1, #0
 360              	.L8:
 361 0020 43F8041B 		str	r1, [r3], #4
 362 0024 9342     		cmp	r3, r2
 363 0026 FBD1     		bne	.L8
 364              	.L7:
 365 0028 FFF7FEFF 		bl	SystemInit
 366 002c FFF7FEFF 		bl	__libc_init_array
 367 0030 FFF7FEFF 		bl	main
 368              	.L9:
 369 0034 FEE7     		b	.L9
 370              	.L13:
 371 0036 00BF     		.align	2
 372              	.L12:
 373 0038 00000000 		.word	_sdata
 374 003c 00000000 		.word	_edata
 375 0040 00000000 		.word	_sidata
 376 0044 00000000 		.word	_sbss
 377 0048 00000000 		.word	_ebss
 379              		.global	g_pfnVectors
 380              		.section	.isr_vector,"aw"
 381              		.align	2
 384              	g_pfnVectors:
 385 0000 00000000 		.word	_estack
 386 0004 00000000 		.word	Reset_Handler
 387 0008 00000000 		.word	NMI_Handler
 388 000c 00000000 		.word	HardFault_Handler
 389 0010 00000000 		.word	MemManage_Handler
 390 0014 00000000 		.word	BusFault_Handler
 391 0018 00000000 		.word	UsageFault_Handler
 392 001c 00000000 		.word	0
 393 0020 00000000 		.word	0
 394 0024 00000000 		.word	0
 395 0028 00000000 		.word	0
 396 002c 00000000 		.word	SVC_Handler
 397 0030 00000000 		.word	DebugMon_Handler
 398 0034 00000000 		.word	0
 399 0038 00000000 		.word	PendSV_Handler
 400 003c 00000000 		.word	SysTick_Handler
 401 0040 00000000 		.word	WWDG_IRQHandler
 402 0044 00000000 		.word	PVD_AVD_IRQHandler
 403 0048 00000000 		.word	TAMP_STAMP_IRQHandler
 404 004c 00000000 		.word	RTC_WKUP_IRQHandler
 405 0050 00000000 		.word	FLASH_IRQHandler
ARM GAS  /var/folders/lg/77ksxqjx0n7gwph6nqpzcmcw0000gn/T//ccIVAxXK.s 			page 8


 406 0054 00000000 		.word	RCC_IRQHandler
 407 0058 00000000 		.word	EXTI0_IRQHandler
 408 005c 00000000 		.word	EXTI1_IRQHandler
 409 0060 00000000 		.word	EXTI2_IRQHandler
 410 0064 00000000 		.word	EXTI3_IRQHandler
 411 0068 00000000 		.word	EXTI4_IRQHandler
 412 006c 00000000 		.word	DMA1_Stream0_IRQHandler
 413 0070 00000000 		.word	DMA1_Stream1_IRQHandler
 414 0074 00000000 		.word	DMA1_Stream2_IRQHandler
 415 0078 00000000 		.word	DMA1_Stream3_IRQHandler
 416 007c 00000000 		.word	DMA1_Stream4_IRQHandler
 417 0080 00000000 		.word	DMA1_Stream5_IRQHandler
 418 0084 00000000 		.word	DMA1_Stream6_IRQHandler
 419 0088 00000000 		.word	ADC_IRQHandler
 420 008c 00000000 		.word	FDCAN1_IT0_IRQHandler
 421 0090 00000000 		.word	FDCAN2_IT0_IRQHandler
 422 0094 00000000 		.word	FDCAN1_IT1_IRQHandler
 423 0098 00000000 		.word	FDCAN2_IT1_IRQHandler
 424 009c 00000000 		.word	EXTI9_5_IRQHandler
 425 00a0 00000000 		.word	TIM1_BRK_IRQHandler
 426 00a4 00000000 		.word	TIM1_UP_IRQHandler
 427 00a8 00000000 		.word	TIM1_TRG_COM_IRQHandler
 428 00ac 00000000 		.word	TIM1_CC_IRQHandler
 429 00b0 00000000 		.word	TIM2_IRQHandler
 430 00b4 00000000 		.word	TIM3_IRQHandler
 431 00b8 00000000 		.word	TIM4_IRQHandler
 432 00bc 00000000 		.word	I2C1_EV_IRQHandler
 433 00c0 00000000 		.word	I2C1_ER_IRQHandler
 434 00c4 00000000 		.word	I2C2_EV_IRQHandler
 435 00c8 00000000 		.word	I2C2_ER_IRQHandler
 436 00cc 00000000 		.word	SPI1_IRQHandler
 437 00d0 00000000 		.word	SPI2_IRQHandler
 438 00d4 00000000 		.word	USART1_IRQHandler
 439 00d8 00000000 		.word	USART2_IRQHandler
 440 00dc 00000000 		.word	USART3_IRQHandler
 441 00e0 00000000 		.word	EXTI15_10_IRQHandler
 442 00e4 00000000 		.word	RTC_Alarm_IRQHandler
 443 00e8 00000000 		.word	0
 444 00ec 00000000 		.word	TIM8_BRK_TIM12_IRQHandler
 445 00f0 00000000 		.word	TIM8_UP_TIM13_IRQHandler
 446 00f4 00000000 		.word	TIM8_TRG_COM_TIM14_IRQHandler
 447 00f8 00000000 		.word	TIM8_CC_IRQHandler
 448 00fc 00000000 		.word	DMA1_Stream7_IRQHandler
 449 0100 00000000 		.word	FMC_IRQHandler
 450 0104 00000000 		.word	SDMMC1_IRQHandler
 451 0108 00000000 		.word	TIM5_IRQHandler
 452 010c 00000000 		.word	SPI3_IRQHandler
 453 0110 00000000 		.word	UART4_IRQHandler
 454 0114 00000000 		.word	UART5_IRQHandler
 455 0118 00000000 		.word	TIM6_DAC_IRQHandler
 456 011c 00000000 		.word	TIM7_IRQHandler
 457 0120 00000000 		.word	DMA2_Stream0_IRQHandler
 458 0124 00000000 		.word	DMA2_Stream1_IRQHandler
 459 0128 00000000 		.word	DMA2_Stream2_IRQHandler
 460 012c 00000000 		.word	DMA2_Stream3_IRQHandler
 461 0130 00000000 		.word	DMA2_Stream4_IRQHandler
 462 0134 00000000 		.word	ETH_IRQHandler
ARM GAS  /var/folders/lg/77ksxqjx0n7gwph6nqpzcmcw0000gn/T//ccIVAxXK.s 			page 9


 463 0138 00000000 		.word	ETH_WKUP_IRQHandler
 464 013c 00000000 		.word	FDCAN_CAL_IRQHandler
 465 0140 00000000 		.word	0
 466 0144 00000000 		.word	0
 467 0148 00000000 		.word	0
 468 014c 00000000 		.word	0
 469 0150 00000000 		.word	DMA2_Stream5_IRQHandler
 470 0154 00000000 		.word	DMA2_Stream6_IRQHandler
 471 0158 00000000 		.word	DMA2_Stream7_IRQHandler
 472 015c 00000000 		.word	USART6_IRQHandler
 473 0160 00000000 		.word	I2C3_EV_IRQHandler
 474 0164 00000000 		.word	I2C3_ER_IRQHandler
 475 0168 00000000 		.word	OTG_HS_EP1_OUT_IRQHandler
 476 016c 00000000 		.word	OTG_HS_EP1_IN_IRQHandler
 477 0170 00000000 		.word	OTG_HS_WKUP_IRQHandler
 478 0174 00000000 		.word	OTG_HS_IRQHandler
 479 0178 00000000 		.word	DCMI_IRQHandler
 480 017c 00000000 		.word	CRYP_IRQHandler
 481 0180 00000000 		.word	HASH_RNG_IRQHandler
 482 0184 00000000 		.word	FPU_IRQHandler
 483 0188 00000000 		.word	UART7_IRQHandler
 484 018c 00000000 		.word	UART8_IRQHandler
 485 0190 00000000 		.word	SPI4_IRQHandler
 486 0194 00000000 		.word	SPI5_IRQHandler
 487 0198 00000000 		.word	SPI6_IRQHandler
 488 019c 00000000 		.word	SAI1_IRQHandler
 489 01a0 00000000 		.word	LTDC_IRQHandler
 490 01a4 00000000 		.word	LTDC_ER_IRQHandler
 491 01a8 00000000 		.word	DMA2D_IRQHandler
 492 01ac 00000000 		.word	SAI2_IRQHandler
 493 01b0 00000000 		.word	QUADSPI_IRQHandler
 494 01b4 00000000 		.word	LPTIM1_IRQHandler
 495 01b8 00000000 		.word	CEC_IRQHandler
 496 01bc 00000000 		.word	I2C4_EV_IRQHandler
 497 01c0 00000000 		.word	I2C4_ER_IRQHandler
 498 01c4 00000000 		.word	SPDIF_RX_IRQHandler
 499 01c8 00000000 		.word	OTG_FS_EP1_OUT_IRQHandler
 500 01cc 00000000 		.word	OTG_FS_EP1_IN_IRQHandler
 501 01d0 00000000 		.word	OTG_FS_WKUP_IRQHandler
 502 01d4 00000000 		.word	OTG_FS_IRQHandler
 503 01d8 00000000 		.word	DMAMUX1_OVR_IRQHandler
 504 01dc 00000000 		.word	HRTIM1_Master_IRQHandler
 505 01e0 00000000 		.word	HRTIM1_TIMA_IRQHandler
 506 01e4 00000000 		.word	HRTIM1_TIMB_IRQHandler
 507 01e8 00000000 		.word	HRTIM1_TIMC_IRQHandler
 508 01ec 00000000 		.word	HRTIM1_TIMD_IRQHandler
 509 01f0 00000000 		.word	HRTIM1_TIME_IRQHandler
 510 01f4 00000000 		.word	HRTIM1_FLT_IRQHandler
 511 01f8 00000000 		.word	DFSDM1_FLT0_IRQHandler
 512 01fc 00000000 		.word	DFSDM1_FLT1_IRQHandler
 513 0200 00000000 		.word	DFSDM1_FLT2_IRQHandler
 514 0204 00000000 		.word	DFSDM1_FLT3_IRQHandler
 515 0208 00000000 		.word	SAI3_IRQHandler
 516 020c 00000000 		.word	SWPMI1_IRQHandler
 517 0210 00000000 		.word	TIM15_IRQHandler
 518 0214 00000000 		.word	TIM16_IRQHandler
 519 0218 00000000 		.word	TIM17_IRQHandler
ARM GAS  /var/folders/lg/77ksxqjx0n7gwph6nqpzcmcw0000gn/T//ccIVAxXK.s 			page 10


 520 021c 00000000 		.word	MDIOS_WKUP_IRQHandler
 521 0220 00000000 		.word	MDIOS_IRQHandler
 522 0224 00000000 		.word	JPEG_IRQHandler
 523 0228 00000000 		.word	MDMA_IRQHandler
 524 022c 00000000 		.word	0
 525 0230 00000000 		.word	SDMMC2_IRQHandler
 526 0234 00000000 		.word	HSEM1_IRQHandler
 527 0238 00000000 		.word	0
 528 023c 00000000 		.word	ADC3_IRQHandler
 529 0240 00000000 		.word	DMAMUX2_OVR_IRQHandler
 530 0244 00000000 		.word	BDMA_Channel0_IRQHandler
 531 0248 00000000 		.word	BDMA_Channel1_IRQHandler
 532 024c 00000000 		.word	BDMA_Channel2_IRQHandler
 533 0250 00000000 		.word	BDMA_Channel3_IRQHandler
 534 0254 00000000 		.word	BDMA_Channel4_IRQHandler
 535 0258 00000000 		.word	BDMA_Channel5_IRQHandler
 536 025c 00000000 		.word	BDMA_Channel6_IRQHandler
 537 0260 00000000 		.word	BDMA_Channel7_IRQHandler
 538 0264 00000000 		.word	COMP1_IRQHandler
 539 0268 00000000 		.word	LPTIM2_IRQHandler
 540 026c 00000000 		.word	LPTIM3_IRQHandler
 541 0270 00000000 		.word	LPTIM4_IRQHandler
 542 0274 00000000 		.word	LPTIM5_IRQHandler
 543 0278 00000000 		.word	LPUART1_IRQHandler
 544 027c 00000000 		.word	0
 545 0280 00000000 		.word	CRS_IRQHandler
 546 0284 00000000 		.word	ECC_IRQHandler
 547 0288 00000000 		.word	SAI4_IRQHandler
 548 028c 00000000 		.word	0
 549 0290 00000000 		.word	0
 550 0294 00000000 		.word	WAKEUP_PIN_IRQHandler
 551              		.ident	"GCC: (GNU Arm Embedded Toolchain 9-2020-q2-update) 9.3.1 20200408 (release)"
ARM GAS  /var/folders/lg/77ksxqjx0n7gwph6nqpzcmcw0000gn/T//ccIVAxXK.s 			page 11


DEFINED SYMBOLS
                            *ABS*:0000000000000000 startup_stm32h750xx.c
/var/folders/lg/77ksxqjx0n7gwph6nqpzcmcw0000gn/T//ccIVAxXK.s:15     .text.Default_Handler:0000000000000000 $t
/var/folders/lg/77ksxqjx0n7gwph6nqpzcmcw0000gn/T//ccIVAxXK.s:24     .text.Default_Handler:0000000000000000 Default_Handler
/var/folders/lg/77ksxqjx0n7gwph6nqpzcmcw0000gn/T//ccIVAxXK.s:24     .text.Default_Handler:0000000000000000 WAKEUP_PIN_IRQHandler
/var/folders/lg/77ksxqjx0n7gwph6nqpzcmcw0000gn/T//ccIVAxXK.s:24     .text.Default_Handler:0000000000000000 SAI4_IRQHandler
/var/folders/lg/77ksxqjx0n7gwph6nqpzcmcw0000gn/T//ccIVAxXK.s:24     .text.Default_Handler:0000000000000000 ECC_IRQHandler
/var/folders/lg/77ksxqjx0n7gwph6nqpzcmcw0000gn/T//ccIVAxXK.s:24     .text.Default_Handler:0000000000000000 CRS_IRQHandler
/var/folders/lg/77ksxqjx0n7gwph6nqpzcmcw0000gn/T//ccIVAxXK.s:24     .text.Default_Handler:0000000000000000 LPUART1_IRQHandler
/var/folders/lg/77ksxqjx0n7gwph6nqpzcmcw0000gn/T//ccIVAxXK.s:24     .text.Default_Handler:0000000000000000 LPTIM5_IRQHandler
/var/folders/lg/77ksxqjx0n7gwph6nqpzcmcw0000gn/T//ccIVAxXK.s:24     .text.Default_Handler:0000000000000000 LPTIM4_IRQHandler
/var/folders/lg/77ksxqjx0n7gwph6nqpzcmcw0000gn/T//ccIVAxXK.s:24     .text.Default_Handler:0000000000000000 LPTIM3_IRQHandler
/var/folders/lg/77ksxqjx0n7gwph6nqpzcmcw0000gn/T//ccIVAxXK.s:24     .text.Default_Handler:0000000000000000 LPTIM2_IRQHandler
/var/folders/lg/77ksxqjx0n7gwph6nqpzcmcw0000gn/T//ccIVAxXK.s:24     .text.Default_Handler:0000000000000000 COMP1_IRQHandler
/var/folders/lg/77ksxqjx0n7gwph6nqpzcmcw0000gn/T//ccIVAxXK.s:24     .text.Default_Handler:0000000000000000 BDMA_Channel7_IRQHandler
/var/folders/lg/77ksxqjx0n7gwph6nqpzcmcw0000gn/T//ccIVAxXK.s:24     .text.Default_Handler:0000000000000000 BDMA_Channel6_IRQHandler
/var/folders/lg/77ksxqjx0n7gwph6nqpzcmcw0000gn/T//ccIVAxXK.s:24     .text.Default_Handler:0000000000000000 BDMA_Channel5_IRQHandler
/var/folders/lg/77ksxqjx0n7gwph6nqpzcmcw0000gn/T//ccIVAxXK.s:24     .text.Default_Handler:0000000000000000 BDMA_Channel4_IRQHandler
/var/folders/lg/77ksxqjx0n7gwph6nqpzcmcw0000gn/T//ccIVAxXK.s:24     .text.Default_Handler:0000000000000000 BDMA_Channel3_IRQHandler
/var/folders/lg/77ksxqjx0n7gwph6nqpzcmcw0000gn/T//ccIVAxXK.s:24     .text.Default_Handler:0000000000000000 BDMA_Channel2_IRQHandler
/var/folders/lg/77ksxqjx0n7gwph6nqpzcmcw0000gn/T//ccIVAxXK.s:24     .text.Default_Handler:0000000000000000 BDMA_Channel1_IRQHandler
/var/folders/lg/77ksxqjx0n7gwph6nqpzcmcw0000gn/T//ccIVAxXK.s:24     .text.Default_Handler:0000000000000000 BDMA_Channel0_IRQHandler
/var/folders/lg/77ksxqjx0n7gwph6nqpzcmcw0000gn/T//ccIVAxXK.s:24     .text.Default_Handler:0000000000000000 DMAMUX2_OVR_IRQHandler
/var/folders/lg/77ksxqjx0n7gwph6nqpzcmcw0000gn/T//ccIVAxXK.s:24     .text.Default_Handler:0000000000000000 ADC3_IRQHandler
/var/folders/lg/77ksxqjx0n7gwph6nqpzcmcw0000gn/T//ccIVAxXK.s:24     .text.Default_Handler:0000000000000000 HSEM1_IRQHandler
/var/folders/lg/77ksxqjx0n7gwph6nqpzcmcw0000gn/T//ccIVAxXK.s:24     .text.Default_Handler:0000000000000000 SDMMC2_IRQHandler
/var/folders/lg/77ksxqjx0n7gwph6nqpzcmcw0000gn/T//ccIVAxXK.s:24     .text.Default_Handler:0000000000000000 MDMA_IRQHandler
/var/folders/lg/77ksxqjx0n7gwph6nqpzcmcw0000gn/T//ccIVAxXK.s:24     .text.Default_Handler:0000000000000000 JPEG_IRQHandler
/var/folders/lg/77ksxqjx0n7gwph6nqpzcmcw0000gn/T//ccIVAxXK.s:24     .text.Default_Handler:0000000000000000 MDIOS_IRQHandler
/var/folders/lg/77ksxqjx0n7gwph6nqpzcmcw0000gn/T//ccIVAxXK.s:24     .text.Default_Handler:0000000000000000 MDIOS_WKUP_IRQHandler
/var/folders/lg/77ksxqjx0n7gwph6nqpzcmcw0000gn/T//ccIVAxXK.s:24     .text.Default_Handler:0000000000000000 TIM17_IRQHandler
/var/folders/lg/77ksxqjx0n7gwph6nqpzcmcw0000gn/T//ccIVAxXK.s:24     .text.Default_Handler:0000000000000000 TIM16_IRQHandler
/var/folders/lg/77ksxqjx0n7gwph6nqpzcmcw0000gn/T//ccIVAxXK.s:24     .text.Default_Handler:0000000000000000 TIM15_IRQHandler
/var/folders/lg/77ksxqjx0n7gwph6nqpzcmcw0000gn/T//ccIVAxXK.s:24     .text.Default_Handler:0000000000000000 SWPMI1_IRQHandler
/var/folders/lg/77ksxqjx0n7gwph6nqpzcmcw0000gn/T//ccIVAxXK.s:24     .text.Default_Handler:0000000000000000 SAI3_IRQHandler
/var/folders/lg/77ksxqjx0n7gwph6nqpzcmcw0000gn/T//ccIVAxXK.s:24     .text.Default_Handler:0000000000000000 DFSDM1_FLT3_IRQHandler
/var/folders/lg/77ksxqjx0n7gwph6nqpzcmcw0000gn/T//ccIVAxXK.s:24     .text.Default_Handler:0000000000000000 DFSDM1_FLT2_IRQHandler
/var/folders/lg/77ksxqjx0n7gwph6nqpzcmcw0000gn/T//ccIVAxXK.s:24     .text.Default_Handler:0000000000000000 DFSDM1_FLT1_IRQHandler
/var/folders/lg/77ksxqjx0n7gwph6nqpzcmcw0000gn/T//ccIVAxXK.s:24     .text.Default_Handler:0000000000000000 DFSDM1_FLT0_IRQHandler
/var/folders/lg/77ksxqjx0n7gwph6nqpzcmcw0000gn/T//ccIVAxXK.s:24     .text.Default_Handler:0000000000000000 HRTIM1_FLT_IRQHandler
/var/folders/lg/77ksxqjx0n7gwph6nqpzcmcw0000gn/T//ccIVAxXK.s:24     .text.Default_Handler:0000000000000000 HRTIM1_TIME_IRQHandler
/var/folders/lg/77ksxqjx0n7gwph6nqpzcmcw0000gn/T//ccIVAxXK.s:24     .text.Default_Handler:0000000000000000 HRTIM1_TIMD_IRQHandler
/var/folders/lg/77ksxqjx0n7gwph6nqpzcmcw0000gn/T//ccIVAxXK.s:24     .text.Default_Handler:0000000000000000 HRTIM1_TIMC_IRQHandler
/var/folders/lg/77ksxqjx0n7gwph6nqpzcmcw0000gn/T//ccIVAxXK.s:24     .text.Default_Handler:0000000000000000 HRTIM1_TIMB_IRQHandler
/var/folders/lg/77ksxqjx0n7gwph6nqpzcmcw0000gn/T//ccIVAxXK.s:24     .text.Default_Handler:0000000000000000 HRTIM1_TIMA_IRQHandler
/var/folders/lg/77ksxqjx0n7gwph6nqpzcmcw0000gn/T//ccIVAxXK.s:24     .text.Default_Handler:0000000000000000 HRTIM1_Master_IRQHandler
/var/folders/lg/77ksxqjx0n7gwph6nqpzcmcw0000gn/T//ccIVAxXK.s:24     .text.Default_Handler:0000000000000000 DMAMUX1_OVR_IRQHandler
/var/folders/lg/77ksxqjx0n7gwph6nqpzcmcw0000gn/T//ccIVAxXK.s:24     .text.Default_Handler:0000000000000000 OTG_FS_IRQHandler
/var/folders/lg/77ksxqjx0n7gwph6nqpzcmcw0000gn/T//ccIVAxXK.s:24     .text.Default_Handler:0000000000000000 OTG_FS_WKUP_IRQHandler
/var/folders/lg/77ksxqjx0n7gwph6nqpzcmcw0000gn/T//ccIVAxXK.s:24     .text.Default_Handler:0000000000000000 OTG_FS_EP1_IN_IRQHandler
/var/folders/lg/77ksxqjx0n7gwph6nqpzcmcw0000gn/T//ccIVAxXK.s:24     .text.Default_Handler:0000000000000000 OTG_FS_EP1_OUT_IRQHandler
/var/folders/lg/77ksxqjx0n7gwph6nqpzcmcw0000gn/T//ccIVAxXK.s:24     .text.Default_Handler:0000000000000000 SPDIF_RX_IRQHandler
/var/folders/lg/77ksxqjx0n7gwph6nqpzcmcw0000gn/T//ccIVAxXK.s:24     .text.Default_Handler:0000000000000000 I2C4_ER_IRQHandler
/var/folders/lg/77ksxqjx0n7gwph6nqpzcmcw0000gn/T//ccIVAxXK.s:24     .text.Default_Handler:0000000000000000 I2C4_EV_IRQHandler
/var/folders/lg/77ksxqjx0n7gwph6nqpzcmcw0000gn/T//ccIVAxXK.s:24     .text.Default_Handler:0000000000000000 CEC_IRQHandler
/var/folders/lg/77ksxqjx0n7gwph6nqpzcmcw0000gn/T//ccIVAxXK.s:24     .text.Default_Handler:0000000000000000 LPTIM1_IRQHandler
/var/folders/lg/77ksxqjx0n7gwph6nqpzcmcw0000gn/T//ccIVAxXK.s:24     .text.Default_Handler:0000000000000000 QUADSPI_IRQHandler
ARM GAS  /var/folders/lg/77ksxqjx0n7gwph6nqpzcmcw0000gn/T//ccIVAxXK.s 			page 12


/var/folders/lg/77ksxqjx0n7gwph6nqpzcmcw0000gn/T//ccIVAxXK.s:24     .text.Default_Handler:0000000000000000 SAI2_IRQHandler
/var/folders/lg/77ksxqjx0n7gwph6nqpzcmcw0000gn/T//ccIVAxXK.s:24     .text.Default_Handler:0000000000000000 DMA2D_IRQHandler
/var/folders/lg/77ksxqjx0n7gwph6nqpzcmcw0000gn/T//ccIVAxXK.s:24     .text.Default_Handler:0000000000000000 LTDC_ER_IRQHandler
/var/folders/lg/77ksxqjx0n7gwph6nqpzcmcw0000gn/T//ccIVAxXK.s:24     .text.Default_Handler:0000000000000000 LTDC_IRQHandler
/var/folders/lg/77ksxqjx0n7gwph6nqpzcmcw0000gn/T//ccIVAxXK.s:24     .text.Default_Handler:0000000000000000 SAI1_IRQHandler
/var/folders/lg/77ksxqjx0n7gwph6nqpzcmcw0000gn/T//ccIVAxXK.s:24     .text.Default_Handler:0000000000000000 SPI6_IRQHandler
/var/folders/lg/77ksxqjx0n7gwph6nqpzcmcw0000gn/T//ccIVAxXK.s:24     .text.Default_Handler:0000000000000000 SPI5_IRQHandler
/var/folders/lg/77ksxqjx0n7gwph6nqpzcmcw0000gn/T//ccIVAxXK.s:24     .text.Default_Handler:0000000000000000 SPI4_IRQHandler
/var/folders/lg/77ksxqjx0n7gwph6nqpzcmcw0000gn/T//ccIVAxXK.s:24     .text.Default_Handler:0000000000000000 UART8_IRQHandler
/var/folders/lg/77ksxqjx0n7gwph6nqpzcmcw0000gn/T//ccIVAxXK.s:24     .text.Default_Handler:0000000000000000 UART7_IRQHandler
/var/folders/lg/77ksxqjx0n7gwph6nqpzcmcw0000gn/T//ccIVAxXK.s:24     .text.Default_Handler:0000000000000000 FPU_IRQHandler
/var/folders/lg/77ksxqjx0n7gwph6nqpzcmcw0000gn/T//ccIVAxXK.s:24     .text.Default_Handler:0000000000000000 HASH_RNG_IRQHandler
/var/folders/lg/77ksxqjx0n7gwph6nqpzcmcw0000gn/T//ccIVAxXK.s:24     .text.Default_Handler:0000000000000000 CRYP_IRQHandler
/var/folders/lg/77ksxqjx0n7gwph6nqpzcmcw0000gn/T//ccIVAxXK.s:24     .text.Default_Handler:0000000000000000 DCMI_IRQHandler
/var/folders/lg/77ksxqjx0n7gwph6nqpzcmcw0000gn/T//ccIVAxXK.s:24     .text.Default_Handler:0000000000000000 OTG_HS_IRQHandler
/var/folders/lg/77ksxqjx0n7gwph6nqpzcmcw0000gn/T//ccIVAxXK.s:24     .text.Default_Handler:0000000000000000 OTG_HS_WKUP_IRQHandler
/var/folders/lg/77ksxqjx0n7gwph6nqpzcmcw0000gn/T//ccIVAxXK.s:24     .text.Default_Handler:0000000000000000 OTG_HS_EP1_IN_IRQHandler
/var/folders/lg/77ksxqjx0n7gwph6nqpzcmcw0000gn/T//ccIVAxXK.s:24     .text.Default_Handler:0000000000000000 OTG_HS_EP1_OUT_IRQHandler
/var/folders/lg/77ksxqjx0n7gwph6nqpzcmcw0000gn/T//ccIVAxXK.s:24     .text.Default_Handler:0000000000000000 I2C3_ER_IRQHandler
/var/folders/lg/77ksxqjx0n7gwph6nqpzcmcw0000gn/T//ccIVAxXK.s:24     .text.Default_Handler:0000000000000000 I2C3_EV_IRQHandler
/var/folders/lg/77ksxqjx0n7gwph6nqpzcmcw0000gn/T//ccIVAxXK.s:24     .text.Default_Handler:0000000000000000 USART6_IRQHandler
/var/folders/lg/77ksxqjx0n7gwph6nqpzcmcw0000gn/T//ccIVAxXK.s:24     .text.Default_Handler:0000000000000000 DMA2_Stream7_IRQHandler
/var/folders/lg/77ksxqjx0n7gwph6nqpzcmcw0000gn/T//ccIVAxXK.s:24     .text.Default_Handler:0000000000000000 DMA2_Stream6_IRQHandler
/var/folders/lg/77ksxqjx0n7gwph6nqpzcmcw0000gn/T//ccIVAxXK.s:24     .text.Default_Handler:0000000000000000 DMA2_Stream5_IRQHandler
/var/folders/lg/77ksxqjx0n7gwph6nqpzcmcw0000gn/T//ccIVAxXK.s:24     .text.Default_Handler:0000000000000000 FDCAN_CAL_IRQHandler
/var/folders/lg/77ksxqjx0n7gwph6nqpzcmcw0000gn/T//ccIVAxXK.s:24     .text.Default_Handler:0000000000000000 ETH_WKUP_IRQHandler
/var/folders/lg/77ksxqjx0n7gwph6nqpzcmcw0000gn/T//ccIVAxXK.s:24     .text.Default_Handler:0000000000000000 ETH_IRQHandler
/var/folders/lg/77ksxqjx0n7gwph6nqpzcmcw0000gn/T//ccIVAxXK.s:24     .text.Default_Handler:0000000000000000 DMA2_Stream4_IRQHandler
/var/folders/lg/77ksxqjx0n7gwph6nqpzcmcw0000gn/T//ccIVAxXK.s:24     .text.Default_Handler:0000000000000000 DMA2_Stream3_IRQHandler
/var/folders/lg/77ksxqjx0n7gwph6nqpzcmcw0000gn/T//ccIVAxXK.s:24     .text.Default_Handler:0000000000000000 DMA2_Stream2_IRQHandler
/var/folders/lg/77ksxqjx0n7gwph6nqpzcmcw0000gn/T//ccIVAxXK.s:24     .text.Default_Handler:0000000000000000 DMA2_Stream1_IRQHandler
/var/folders/lg/77ksxqjx0n7gwph6nqpzcmcw0000gn/T//ccIVAxXK.s:24     .text.Default_Handler:0000000000000000 DMA2_Stream0_IRQHandler
/var/folders/lg/77ksxqjx0n7gwph6nqpzcmcw0000gn/T//ccIVAxXK.s:24     .text.Default_Handler:0000000000000000 TIM7_IRQHandler
/var/folders/lg/77ksxqjx0n7gwph6nqpzcmcw0000gn/T//ccIVAxXK.s:24     .text.Default_Handler:0000000000000000 TIM6_DAC_IRQHandler
/var/folders/lg/77ksxqjx0n7gwph6nqpzcmcw0000gn/T//ccIVAxXK.s:24     .text.Default_Handler:0000000000000000 UART5_IRQHandler
/var/folders/lg/77ksxqjx0n7gwph6nqpzcmcw0000gn/T//ccIVAxXK.s:24     .text.Default_Handler:0000000000000000 UART4_IRQHandler
/var/folders/lg/77ksxqjx0n7gwph6nqpzcmcw0000gn/T//ccIVAxXK.s:24     .text.Default_Handler:0000000000000000 SPI3_IRQHandler
/var/folders/lg/77ksxqjx0n7gwph6nqpzcmcw0000gn/T//ccIVAxXK.s:24     .text.Default_Handler:0000000000000000 TIM5_IRQHandler
/var/folders/lg/77ksxqjx0n7gwph6nqpzcmcw0000gn/T//ccIVAxXK.s:24     .text.Default_Handler:0000000000000000 SDMMC1_IRQHandler
/var/folders/lg/77ksxqjx0n7gwph6nqpzcmcw0000gn/T//ccIVAxXK.s:24     .text.Default_Handler:0000000000000000 FMC_IRQHandler
/var/folders/lg/77ksxqjx0n7gwph6nqpzcmcw0000gn/T//ccIVAxXK.s:24     .text.Default_Handler:0000000000000000 DMA1_Stream7_IRQHandler
/var/folders/lg/77ksxqjx0n7gwph6nqpzcmcw0000gn/T//ccIVAxXK.s:24     .text.Default_Handler:0000000000000000 TIM8_CC_IRQHandler
/var/folders/lg/77ksxqjx0n7gwph6nqpzcmcw0000gn/T//ccIVAxXK.s:24     .text.Default_Handler:0000000000000000 TIM8_TRG_COM_TIM14_IRQHandler
/var/folders/lg/77ksxqjx0n7gwph6nqpzcmcw0000gn/T//ccIVAxXK.s:24     .text.Default_Handler:0000000000000000 TIM8_UP_TIM13_IRQHandler
/var/folders/lg/77ksxqjx0n7gwph6nqpzcmcw0000gn/T//ccIVAxXK.s:24     .text.Default_Handler:0000000000000000 TIM8_BRK_TIM12_IRQHandler
/var/folders/lg/77ksxqjx0n7gwph6nqpzcmcw0000gn/T//ccIVAxXK.s:24     .text.Default_Handler:0000000000000000 RTC_Alarm_IRQHandler
/var/folders/lg/77ksxqjx0n7gwph6nqpzcmcw0000gn/T//ccIVAxXK.s:24     .text.Default_Handler:0000000000000000 EXTI15_10_IRQHandler
/var/folders/lg/77ksxqjx0n7gwph6nqpzcmcw0000gn/T//ccIVAxXK.s:24     .text.Default_Handler:0000000000000000 USART3_IRQHandler
/var/folders/lg/77ksxqjx0n7gwph6nqpzcmcw0000gn/T//ccIVAxXK.s:24     .text.Default_Handler:0000000000000000 USART2_IRQHandler
/var/folders/lg/77ksxqjx0n7gwph6nqpzcmcw0000gn/T//ccIVAxXK.s:24     .text.Default_Handler:0000000000000000 USART1_IRQHandler
/var/folders/lg/77ksxqjx0n7gwph6nqpzcmcw0000gn/T//ccIVAxXK.s:24     .text.Default_Handler:0000000000000000 SPI2_IRQHandler
/var/folders/lg/77ksxqjx0n7gwph6nqpzcmcw0000gn/T//ccIVAxXK.s:24     .text.Default_Handler:0000000000000000 SPI1_IRQHandler
/var/folders/lg/77ksxqjx0n7gwph6nqpzcmcw0000gn/T//ccIVAxXK.s:24     .text.Default_Handler:0000000000000000 I2C2_ER_IRQHandler
/var/folders/lg/77ksxqjx0n7gwph6nqpzcmcw0000gn/T//ccIVAxXK.s:24     .text.Default_Handler:0000000000000000 I2C2_EV_IRQHandler
/var/folders/lg/77ksxqjx0n7gwph6nqpzcmcw0000gn/T//ccIVAxXK.s:24     .text.Default_Handler:0000000000000000 I2C1_ER_IRQHandler
/var/folders/lg/77ksxqjx0n7gwph6nqpzcmcw0000gn/T//ccIVAxXK.s:24     .text.Default_Handler:0000000000000000 I2C1_EV_IRQHandler
/var/folders/lg/77ksxqjx0n7gwph6nqpzcmcw0000gn/T//ccIVAxXK.s:24     .text.Default_Handler:0000000000000000 TIM4_IRQHandler
ARM GAS  /var/folders/lg/77ksxqjx0n7gwph6nqpzcmcw0000gn/T//ccIVAxXK.s 			page 13


/var/folders/lg/77ksxqjx0n7gwph6nqpzcmcw0000gn/T//ccIVAxXK.s:24     .text.Default_Handler:0000000000000000 TIM3_IRQHandler
/var/folders/lg/77ksxqjx0n7gwph6nqpzcmcw0000gn/T//ccIVAxXK.s:24     .text.Default_Handler:0000000000000000 TIM2_IRQHandler
/var/folders/lg/77ksxqjx0n7gwph6nqpzcmcw0000gn/T//ccIVAxXK.s:24     .text.Default_Handler:0000000000000000 TIM1_CC_IRQHandler
/var/folders/lg/77ksxqjx0n7gwph6nqpzcmcw0000gn/T//ccIVAxXK.s:24     .text.Default_Handler:0000000000000000 TIM1_TRG_COM_IRQHandler
/var/folders/lg/77ksxqjx0n7gwph6nqpzcmcw0000gn/T//ccIVAxXK.s:24     .text.Default_Handler:0000000000000000 TIM1_UP_IRQHandler
/var/folders/lg/77ksxqjx0n7gwph6nqpzcmcw0000gn/T//ccIVAxXK.s:24     .text.Default_Handler:0000000000000000 TIM1_BRK_IRQHandler
/var/folders/lg/77ksxqjx0n7gwph6nqpzcmcw0000gn/T//ccIVAxXK.s:24     .text.Default_Handler:0000000000000000 EXTI9_5_IRQHandler
/var/folders/lg/77ksxqjx0n7gwph6nqpzcmcw0000gn/T//ccIVAxXK.s:24     .text.Default_Handler:0000000000000000 FDCAN2_IT1_IRQHandler
/var/folders/lg/77ksxqjx0n7gwph6nqpzcmcw0000gn/T//ccIVAxXK.s:24     .text.Default_Handler:0000000000000000 FDCAN1_IT1_IRQHandler
/var/folders/lg/77ksxqjx0n7gwph6nqpzcmcw0000gn/T//ccIVAxXK.s:24     .text.Default_Handler:0000000000000000 FDCAN2_IT0_IRQHandler
/var/folders/lg/77ksxqjx0n7gwph6nqpzcmcw0000gn/T//ccIVAxXK.s:24     .text.Default_Handler:0000000000000000 FDCAN1_IT0_IRQHandler
/var/folders/lg/77ksxqjx0n7gwph6nqpzcmcw0000gn/T//ccIVAxXK.s:24     .text.Default_Handler:0000000000000000 ADC_IRQHandler
/var/folders/lg/77ksxqjx0n7gwph6nqpzcmcw0000gn/T//ccIVAxXK.s:24     .text.Default_Handler:0000000000000000 DMA1_Stream6_IRQHandler
/var/folders/lg/77ksxqjx0n7gwph6nqpzcmcw0000gn/T//ccIVAxXK.s:24     .text.Default_Handler:0000000000000000 DMA1_Stream5_IRQHandler
/var/folders/lg/77ksxqjx0n7gwph6nqpzcmcw0000gn/T//ccIVAxXK.s:24     .text.Default_Handler:0000000000000000 DMA1_Stream4_IRQHandler
/var/folders/lg/77ksxqjx0n7gwph6nqpzcmcw0000gn/T//ccIVAxXK.s:24     .text.Default_Handler:0000000000000000 DMA1_Stream3_IRQHandler
/var/folders/lg/77ksxqjx0n7gwph6nqpzcmcw0000gn/T//ccIVAxXK.s:24     .text.Default_Handler:0000000000000000 DMA1_Stream2_IRQHandler
/var/folders/lg/77ksxqjx0n7gwph6nqpzcmcw0000gn/T//ccIVAxXK.s:24     .text.Default_Handler:0000000000000000 DMA1_Stream1_IRQHandler
/var/folders/lg/77ksxqjx0n7gwph6nqpzcmcw0000gn/T//ccIVAxXK.s:24     .text.Default_Handler:0000000000000000 DMA1_Stream0_IRQHandler
/var/folders/lg/77ksxqjx0n7gwph6nqpzcmcw0000gn/T//ccIVAxXK.s:24     .text.Default_Handler:0000000000000000 EXTI4_IRQHandler
/var/folders/lg/77ksxqjx0n7gwph6nqpzcmcw0000gn/T//ccIVAxXK.s:24     .text.Default_Handler:0000000000000000 EXTI3_IRQHandler
/var/folders/lg/77ksxqjx0n7gwph6nqpzcmcw0000gn/T//ccIVAxXK.s:24     .text.Default_Handler:0000000000000000 EXTI2_IRQHandler
/var/folders/lg/77ksxqjx0n7gwph6nqpzcmcw0000gn/T//ccIVAxXK.s:24     .text.Default_Handler:0000000000000000 EXTI1_IRQHandler
/var/folders/lg/77ksxqjx0n7gwph6nqpzcmcw0000gn/T//ccIVAxXK.s:24     .text.Default_Handler:0000000000000000 EXTI0_IRQHandler
/var/folders/lg/77ksxqjx0n7gwph6nqpzcmcw0000gn/T//ccIVAxXK.s:24     .text.Default_Handler:0000000000000000 RCC_IRQHandler
/var/folders/lg/77ksxqjx0n7gwph6nqpzcmcw0000gn/T//ccIVAxXK.s:24     .text.Default_Handler:0000000000000000 FLASH_IRQHandler
/var/folders/lg/77ksxqjx0n7gwph6nqpzcmcw0000gn/T//ccIVAxXK.s:24     .text.Default_Handler:0000000000000000 RTC_WKUP_IRQHandler
/var/folders/lg/77ksxqjx0n7gwph6nqpzcmcw0000gn/T//ccIVAxXK.s:24     .text.Default_Handler:0000000000000000 TAMP_STAMP_IRQHandler
/var/folders/lg/77ksxqjx0n7gwph6nqpzcmcw0000gn/T//ccIVAxXK.s:24     .text.Default_Handler:0000000000000000 PVD_AVD_IRQHandler
/var/folders/lg/77ksxqjx0n7gwph6nqpzcmcw0000gn/T//ccIVAxXK.s:24     .text.Default_Handler:0000000000000000 WWDG_IRQHandler
/var/folders/lg/77ksxqjx0n7gwph6nqpzcmcw0000gn/T//ccIVAxXK.s:24     .text.Default_Handler:0000000000000000 SysTick_Handler
/var/folders/lg/77ksxqjx0n7gwph6nqpzcmcw0000gn/T//ccIVAxXK.s:24     .text.Default_Handler:0000000000000000 PendSV_Handler
/var/folders/lg/77ksxqjx0n7gwph6nqpzcmcw0000gn/T//ccIVAxXK.s:24     .text.Default_Handler:0000000000000000 DebugMon_Handler
/var/folders/lg/77ksxqjx0n7gwph6nqpzcmcw0000gn/T//ccIVAxXK.s:24     .text.Default_Handler:0000000000000000 SVC_Handler
/var/folders/lg/77ksxqjx0n7gwph6nqpzcmcw0000gn/T//ccIVAxXK.s:24     .text.Default_Handler:0000000000000000 UsageFault_Handler
/var/folders/lg/77ksxqjx0n7gwph6nqpzcmcw0000gn/T//ccIVAxXK.s:24     .text.Default_Handler:0000000000000000 BusFault_Handler
/var/folders/lg/77ksxqjx0n7gwph6nqpzcmcw0000gn/T//ccIVAxXK.s:24     .text.Default_Handler:0000000000000000 MemManage_Handler
/var/folders/lg/77ksxqjx0n7gwph6nqpzcmcw0000gn/T//ccIVAxXK.s:24     .text.Default_Handler:0000000000000000 HardFault_Handler
/var/folders/lg/77ksxqjx0n7gwph6nqpzcmcw0000gn/T//ccIVAxXK.s:24     .text.Default_Handler:0000000000000000 NMI_Handler
/var/folders/lg/77ksxqjx0n7gwph6nqpzcmcw0000gn/T//ccIVAxXK.s:331    .text.Reset_Handler:0000000000000000 $t
/var/folders/lg/77ksxqjx0n7gwph6nqpzcmcw0000gn/T//ccIVAxXK.s:339    .text.Reset_Handler:0000000000000000 Reset_Handler
/var/folders/lg/77ksxqjx0n7gwph6nqpzcmcw0000gn/T//ccIVAxXK.s:373    .text.Reset_Handler:0000000000000038 $d
/var/folders/lg/77ksxqjx0n7gwph6nqpzcmcw0000gn/T//ccIVAxXK.s:384    .isr_vector:0000000000000000 g_pfnVectors
/var/folders/lg/77ksxqjx0n7gwph6nqpzcmcw0000gn/T//ccIVAxXK.s:381    .isr_vector:0000000000000000 $d

UNDEFINED SYMBOLS
SystemInit
__libc_init_array
main
_sdata
_edata
_sidata
_sbss
_ebss
_estack
